
requested_csr_por.elf:     file format elf32-littleriscv


Disassembly of section .vectors:

00000000 <__vector_start>:
   0:	0c50006f          	j	8c4 <u_sw_irq_handler>
   4:	08d0006f          	j	890 <__no_irq_handler>
   8:	0890006f          	j	890 <__no_irq_handler>
   c:	0930006f          	j	89e <m_software_irq_handler>
  10:	0810006f          	j	890 <__no_irq_handler>
  14:	07d0006f          	j	890 <__no_irq_handler>
  18:	0790006f          	j	890 <__no_irq_handler>
  1c:	0850006f          	j	8a0 <m_timer_irq_handler>
  20:	0710006f          	j	890 <__no_irq_handler>
  24:	06d0006f          	j	890 <__no_irq_handler>
  28:	0690006f          	j	890 <__no_irq_handler>
  2c:	0770006f          	j	8a2 <m_external_irq_handler>
  30:	0610006f          	j	890 <__no_irq_handler>
  34:	05d0006f          	j	890 <__no_irq_handler>
  38:	0590006f          	j	890 <__no_irq_handler>
  3c:	0550006f          	j	890 <__no_irq_handler>
  40:	0650006f          	j	8a4 <m_fast0_irq_handler>
  44:	0630006f          	j	8a6 <m_fast1_irq_handler>
  48:	0610006f          	j	8a8 <m_fast2_irq_handler>
  4c:	05f0006f          	j	8aa <m_fast3_irq_handler>
  50:	05d0006f          	j	8ac <m_fast4_irq_handler>
  54:	05b0006f          	j	8ae <m_fast5_irq_handler>
  58:	0590006f          	j	8b0 <m_fast6_irq_handler>
  5c:	0570006f          	j	8b2 <m_fast7_irq_handler>
  60:	0550006f          	j	8b4 <m_fast8_irq_handler>
  64:	0530006f          	j	8b6 <m_fast9_irq_handler>
  68:	0510006f          	j	8b8 <m_fast10_irq_handler>
  6c:	04f0006f          	j	8ba <m_fast11_irq_handler>
  70:	04d0006f          	j	8bc <m_fast12_irq_handler>
  74:	04b0006f          	j	8be <m_fast13_irq_handler>
  78:	0490006f          	j	8c0 <m_fast14_irq_handler>
  7c:	0470006f          	j	8c2 <m_fast15_irq_handler>

Disassembly of section .init:

00000080 <_start>:
  80:	0000e197          	auipc	gp,0xe
  84:	df818193          	addi	gp,gp,-520 # de78 <__global_pointer$>
  88:	00400117          	auipc	sp,0x400
  8c:	f7810113          	addi	sp,sp,-136 # 400000 <__heap_end>
  90:	00000517          	auipc	a0,0x0
  94:	f7050513          	addi	a0,a0,-144 # 0 <__vector_start>
  98:	00156513          	ori	a0,a0,1
  9c:	30551073          	csrw	mtvec,a0
  a0:	0000e517          	auipc	a0,0xe
  a4:	fa450513          	addi	a0,a0,-92 # e044 <_edata>
  a8:	0000e617          	auipc	a2,0xe
  ac:	fd860613          	addi	a2,a2,-40 # e080 <__bss_end>
  b0:	8e09                	sub	a2,a2,a0
  b2:	4581                	li	a1,0
  b4:	41d000ef          	jal	ra,cd0 <memset>
  b8:	00001517          	auipc	a0,0x1
  bc:	b6e50513          	addi	a0,a0,-1170 # c26 <__libc_fini_array>
  c0:	33f000ef          	jal	ra,bfe <atexit>
  c4:	3ab000ef          	jal	ra,c6e <__libc_init_array>
  c8:	4501                	li	a0,0
  ca:	4581                	li	a1,0
  cc:	4601                	li	a2,0
  ce:	2021                	jal	d6 <main>
  d0:	33b0006f          	j	c0a <exit>

000000d4 <_fini>:
  d4:	8082                	ret

Disassembly of section .text:

000000d6 <main>:
      d6:	0000c537          	lui	a0,0xc
      da:	df010113          	addi	sp,sp,-528
      de:	2fc50513          	addi	a0,a0,764 # c2fc <__clzsi2+0x1ea>
      e2:	20112623          	sw	ra,524(sp)
      e6:	20812423          	sw	s0,520(sp)
      ea:	20912223          	sw	s1,516(sp)
      ee:	21212023          	sw	s2,512(sp)
      f2:	1f312e23          	sw	s3,508(sp)
      f6:	1f412c23          	sw	s4,504(sp)
      fa:	1f512a23          	sw	s5,500(sp)
      fe:	1f612823          	sw	s6,496(sp)
     102:	1f712623          	sw	s7,492(sp)
     106:	1f812423          	sw	s8,488(sp)
     10a:	1f912223          	sw	s9,484(sp)
     10e:	1fa12023          	sw	s10,480(sp)
     112:	1db12e23          	sw	s11,476(sp)
     116:	51f000ef          	jal	ra,e34 <puts>
     11a:	30002df3          	csrr	s11,mstatus
     11e:	30102d73          	csrr	s10,0x301
     122:	30402cf3          	csrr	s9,0x304
     126:	30502c73          	csrr	s8,mtvec
     12a:	6709                	lui	a4,0x2
     12c:	80070713          	addi	a4,a4,-2048 # 1800 <_vfprintf_r+0x8ec>
     130:	4401                	li	s0,0
     132:	00ed8963          	beq	s11,a4,144 <main+0x6e>
     136:	0000c537          	lui	a0,0xc
     13a:	15050513          	addi	a0,a0,336 # c150 <__clzsi2+0x3e>
     13e:	4f7000ef          	jal	ra,e34 <puts>
     142:	4405                	li	s0,1
     144:	408015b7          	lui	a1,0x40801
     148:	10458593          	addi	a1,a1,260 # 40801104 <__heap_end+0x40401104>
     14c:	00bd0963          	beq	s10,a1,15e <main+0x88>
     150:	0000c537          	lui	a0,0xc
     154:	17050513          	addi	a0,a0,368 # c170 <__clzsi2+0x5e>
     158:	441000ef          	jal	ra,d98 <printf>
     15c:	0405                	addi	s0,s0,1
     15e:	000c8963          	beqz	s9,170 <main+0x9a>
     162:	0000c537          	lui	a0,0xc
     166:	18c50513          	addi	a0,a0,396 # c18c <__clzsi2+0x7a>
     16a:	4cb000ef          	jal	ra,e34 <puts>
     16e:	0405                	addi	s0,s0,1
     170:	4705                	li	a4,1
     172:	00ec0963          	beq	s8,a4,184 <main+0xae>
     176:	0000c537          	lui	a0,0xc
     17a:	1a850513          	addi	a0,a0,424 # c1a8 <__clzsi2+0x96>
     17e:	4b7000ef          	jal	ra,e34 <puts>
     182:	0405                	addi	s0,s0,1
     184:	32302773          	csrr	a4,0x323
     188:	ceba                	sw	a4,92(sp)
     18a:	32402773          	csrr	a4,0x324
     18e:	d0ba                	sw	a4,96(sp)
     190:	32502773          	csrr	a4,0x325
     194:	d2ba                	sw	a4,100(sp)
     196:	32602773          	csrr	a4,0x326
     19a:	d4ba                	sw	a4,104(sp)
     19c:	32702773          	csrr	a4,0x327
     1a0:	d6ba                	sw	a4,108(sp)
     1a2:	32802773          	csrr	a4,0x328
     1a6:	d8ba                	sw	a4,112(sp)
     1a8:	32902773          	csrr	a4,0x329
     1ac:	daba                	sw	a4,116(sp)
     1ae:	32a02773          	csrr	a4,0x32a
     1b2:	dcba                	sw	a4,120(sp)
     1b4:	32b02773          	csrr	a4,0x32b
     1b8:	deba                	sw	a4,124(sp)
     1ba:	32c02773          	csrr	a4,0x32c
     1be:	c13a                	sw	a4,128(sp)
     1c0:	32d02773          	csrr	a4,0x32d
     1c4:	c33a                	sw	a4,132(sp)
     1c6:	32e02773          	csrr	a4,0x32e
     1ca:	c53a                	sw	a4,136(sp)
     1cc:	32f02773          	csrr	a4,0x32f
     1d0:	c73a                	sw	a4,140(sp)
     1d2:	33002773          	csrr	a4,0x330
     1d6:	c93a                	sw	a4,144(sp)
     1d8:	33102773          	csrr	a4,0x331
     1dc:	cb3a                	sw	a4,148(sp)
     1de:	33202773          	csrr	a4,0x332
     1e2:	cd3a                	sw	a4,152(sp)
     1e4:	33302773          	csrr	a4,0x333
     1e8:	cf3a                	sw	a4,156(sp)
     1ea:	33402773          	csrr	a4,0x334
     1ee:	d13a                	sw	a4,160(sp)
     1f0:	33502773          	csrr	a4,0x335
     1f4:	d33a                	sw	a4,164(sp)
     1f6:	33602773          	csrr	a4,0x336
     1fa:	d53a                	sw	a4,168(sp)
     1fc:	33702773          	csrr	a4,0x337
     200:	d73a                	sw	a4,172(sp)
     202:	33802773          	csrr	a4,0x338
     206:	d93a                	sw	a4,176(sp)
     208:	33902773          	csrr	a4,0x339
     20c:	db3a                	sw	a4,180(sp)
     20e:	33a02773          	csrr	a4,0x33a
     212:	dd3a                	sw	a4,184(sp)
     214:	33b02773          	csrr	a4,0x33b
     218:	df3a                	sw	a4,188(sp)
     21a:	33c02773          	csrr	a4,0x33c
     21e:	c1ba                	sw	a4,192(sp)
     220:	33d02773          	csrr	a4,0x33d
     224:	c3ba                	sw	a4,196(sp)
     226:	33e02773          	csrr	a4,0x33e
     22a:	c5ba                	sw	a4,200(sp)
     22c:	33f02773          	csrr	a4,0x33f
     230:	4681                	li	a3,0
     232:	c7ba                	sw	a4,204(sp)
     234:	07400613          	li	a2,116
     238:	4701                	li	a4,0
     23a:	089c                	addi	a5,sp,80
     23c:	00e785b3          	add	a1,a5,a4
     240:	45cc                	lw	a1,12(a1)
     242:	0711                	addi	a4,a4,4
     244:	96ae                	add	a3,a3,a1
     246:	fec71ae3          	bne	a4,a2,23a <main+0x164>
     24a:	ca81                	beqz	a3,25a <main+0x184>
     24c:	0000c537          	lui	a0,0xc
     250:	1c450513          	addi	a0,a0,452 # c1c4 <__clzsi2+0xb2>
     254:	3e1000ef          	jal	ra,e34 <puts>
     258:	0405                	addi	s0,s0,1
     25a:	7a0024f3          	csrr	s1,pcer
     25e:	7a1027f3          	csrr	a5,pcmr
     262:	c43e                	sw	a5,8(sp)
     264:	7a2027f3          	csrr	a5,0x7a2
     268:	c63e                	sw	a5,12(sp)
     26a:	7a3027f3          	csrr	a5,0x7a3
     26e:	c83e                	sw	a5,16(sp)
     270:	7a4027f3          	csrr	a5,0x7a4
     274:	ca3e                	sw	a5,20(sp)
     276:	c881                	beqz	s1,286 <main+0x1b0>
     278:	0000c537          	lui	a0,0xc
     27c:	1ec50513          	addi	a0,a0,492 # c1ec <__clzsi2+0xda>
     280:	3b5000ef          	jal	ra,e34 <puts>
     284:	0405                	addi	s0,s0,1
     286:	28001737          	lui	a4,0x28001
     28a:	47a2                	lw	a5,8(sp)
     28c:	04070713          	addi	a4,a4,64 # 28001040 <__heap_end+0x27c01040>
     290:	00e78963          	beq	a5,a4,2a2 <main+0x1cc>
     294:	0000c537          	lui	a0,0xc
     298:	20c50513          	addi	a0,a0,524 # c20c <__clzsi2+0xfa>
     29c:	399000ef          	jal	ra,e34 <puts>
     2a0:	0405                	addi	s0,s0,1
     2a2:	47b2                	lw	a5,12(sp)
     2a4:	cb81                	beqz	a5,2b4 <main+0x1de>
     2a6:	0000c537          	lui	a0,0xc
     2aa:	23050513          	addi	a0,a0,560 # c230 <__clzsi2+0x11e>
     2ae:	387000ef          	jal	ra,e34 <puts>
     2b2:	0405                	addi	s0,s0,1
     2b4:	47c2                	lw	a5,16(sp)
     2b6:	cb81                	beqz	a5,2c6 <main+0x1f0>
     2b8:	0000c537          	lui	a0,0xc
     2bc:	24c50513          	addi	a0,a0,588 # c24c <__clzsi2+0x13a>
     2c0:	375000ef          	jal	ra,e34 <puts>
     2c4:	0405                	addi	s0,s0,1
     2c6:	47d2                	lw	a5,20(sp)
     2c8:	4711                	li	a4,4
     2ca:	00e78963          	beq	a5,a4,2dc <main+0x206>
     2ce:	0000c537          	lui	a0,0xc
     2d2:	26850513          	addi	a0,a0,616 # c268 <__clzsi2+0x156>
     2d6:	35f000ef          	jal	ra,e34 <puts>
     2da:	0405                	addi	s0,s0,1
     2dc:	7a8027f3          	csrr	a5,0x7a8
     2e0:	cc3e                	sw	a5,24(sp)
     2e2:	7aa027f3          	csrr	a5,0x7aa
     2e6:	ce3e                	sw	a5,28(sp)
     2e8:	47e2                	lw	a5,24(sp)
     2ea:	cb81                	beqz	a5,2fa <main+0x224>
     2ec:	0000c537          	lui	a0,0xc
     2f0:	28450513          	addi	a0,a0,644 # c284 <__clzsi2+0x172>
     2f4:	341000ef          	jal	ra,e34 <puts>
     2f8:	0405                	addi	s0,s0,1
     2fa:	47f2                	lw	a5,28(sp)
     2fc:	cb81                	beqz	a5,30c <main+0x236>
     2fe:	0000c537          	lui	a0,0xc
     302:	2a450513          	addi	a0,a0,676 # c2a4 <__clzsi2+0x192>
     306:	32f000ef          	jal	ra,e34 <puts>
     30a:	0405                	addi	s0,s0,1
     30c:	b00027f3          	csrr	a5,0xb00
     310:	d03e                	sw	a5,32(sp)
     312:	b02027f3          	csrr	a5,0xb02
     316:	d23e                	sw	a5,36(sp)
     318:	5782                	lw	a5,32(sp)
     31a:	cb81                	beqz	a5,32a <main+0x254>
     31c:	0000c537          	lui	a0,0xc
     320:	2c450513          	addi	a0,a0,708 # c2c4 <__clzsi2+0x1b2>
     324:	311000ef          	jal	ra,e34 <puts>
     328:	0405                	addi	s0,s0,1
     32a:	5792                	lw	a5,36(sp)
     32c:	cb81                	beqz	a5,33c <main+0x266>
     32e:	0000c537          	lui	a0,0xc
     332:	2e050513          	addi	a0,a0,736 # c2e0 <__clzsi2+0x1ce>
     336:	2ff000ef          	jal	ra,e34 <puts>
     33a:	0405                	addi	s0,s0,1
     33c:	b0302773          	csrr	a4,0xb03
     340:	cfba                	sw	a4,220(sp)
     342:	b0402773          	csrr	a4,0xb04
     346:	d1ba                	sw	a4,224(sp)
     348:	b0502773          	csrr	a4,0xb05
     34c:	d3ba                	sw	a4,228(sp)
     34e:	b0602773          	csrr	a4,0xb06
     352:	d5ba                	sw	a4,232(sp)
     354:	b0702773          	csrr	a4,0xb07
     358:	d7ba                	sw	a4,236(sp)
     35a:	b0802773          	csrr	a4,0xb08
     35e:	d9ba                	sw	a4,240(sp)
     360:	b0902773          	csrr	a4,0xb09
     364:	dbba                	sw	a4,244(sp)
     366:	b0a02773          	csrr	a4,0xb0a
     36a:	ddba                	sw	a4,248(sp)
     36c:	b0b02773          	csrr	a4,0xb0b
     370:	dfba                	sw	a4,252(sp)
     372:	b0c02773          	csrr	a4,0xb0c
     376:	10e12023          	sw	a4,256(sp)
     37a:	b0d02773          	csrr	a4,0xb0d
     37e:	10e12223          	sw	a4,260(sp)
     382:	b0e02773          	csrr	a4,0xb0e
     386:	10e12423          	sw	a4,264(sp)
     38a:	b0f02773          	csrr	a4,0xb0f
     38e:	10e12623          	sw	a4,268(sp)
     392:	b1002773          	csrr	a4,0xb10
     396:	10e12823          	sw	a4,272(sp)
     39a:	b1102773          	csrr	a4,0xb11
     39e:	10e12a23          	sw	a4,276(sp)
     3a2:	b1202773          	csrr	a4,0xb12
     3a6:	10e12c23          	sw	a4,280(sp)
     3aa:	b1302773          	csrr	a4,0xb13
     3ae:	10e12e23          	sw	a4,284(sp)
     3b2:	b1402773          	csrr	a4,0xb14
     3b6:	12e12023          	sw	a4,288(sp)
     3ba:	b1502773          	csrr	a4,0xb15
     3be:	12e12223          	sw	a4,292(sp)
     3c2:	b1602773          	csrr	a4,0xb16
     3c6:	12e12423          	sw	a4,296(sp)
     3ca:	b1702773          	csrr	a4,0xb17
     3ce:	12e12623          	sw	a4,300(sp)
     3d2:	b1802773          	csrr	a4,0xb18
     3d6:	12e12823          	sw	a4,304(sp)
     3da:	b1902773          	csrr	a4,0xb19
     3de:	12e12a23          	sw	a4,308(sp)
     3e2:	b1a02773          	csrr	a4,0xb1a
     3e6:	12e12c23          	sw	a4,312(sp)
     3ea:	b1b02773          	csrr	a4,0xb1b
     3ee:	12e12e23          	sw	a4,316(sp)
     3f2:	b1c02773          	csrr	a4,0xb1c
     3f6:	14e12023          	sw	a4,320(sp)
     3fa:	b1d02773          	csrr	a4,0xb1d
     3fe:	14e12223          	sw	a4,324(sp)
     402:	b1e02773          	csrr	a4,0xb1e
     406:	14e12423          	sw	a4,328(sp)
     40a:	b1f02773          	csrr	a4,0xb1f
     40e:	4681                	li	a3,0
     410:	14e12623          	sw	a4,332(sp)
     414:	07400613          	li	a2,116
     418:	4701                	li	a4,0
     41a:	099c                	addi	a5,sp,208
     41c:	00e785b3          	add	a1,a5,a4
     420:	45cc                	lw	a1,12(a1)
     422:	0711                	addi	a4,a4,4
     424:	96ae                	add	a3,a3,a1
     426:	fec71ae3          	bne	a4,a2,41a <main+0x344>
     42a:	ca81                	beqz	a3,43a <main+0x364>
     42c:	0000c537          	lui	a0,0xc
     430:	30050513          	addi	a0,a0,768 # c300 <__clzsi2+0x1ee>
     434:	201000ef          	jal	ra,e34 <puts>
     438:	0405                	addi	s0,s0,1
     43a:	b80027f3          	csrr	a5,0xb80
     43e:	d43e                	sw	a5,40(sp)
     440:	cb81                	beqz	a5,450 <main+0x37a>
     442:	0000c537          	lui	a0,0xc
     446:	32850513          	addi	a0,a0,808 # c328 <__clzsi2+0x216>
     44a:	1eb000ef          	jal	ra,e34 <puts>
     44e:	0405                	addi	s0,s0,1
     450:	b82027f3          	csrr	a5,0xb82
     454:	d63e                	sw	a5,44(sp)
     456:	cb81                	beqz	a5,466 <main+0x390>
     458:	0000c537          	lui	a0,0xc
     45c:	34850513          	addi	a0,a0,840 # c348 <__clzsi2+0x236>
     460:	1d5000ef          	jal	ra,e34 <puts>
     464:	0405                	addi	s0,s0,1
     466:	b8302773          	csrr	a4,0xb83
     46a:	14e12e23          	sw	a4,348(sp)
     46e:	b8402773          	csrr	a4,0xb84
     472:	16e12023          	sw	a4,352(sp)
     476:	b8502773          	csrr	a4,0xb85
     47a:	16e12223          	sw	a4,356(sp)
     47e:	b8602773          	csrr	a4,0xb86
     482:	16e12423          	sw	a4,360(sp)
     486:	b8702773          	csrr	a4,0xb87
     48a:	16e12623          	sw	a4,364(sp)
     48e:	b8802773          	csrr	a4,0xb88
     492:	16e12823          	sw	a4,368(sp)
     496:	b8902773          	csrr	a4,0xb89
     49a:	16e12a23          	sw	a4,372(sp)
     49e:	b8a02773          	csrr	a4,0xb8a
     4a2:	16e12c23          	sw	a4,376(sp)
     4a6:	b8b02773          	csrr	a4,0xb8b
     4aa:	16e12e23          	sw	a4,380(sp)
     4ae:	b8c02773          	csrr	a4,0xb8c
     4b2:	18e12023          	sw	a4,384(sp)
     4b6:	b8d02773          	csrr	a4,0xb8d
     4ba:	18e12223          	sw	a4,388(sp)
     4be:	b8e02773          	csrr	a4,0xb8e
     4c2:	18e12423          	sw	a4,392(sp)
     4c6:	b8f02773          	csrr	a4,0xb8f
     4ca:	18e12623          	sw	a4,396(sp)
     4ce:	b9002773          	csrr	a4,0xb90
     4d2:	18e12823          	sw	a4,400(sp)
     4d6:	b9102773          	csrr	a4,0xb91
     4da:	18e12a23          	sw	a4,404(sp)
     4de:	b9202773          	csrr	a4,0xb92
     4e2:	18e12c23          	sw	a4,408(sp)
     4e6:	b9302773          	csrr	a4,0xb93
     4ea:	18e12e23          	sw	a4,412(sp)
     4ee:	b9402773          	csrr	a4,0xb94
     4f2:	1ae12023          	sw	a4,416(sp)
     4f6:	b9502773          	csrr	a4,0xb95
     4fa:	1ae12223          	sw	a4,420(sp)
     4fe:	b9602773          	csrr	a4,0xb96
     502:	1ae12423          	sw	a4,424(sp)
     506:	b9702773          	csrr	a4,0xb97
     50a:	1ae12623          	sw	a4,428(sp)
     50e:	b9802773          	csrr	a4,0xb98
     512:	1ae12823          	sw	a4,432(sp)
     516:	b9902773          	csrr	a4,0xb99
     51a:	1ae12a23          	sw	a4,436(sp)
     51e:	b9a02773          	csrr	a4,0xb9a
     522:	1ae12c23          	sw	a4,440(sp)
     526:	b9b02773          	csrr	a4,0xb9b
     52a:	1ae12e23          	sw	a4,444(sp)
     52e:	b9c02773          	csrr	a4,0xb9c
     532:	1ce12023          	sw	a4,448(sp)
     536:	b9d02773          	csrr	a4,0xb9d
     53a:	1ce12223          	sw	a4,452(sp)
     53e:	b9e02773          	csrr	a4,0xb9e
     542:	1ce12423          	sw	a4,456(sp)
     546:	b9f02773          	csrr	a4,0xb9f
     54a:	4681                	li	a3,0
     54c:	1ce12623          	sw	a4,460(sp)
     550:	07400613          	li	a2,116
     554:	4701                	li	a4,0
     556:	0a9c                	addi	a5,sp,336
     558:	00e785b3          	add	a1,a5,a4
     55c:	45cc                	lw	a1,12(a1)
     55e:	0711                	addi	a4,a4,4
     560:	96ae                	add	a3,a3,a1
     562:	fec71ae3          	bne	a4,a2,556 <main+0x480>
     566:	ca81                	beqz	a3,576 <main+0x4a0>
     568:	0000c537          	lui	a0,0xc
     56c:	36850513          	addi	a0,a0,872 # c368 <__clzsi2+0x256>
     570:	0c5000ef          	jal	ra,e34 <puts>
     574:	0405                	addi	s0,s0,1
     576:	f11027f3          	csrr	a5,0xf11
     57a:	d83e                	sw	a5,48(sp)
     57c:	f12027f3          	csrr	a5,0xf12
     580:	da3e                	sw	a5,52(sp)
     582:	f13027f3          	csrr	a5,0xf13
     586:	dc3e                	sw	a5,56(sp)
     588:	f14027f3          	csrr	a5,mhartid
     58c:	de3e                	sw	a5,60(sp)
     58e:	57c2                	lw	a5,48(sp)
     590:	60200713          	li	a4,1538
     594:	00e78963          	beq	a5,a4,5a6 <main+0x4d0>
     598:	0000c537          	lui	a0,0xc
     59c:	39450513          	addi	a0,a0,916 # c394 <__clzsi2+0x282>
     5a0:	095000ef          	jal	ra,e34 <puts>
     5a4:	0405                	addi	s0,s0,1
     5a6:	57d2                	lw	a5,52(sp)
     5a8:	4711                	li	a4,4
     5aa:	00e78963          	beq	a5,a4,5bc <main+0x4e6>
     5ae:	0000c537          	lui	a0,0xc
     5b2:	3b450513          	addi	a0,a0,948 # c3b4 <__clzsi2+0x2a2>
     5b6:	07f000ef          	jal	ra,e34 <puts>
     5ba:	0405                	addi	s0,s0,1
     5bc:	57e2                	lw	a5,56(sp)
     5be:	cb81                	beqz	a5,5ce <main+0x4f8>
     5c0:	0000c537          	lui	a0,0xc
     5c4:	3d450513          	addi	a0,a0,980 # c3d4 <__clzsi2+0x2c2>
     5c8:	06d000ef          	jal	ra,e34 <puts>
     5cc:	0405                	addi	s0,s0,1
     5ce:	57f2                	lw	a5,60(sp)
     5d0:	cb81                	beqz	a5,5e0 <main+0x50a>
     5d2:	0000c537          	lui	a0,0xc
     5d6:	3f450513          	addi	a0,a0,1012 # c3f4 <__clzsi2+0x2e2>
     5da:	05b000ef          	jal	ra,e34 <puts>
     5de:	0405                	addi	s0,s0,1
     5e0:	32002bf3          	csrr	s7,0x320
     5e4:	4735                	li	a4,13
     5e6:	00eb8963          	beq	s7,a4,5f8 <main+0x522>
     5ea:	0000c537          	lui	a0,0xc
     5ee:	42050513          	addi	a0,a0,1056 # c420 <__clzsi2+0x30e>
     5f2:	043000ef          	jal	ra,e34 <puts>
     5f6:	0405                	addi	s0,s0,1
     5f8:	34002b73          	csrr	s6,0x340
     5fc:	34102af3          	csrr	s5,mepc
     600:	34202a73          	csrr	s4,mcause
     604:	343029f3          	csrr	s3,0x343
     608:	34402973          	csrr	s2,0x344
     60c:	000b0963          	beqz	s6,61e <main+0x548>
     610:	0000c537          	lui	a0,0xc
     614:	44450513          	addi	a0,a0,1092 # c444 <__clzsi2+0x332>
     618:	01d000ef          	jal	ra,e34 <puts>
     61c:	0405                	addi	s0,s0,1
     61e:	000a8963          	beqz	s5,630 <main+0x55a>
     622:	0000c537          	lui	a0,0xc
     626:	46450513          	addi	a0,a0,1124 # c464 <__clzsi2+0x352>
     62a:	00b000ef          	jal	ra,e34 <puts>
     62e:	0405                	addi	s0,s0,1
     630:	000a0963          	beqz	s4,642 <main+0x56c>
     634:	0000c537          	lui	a0,0xc
     638:	48050513          	addi	a0,a0,1152 # c480 <__clzsi2+0x36e>
     63c:	7f8000ef          	jal	ra,e34 <puts>
     640:	0405                	addi	s0,s0,1
     642:	00098963          	beqz	s3,654 <main+0x57e>
     646:	0000c537          	lui	a0,0xc
     64a:	4a050513          	addi	a0,a0,1184 # c4a0 <__clzsi2+0x38e>
     64e:	7e6000ef          	jal	ra,e34 <puts>
     652:	0405                	addi	s0,s0,1
     654:	00090963          	beqz	s2,666 <main+0x590>
     658:	0000c537          	lui	a0,0xc
     65c:	4bc50513          	addi	a0,a0,1212 # c4bc <__clzsi2+0x3aa>
     660:	7d4000ef          	jal	ra,e34 <puts>
     664:	0405                	addi	s0,s0,1
     666:	03500713          	li	a4,53
     66a:	c4ba                	sw	a4,72(sp)
     66c:	7c071073          	csrw	0x7c0,a4
     670:	c4ba                	sw	a4,72(sp)
     672:	4705                	li	a4,1
     674:	c6ba                	sw	a4,76(sp)
     676:	7c171073          	csrw	priv_emstatus,a4
     67a:	c4ba                	sw	a4,72(sp)
     67c:	7c0026f3          	csrr	a3,0x7c0
     680:	7c102773          	csrr	a4,priv_emstatus
     684:	0000c537          	lui	a0,0xc
     688:	4d850513          	addi	a0,a0,1240 # c4d8 <__clzsi2+0x3c6>
     68c:	c236                	sw	a3,4(sp)
     68e:	c03a                	sw	a4,0(sp)
     690:	7a4000ef          	jal	ra,e34 <puts>
     694:	0000c537          	lui	a0,0xc
     698:	85ee                	mv	a1,s11
     69a:	4e850513          	addi	a0,a0,1256 # c4e8 <__clzsi2+0x3d6>
     69e:	6fa000ef          	jal	ra,d98 <printf>
     6a2:	0000c537          	lui	a0,0xc
     6a6:	85ea                	mv	a1,s10
     6a8:	50050513          	addi	a0,a0,1280 # c500 <__clzsi2+0x3ee>
     6ac:	6ec000ef          	jal	ra,d98 <printf>
     6b0:	0000c537          	lui	a0,0xc
     6b4:	85e6                	mv	a1,s9
     6b6:	51850513          	addi	a0,a0,1304 # c518 <__clzsi2+0x406>
     6ba:	6de000ef          	jal	ra,d98 <printf>
     6be:	0000c537          	lui	a0,0xc
     6c2:	85e2                	mv	a1,s8
     6c4:	53050513          	addi	a0,a0,1328 # c530 <__clzsi2+0x41e>
     6c8:	6d0000ef          	jal	ra,d98 <printf>
     6cc:	0000c537          	lui	a0,0xc
     6d0:	85de                	mv	a1,s7
     6d2:	54850513          	addi	a0,a0,1352 # c548 <__clzsi2+0x436>
     6d6:	6c2000ef          	jal	ra,d98 <printf>
     6da:	45f6                	lw	a1,92(sp)
     6dc:	0000c537          	lui	a0,0xc
     6e0:	56050513          	addi	a0,a0,1376 # c560 <__clzsi2+0x44e>
     6e4:	6b4000ef          	jal	ra,d98 <printf>
     6e8:	45be                	lw	a1,204(sp)
     6ea:	0000c537          	lui	a0,0xc
     6ee:	57850513          	addi	a0,a0,1400 # c578 <__clzsi2+0x466>
     6f2:	6a6000ef          	jal	ra,d98 <printf>
     6f6:	0000c537          	lui	a0,0xc
     6fa:	85da                	mv	a1,s6
     6fc:	59050513          	addi	a0,a0,1424 # c590 <__clzsi2+0x47e>
     700:	698000ef          	jal	ra,d98 <printf>
     704:	0000c537          	lui	a0,0xc
     708:	85d6                	mv	a1,s5
     70a:	5a850513          	addi	a0,a0,1448 # c5a8 <__clzsi2+0x496>
     70e:	68a000ef          	jal	ra,d98 <printf>
     712:	0000c537          	lui	a0,0xc
     716:	85d2                	mv	a1,s4
     718:	5c050513          	addi	a0,a0,1472 # c5c0 <__clzsi2+0x4ae>
     71c:	67c000ef          	jal	ra,d98 <printf>
     720:	0000c537          	lui	a0,0xc
     724:	85ce                	mv	a1,s3
     726:	5d850513          	addi	a0,a0,1496 # c5d8 <__clzsi2+0x4c6>
     72a:	66e000ef          	jal	ra,d98 <printf>
     72e:	0000c537          	lui	a0,0xc
     732:	85ca                	mv	a1,s2
     734:	5f050513          	addi	a0,a0,1520 # c5f0 <__clzsi2+0x4de>
     738:	660000ef          	jal	ra,d98 <printf>
     73c:	0000c537          	lui	a0,0xc
     740:	85a6                	mv	a1,s1
     742:	60850513          	addi	a0,a0,1544 # c608 <__clzsi2+0x4f6>
     746:	652000ef          	jal	ra,d98 <printf>
     74a:	45a2                	lw	a1,8(sp)
     74c:	0000c537          	lui	a0,0xc
     750:	62050513          	addi	a0,a0,1568 # c620 <__clzsi2+0x50e>
     754:	644000ef          	jal	ra,d98 <printf>
     758:	45b2                	lw	a1,12(sp)
     75a:	0000c537          	lui	a0,0xc
     75e:	63850513          	addi	a0,a0,1592 # c638 <__clzsi2+0x526>
     762:	636000ef          	jal	ra,d98 <printf>
     766:	45c2                	lw	a1,16(sp)
     768:	0000c537          	lui	a0,0xc
     76c:	65050513          	addi	a0,a0,1616 # c650 <__clzsi2+0x53e>
     770:	2525                	jal	d98 <printf>
     772:	45d2                	lw	a1,20(sp)
     774:	0000c537          	lui	a0,0xc
     778:	66850513          	addi	a0,a0,1640 # c668 <__clzsi2+0x556>
     77c:	2d31                	jal	d98 <printf>
     77e:	45e2                	lw	a1,24(sp)
     780:	0000c537          	lui	a0,0xc
     784:	68050513          	addi	a0,a0,1664 # c680 <__clzsi2+0x56e>
     788:	2d01                	jal	d98 <printf>
     78a:	45f2                	lw	a1,28(sp)
     78c:	0000c537          	lui	a0,0xc
     790:	69850513          	addi	a0,a0,1688 # c698 <__clzsi2+0x586>
     794:	2511                	jal	d98 <printf>
     796:	5582                	lw	a1,32(sp)
     798:	0000c537          	lui	a0,0xc
     79c:	6b050513          	addi	a0,a0,1712 # c6b0 <__clzsi2+0x59e>
     7a0:	2be5                	jal	d98 <printf>
     7a2:	5592                	lw	a1,36(sp)
     7a4:	0000c537          	lui	a0,0xc
     7a8:	6c850513          	addi	a0,a0,1736 # c6c8 <__clzsi2+0x5b6>
     7ac:	23f5                	jal	d98 <printf>
     7ae:	45fe                	lw	a1,220(sp)
     7b0:	0000c537          	lui	a0,0xc
     7b4:	6e050513          	addi	a0,a0,1760 # c6e0 <__clzsi2+0x5ce>
     7b8:	23c5                	jal	d98 <printf>
     7ba:	14c12583          	lw	a1,332(sp)
     7be:	0000c537          	lui	a0,0xc
     7c2:	6f850513          	addi	a0,a0,1784 # c6f8 <__clzsi2+0x5e6>
     7c6:	2bc9                	jal	d98 <printf>
     7c8:	55a2                	lw	a1,40(sp)
     7ca:	0000c537          	lui	a0,0xc
     7ce:	71050513          	addi	a0,a0,1808 # c710 <__clzsi2+0x5fe>
     7d2:	23d9                	jal	d98 <printf>
     7d4:	55b2                	lw	a1,44(sp)
     7d6:	0000c537          	lui	a0,0xc
     7da:	72850513          	addi	a0,a0,1832 # c728 <__clzsi2+0x616>
     7de:	2b6d                	jal	d98 <printf>
     7e0:	15c12583          	lw	a1,348(sp)
     7e4:	0000c537          	lui	a0,0xc
     7e8:	74050513          	addi	a0,a0,1856 # c740 <__clzsi2+0x62e>
     7ec:	2375                	jal	d98 <printf>
     7ee:	1cc12583          	lw	a1,460(sp)
     7f2:	0000c537          	lui	a0,0xc
     7f6:	75850513          	addi	a0,a0,1880 # c758 <__clzsi2+0x646>
     7fa:	2b79                	jal	d98 <printf>
     7fc:	55c2                	lw	a1,48(sp)
     7fe:	0000c537          	lui	a0,0xc
     802:	77050513          	addi	a0,a0,1904 # c770 <__clzsi2+0x65e>
     806:	2b49                	jal	d98 <printf>
     808:	55d2                	lw	a1,52(sp)
     80a:	0000c537          	lui	a0,0xc
     80e:	78850513          	addi	a0,a0,1928 # c788 <__clzsi2+0x676>
     812:	2359                	jal	d98 <printf>
     814:	55e2                	lw	a1,56(sp)
     816:	0000c537          	lui	a0,0xc
     81a:	7a050513          	addi	a0,a0,1952 # c7a0 <__clzsi2+0x68e>
     81e:	2bad                	jal	d98 <printf>
     820:	55f2                	lw	a1,60(sp)
     822:	0000c537          	lui	a0,0xc
     826:	7b850513          	addi	a0,a0,1976 # c7b8 <__clzsi2+0x6a6>
     82a:	23bd                	jal	d98 <printf>
     82c:	4692                	lw	a3,4(sp)
     82e:	0000c537          	lui	a0,0xc
     832:	85b6                	mv	a1,a3
     834:	7d050513          	addi	a0,a0,2000 # c7d0 <__clzsi2+0x6be>
     838:	2385                	jal	d98 <printf>
     83a:	4702                	lw	a4,0(sp)
     83c:	0000c537          	lui	a0,0xc
     840:	85ba                	mv	a1,a4
     842:	7f050513          	addi	a0,a0,2032 # c7f0 <__clzsi2+0x6de>
     846:	2b89                	jal	d98 <printf>
     848:	0000c537          	lui	a0,0xc
     84c:	2fc50513          	addi	a0,a0,764 # c2fc <__clzsi2+0x1ea>
     850:	23d5                	jal	e34 <puts>
     852:	00803533          	snez	a0,s0
     856:	20c12083          	lw	ra,524(sp)
     85a:	20812403          	lw	s0,520(sp)
     85e:	20412483          	lw	s1,516(sp)
     862:	20012903          	lw	s2,512(sp)
     866:	1fc12983          	lw	s3,508(sp)
     86a:	1f812a03          	lw	s4,504(sp)
     86e:	1f412a83          	lw	s5,500(sp)
     872:	1f012b03          	lw	s6,496(sp)
     876:	1ec12b83          	lw	s7,492(sp)
     87a:	1e812c03          	lw	s8,488(sp)
     87e:	1e412c83          	lw	s9,484(sp)
     882:	1e012d03          	lw	s10,480(sp)
     886:	1dc12d83          	lw	s11,476(sp)
     88a:	21010113          	addi	sp,sp,528
     88e:	8082                	ret

00000890 <__no_irq_handler>:
     890:	0000c517          	auipc	a0,0xc
     894:	04d50513          	addi	a0,a0,77 # c8dd <no_exception_handler_msg>
     898:	59c000ef          	jal	ra,e34 <puts>
     89c:	bfd5                	j	890 <__no_irq_handler>

0000089e <m_software_irq_handler>:
     89e:	bfcd                	j	890 <__no_irq_handler>

000008a0 <m_timer_irq_handler>:
     8a0:	bfc5                	j	890 <__no_irq_handler>

000008a2 <m_external_irq_handler>:
     8a2:	b7fd                	j	890 <__no_irq_handler>

000008a4 <m_fast0_irq_handler>:
     8a4:	b7f5                	j	890 <__no_irq_handler>

000008a6 <m_fast1_irq_handler>:
     8a6:	b7ed                	j	890 <__no_irq_handler>

000008a8 <m_fast2_irq_handler>:
     8a8:	b7e5                	j	890 <__no_irq_handler>

000008aa <m_fast3_irq_handler>:
     8aa:	b7dd                	j	890 <__no_irq_handler>

000008ac <m_fast4_irq_handler>:
     8ac:	b7d5                	j	890 <__no_irq_handler>

000008ae <m_fast5_irq_handler>:
     8ae:	b7cd                	j	890 <__no_irq_handler>

000008b0 <m_fast6_irq_handler>:
     8b0:	b7c5                	j	890 <__no_irq_handler>

000008b2 <m_fast7_irq_handler>:
     8b2:	bff9                	j	890 <__no_irq_handler>

000008b4 <m_fast8_irq_handler>:
     8b4:	bff1                	j	890 <__no_irq_handler>

000008b6 <m_fast9_irq_handler>:
     8b6:	bfe9                	j	890 <__no_irq_handler>

000008b8 <m_fast10_irq_handler>:
     8b8:	bfe1                	j	890 <__no_irq_handler>

000008ba <m_fast11_irq_handler>:
     8ba:	bfd9                	j	890 <__no_irq_handler>

000008bc <m_fast12_irq_handler>:
     8bc:	bfd1                	j	890 <__no_irq_handler>

000008be <m_fast13_irq_handler>:
     8be:	bfc9                	j	890 <__no_irq_handler>

000008c0 <m_fast14_irq_handler>:
     8c0:	bfc1                	j	890 <__no_irq_handler>

000008c2 <m_fast15_irq_handler>:
     8c2:	b7f9                	j	890 <__no_irq_handler>

000008c4 <u_sw_irq_handler>:
     8c4:	7139                	addi	sp,sp,-64
     8c6:	c006                	sw	ra,0(sp)
     8c8:	c22a                	sw	a0,4(sp)
     8ca:	c42e                	sw	a1,8(sp)
     8cc:	c632                	sw	a2,12(sp)
     8ce:	c836                	sw	a3,16(sp)
     8d0:	ca3a                	sw	a4,20(sp)
     8d2:	cc3e                	sw	a5,24(sp)
     8d4:	ce42                	sw	a6,28(sp)
     8d6:	d046                	sw	a7,32(sp)
     8d8:	d216                	sw	t0,36(sp)
     8da:	d41a                	sw	t1,40(sp)
     8dc:	d61e                	sw	t2,44(sp)
     8de:	d872                	sw	t3,48(sp)
     8e0:	da76                	sw	t4,52(sp)
     8e2:	dc7a                	sw	t5,56(sp)
     8e4:	de7e                	sw	t6,60(sp)
     8e6:	342022f3          	csrr	t0,mcause
     8ea:	4309                	li	t1,2
     8ec:	02628363          	beq	t0,t1,912 <handle_illegal_insn>
     8f0:	432d                	li	t1,11
     8f2:	00628663          	beq	t0,t1,8fe <handle_ecall>
     8f6:	430d                	li	t1,3
     8f8:	00628663          	beq	t0,t1,904 <handle_ebreak>
     8fc:	a015                	j	920 <handle_unknown>

000008fe <handle_ecall>:
     8fe:	206000ef          	jal	ra,b04 <handle_syscall>
     902:	a035                	j	92e <end_handler_incr_mepc>

00000904 <handle_ebreak>:
     904:	0000c517          	auipc	a0,0xc
     908:	f7850513          	addi	a0,a0,-136 # c87c <ebreak_msg>
     90c:	528000ef          	jal	ra,e34 <puts>
     910:	a839                	j	92e <end_handler_incr_mepc>

00000912 <handle_illegal_insn>:
     912:	0000c517          	auipc	a0,0xc
     916:	efe50513          	addi	a0,a0,-258 # c810 <illegal_insn_msg>
     91a:	51a000ef          	jal	ra,e34 <puts>
     91e:	a801                	j	92e <end_handler_incr_mepc>

00000920 <handle_unknown>:
     920:	0000c517          	auipc	a0,0xc
     924:	f8c50513          	addi	a0,a0,-116 # c8ac <unknown_msg>
     928:	50c000ef          	jal	ra,e34 <puts>
     92c:	a831                	j	948 <end_handler_ret>

0000092e <end_handler_incr_mepc>:
     92e:	341022f3          	csrr	t0,mepc
     932:	00028303          	lb	t1,0(t0)
     936:	450d                	li	a0,3
     938:	00a37333          	and	t1,t1,a0
     93c:	00a31363          	bne	t1,a0,942 <end_handler_incr_mepc2>
     940:	0289                	addi	t0,t0,2

00000942 <end_handler_incr_mepc2>:
     942:	0289                	addi	t0,t0,2
     944:	34129073          	csrw	mepc,t0

00000948 <end_handler_ret>:
     948:	4082                	lw	ra,0(sp)
     94a:	4512                	lw	a0,4(sp)
     94c:	45a2                	lw	a1,8(sp)
     94e:	4632                	lw	a2,12(sp)
     950:	46c2                	lw	a3,16(sp)
     952:	4752                	lw	a4,20(sp)
     954:	47e2                	lw	a5,24(sp)
     956:	4872                	lw	a6,28(sp)
     958:	5882                	lw	a7,32(sp)
     95a:	5292                	lw	t0,36(sp)
     95c:	5322                	lw	t1,40(sp)
     95e:	53b2                	lw	t2,44(sp)
     960:	5e42                	lw	t3,48(sp)
     962:	5ed2                	lw	t4,52(sp)
     964:	5f62                	lw	t5,56(sp)
     966:	5ff2                	lw	t6,60(sp)
     968:	6121                	addi	sp,sp,64
     96a:	30200073          	mret

0000096e <__syscall_error>:
     96e:	40a00533          	neg	a0,a0
     972:	20a1a223          	sw	a0,516(gp) # e07c <errno>
     976:	557d                	li	a0,-1
     978:	8082                	ret

0000097a <unimplemented_syscall>:
     97a:	0000d7b7          	lui	a5,0xd
     97e:	90c78793          	addi	a5,a5,-1780 # c90c <no_exception_handler_msg+0x2f>
     982:	100006b7          	lui	a3,0x10000
     986:	0007c703          	lbu	a4,0(a5)
     98a:	e311                	bnez	a4,98e <unimplemented_syscall+0x14>
     98c:	8082                	ret
     98e:	0785                	addi	a5,a5,1
     990:	c298                	sw	a4,0(a3)
     992:	bfd5                	j	986 <unimplemented_syscall+0xc>

00000994 <nanosleep>:
     994:	05800713          	li	a4,88
     998:	20e1a223          	sw	a4,516(gp) # e07c <errno>
     99c:	557d                	li	a0,-1
     99e:	8082                	ret

000009a0 <_access>:
     9a0:	05800713          	li	a4,88
     9a4:	20e1a223          	sw	a4,516(gp) # e07c <errno>
     9a8:	557d                	li	a0,-1
     9aa:	8082                	ret

000009ac <_chdir>:
     9ac:	05800713          	li	a4,88
     9b0:	20e1a223          	sw	a4,516(gp) # e07c <errno>
     9b4:	557d                	li	a0,-1
     9b6:	8082                	ret

000009b8 <_chmod>:
     9b8:	05800713          	li	a4,88
     9bc:	20e1a223          	sw	a4,516(gp) # e07c <errno>
     9c0:	557d                	li	a0,-1
     9c2:	8082                	ret

000009c4 <_chown>:
     9c4:	05800713          	li	a4,88
     9c8:	20e1a223          	sw	a4,516(gp) # e07c <errno>
     9cc:	557d                	li	a0,-1
     9ce:	8082                	ret

000009d0 <close>:
     9d0:	557d                	li	a0,-1
     9d2:	8082                	ret

000009d4 <_execve>:
     9d4:	4731                	li	a4,12
     9d6:	20e1a223          	sw	a4,516(gp) # e07c <errno>
     9da:	557d                	li	a0,-1
     9dc:	8082                	ret

000009de <_exit>:
     9de:	200007b7          	lui	a5,0x20000
     9e2:	c3c8                	sw	a0,4(a5)
     9e4:	10500073          	wfi
     9e8:	a001                	j	9e8 <_exit+0xa>

000009ea <_faccessat>:
     9ea:	05800713          	li	a4,88
     9ee:	20e1a223          	sw	a4,516(gp) # e07c <errno>
     9f2:	557d                	li	a0,-1
     9f4:	8082                	ret

000009f6 <_fork>:
     9f6:	472d                	li	a4,11
     9f8:	20e1a223          	sw	a4,516(gp) # e07c <errno>
     9fc:	557d                	li	a0,-1
     9fe:	8082                	ret

00000a00 <fstat>:
     a00:	6789                	lui	a5,0x2
     a02:	c1dc                	sw	a5,4(a1)
     a04:	4501                	li	a0,0
     a06:	8082                	ret

00000a08 <_fstatat>:
     a08:	05800713          	li	a4,88
     a0c:	20e1a223          	sw	a4,516(gp) # e07c <errno>
     a10:	557d                	li	a0,-1
     a12:	8082                	ret

00000a14 <_ftime>:
     a14:	05800713          	li	a4,88
     a18:	20e1a223          	sw	a4,516(gp) # e07c <errno>
     a1c:	557d                	li	a0,-1
     a1e:	8082                	ret

00000a20 <_getcwd>:
     a20:	fa800713          	li	a4,-88
     a24:	20e1a223          	sw	a4,516(gp) # e07c <errno>
     a28:	4501                	li	a0,0
     a2a:	8082                	ret

00000a2c <_getpid>:
     a2c:	4505                	li	a0,1
     a2e:	8082                	ret

00000a30 <_gettimeofday>:
     a30:	fa800713          	li	a4,-88
     a34:	20e1a223          	sw	a4,516(gp) # e07c <errno>
     a38:	557d                	li	a0,-1
     a3a:	8082                	ret

00000a3c <isatty>:
     a3c:	157d                	addi	a0,a0,-1
     a3e:	00153513          	seqz	a0,a0
     a42:	8082                	ret

00000a44 <_kill>:
     a44:	4759                	li	a4,22
     a46:	20e1a223          	sw	a4,516(gp) # e07c <errno>
     a4a:	557d                	li	a0,-1
     a4c:	8082                	ret

00000a4e <_link>:
     a4e:	477d                	li	a4,31
     a50:	20e1a223          	sw	a4,516(gp) # e07c <errno>
     a54:	557d                	li	a0,-1
     a56:	8082                	ret

00000a58 <lseek>:
     a58:	4501                	li	a0,0
     a5a:	8082                	ret

00000a5c <_lstat>:
     a5c:	05800713          	li	a4,88
     a60:	20e1a223          	sw	a4,516(gp) # e07c <errno>
     a64:	557d                	li	a0,-1
     a66:	8082                	ret

00000a68 <_open>:
     a68:	557d                	li	a0,-1
     a6a:	8082                	ret

00000a6c <_openat>:
     a6c:	05800713          	li	a4,88
     a70:	20e1a223          	sw	a4,516(gp) # e07c <errno>
     a74:	557d                	li	a0,-1
     a76:	8082                	ret

00000a78 <read>:
     a78:	4501                	li	a0,0
     a7a:	8082                	ret

00000a7c <_stat>:
     a7c:	6789                	lui	a5,0x2
     a7e:	c1dc                	sw	a5,4(a1)
     a80:	4501                	li	a0,0
     a82:	8082                	ret

00000a84 <_sysconf>:
     a84:	557d                	li	a0,-1
     a86:	8082                	ret

00000a88 <_times>:
     a88:	557d                	li	a0,-1
     a8a:	8082                	ret

00000a8c <_unlink>:
     a8c:	4709                	li	a4,2
     a8e:	20e1a223          	sw	a4,516(gp) # e07c <errno>
     a92:	557d                	li	a0,-1
     a94:	8082                	ret

00000a96 <_utime>:
     a96:	05800713          	li	a4,88
     a9a:	20e1a223          	sw	a4,516(gp) # e07c <errno>
     a9e:	557d                	li	a0,-1
     aa0:	8082                	ret

00000aa2 <_wait>:
     aa2:	4729                	li	a4,10
     aa4:	20e1a223          	sw	a4,516(gp) # e07c <errno>
     aa8:	557d                	li	a0,-1
     aaa:	8082                	ret

00000aac <write>:
     aac:	4685                	li	a3,1
     aae:	00c587b3          	add	a5,a1,a2
     ab2:	10000737          	lui	a4,0x10000
     ab6:	00d50c63          	beq	a0,a3,ace <write+0x22>
     aba:	05800713          	li	a4,88
     abe:	20e1a223          	sw	a4,516(gp) # e07c <errno>
     ac2:	557d                	li	a0,-1
     ac4:	8082                	ret
     ac6:	0585                	addi	a1,a1,1
     ac8:	fff5c683          	lbu	a3,-1(a1)
     acc:	c314                	sw	a3,0(a4)
     ace:	fef59ce3          	bne	a1,a5,ac6 <write+0x1a>
     ad2:	8532                	mv	a0,a2
     ad4:	8082                	ret

00000ad6 <_brk>:
     ad6:	1aa1ac23          	sw	a0,440(gp) # e030 <brk>
     ada:	4501                	li	a0,0
     adc:	8082                	ret

00000ade <sbrk>:
     ade:	1b81a783          	lw	a5,440(gp) # e030 <brk>
     ae2:	953e                	add	a0,a0,a5
     ae4:	1aa1ac23          	sw	a0,440(gp) # e030 <brk>
     ae8:	00257863          	bleu	sp,a0,af8 <sbrk+0x1a>
     aec:	00400737          	lui	a4,0x400
     af0:	00070713          	mv	a4,a4
     af4:	00e56663          	bltu	a0,a4,b00 <sbrk+0x22>
     af8:	4731                	li	a4,12
     afa:	20e1a223          	sw	a4,516(gp) # e07c <errno>
     afe:	57fd                	li	a5,-1
     b00:	853e                	mv	a0,a5
     b02:	8082                	ret

00000b04 <handle_syscall>:
     b04:	05d00693          	li	a3,93
     b08:	87ae                	mv	a5,a1
     b0a:	0cd88a63          	beq	a7,a3,bde <handle_syscall+0xda>
     b0e:	0716c163          	blt	a3,a7,b70 <handle_syscall+0x6c>
     b12:	03900713          	li	a4,57
     b16:	04e88163          	beq	a7,a4,b58 <handle_syscall+0x54>
     b1a:	03174563          	blt	a4,a7,b44 <handle_syscall+0x40>
     b1e:	03100793          	li	a5,49
     b22:	0117ca63          	blt	a5,a7,b36 <handle_syscall+0x32>
     b26:	03000793          	li	a5,48
     b2a:	00f8da63          	ble	a5,a7,b3e <handle_syscall+0x3a>
     b2e:	47c5                	li	a5,17
     b30:	0cf88463          	beq	a7,a5,bf8 <handle_syscall+0xf4>
     b34:	b599                	j	97a <unimplemented_syscall>
     b36:	03800793          	li	a5,56
     b3a:	fef89de3          	bne	a7,a5,b34 <handle_syscall+0x30>
     b3e:	05800713          	li	a4,88
     b42:	a075                	j	bee <handle_syscall+0xea>
     b44:	04000713          	li	a4,64
     b48:	0ae88163          	beq	a7,a4,bea <handle_syscall+0xe6>
     b4c:	01174763          	blt	a4,a7,b5a <handle_syscall+0x56>
     b50:	03e00793          	li	a5,62
     b54:	fef8c0e3          	blt	a7,a5,b34 <handle_syscall+0x30>
     b58:	8082                	ret
     b5a:	04f00713          	li	a4,79
     b5e:	fee880e3          	beq	a7,a4,b3e <handle_syscall+0x3a>
     b62:	05000713          	li	a4,80
     b66:	fce897e3          	bne	a7,a4,b34 <handle_syscall+0x30>
     b6a:	6709                	lui	a4,0x2
     b6c:	c3d8                	sw	a4,4(a5)
     b6e:	8082                	ret
     b70:	40000693          	li	a3,1024
     b74:	fed882e3          	beq	a7,a3,b58 <handle_syscall+0x54>
     b78:	0316cc63          	blt	a3,a7,bb0 <handle_syscall+0xac>
     b7c:	0a900793          	li	a5,169
     b80:	06f88c63          	beq	a7,a5,bf8 <handle_syscall+0xf4>
     b84:	0117cb63          	blt	a5,a7,b9a <handle_syscall+0x96>
     b88:	08100793          	li	a5,129
     b8c:	06f88063          	beq	a7,a5,bec <handle_syscall+0xe8>
     b90:	09900793          	li	a5,153
     b94:	fcf882e3          	beq	a7,a5,b58 <handle_syscall+0x54>
     b98:	bf71                	j	b34 <handle_syscall+0x30>
     b9a:	0ac00793          	li	a5,172
     b9e:	faf88de3          	beq	a7,a5,b58 <handle_syscall+0x54>
     ba2:	0d600793          	li	a5,214
     ba6:	f8f897e3          	bne	a7,a5,b34 <handle_syscall+0x30>
     baa:	1aa1ac23          	sw	a0,440(gp) # e030 <brk>
     bae:	8082                	ret
     bb0:	40900713          	li	a4,1033
     bb4:	f8e885e3          	beq	a7,a4,b3e <handle_syscall+0x3a>
     bb8:	01174c63          	blt	a4,a7,bd0 <handle_syscall+0xcc>
     bbc:	40100793          	li	a5,1025
     bc0:	02f88a63          	beq	a7,a5,bf4 <handle_syscall+0xf0>
     bc4:	40200793          	li	a5,1026
     bc8:	f6f896e3          	bne	a7,a5,b34 <handle_syscall+0x30>
     bcc:	4709                	li	a4,2
     bce:	a005                	j	bee <handle_syscall+0xea>
     bd0:	40e00713          	li	a4,1038
     bd4:	f8e88be3          	beq	a7,a4,b6a <handle_syscall+0x66>
     bd8:	40f00793          	li	a5,1039
     bdc:	bfb9                	j	b3a <handle_syscall+0x36>
     bde:	200007b7          	lui	a5,0x20000
     be2:	c3c8                	sw	a0,4(a5)
     be4:	10500073          	wfi
     be8:	a001                	j	be8 <handle_syscall+0xe4>
     bea:	b5c9                	j	aac <write>
     bec:	4759                	li	a4,22
     bee:	20e1a223          	sw	a4,516(gp) # e07c <errno>
     bf2:	8082                	ret
     bf4:	477d                	li	a4,31
     bf6:	bfe5                	j	bee <handle_syscall+0xea>
     bf8:	fa800713          	li	a4,-88
     bfc:	bfcd                	j	bee <handle_syscall+0xea>

00000bfe <atexit>:
     bfe:	85aa                	mv	a1,a0
     c00:	4681                	li	a3,0
     c02:	4601                	li	a2,0
     c04:	4501                	li	a0,0
     c06:	2d50106f          	j	26da <__register_exitproc>

00000c0a <exit>:
     c0a:	1141                	addi	sp,sp,-16
     c0c:	4581                	li	a1,0
     c0e:	c422                	sw	s0,8(sp)
     c10:	c606                	sw	ra,12(sp)
     c12:	842a                	mv	s0,a0
     c14:	327010ef          	jal	ra,273a <__call_exitprocs>
     c18:	1bc1a503          	lw	a0,444(gp) # e034 <_global_impure_ptr>
     c1c:	5d5c                	lw	a5,60(a0)
     c1e:	c391                	beqz	a5,c22 <exit+0x18>
     c20:	9782                	jalr	a5
     c22:	8522                	mv	a0,s0
     c24:	3b6d                	jal	9de <_exit>

00000c26 <__libc_fini_array>:
     c26:	1101                	addi	sp,sp,-32
     c28:	67b5                	lui	a5,0xd
     c2a:	6735                	lui	a4,0xd
     c2c:	cc22                	sw	s0,24(sp)
     c2e:	67870713          	addi	a4,a4,1656 # d678 <__DATA_BEGIN__>
     c32:	67878413          	addi	s0,a5,1656 # d678 <__DATA_BEGIN__>
     c36:	8c19                	sub	s0,s0,a4
     c38:	ca26                	sw	s1,20(sp)
     c3a:	c84a                	sw	s2,16(sp)
     c3c:	c64e                	sw	s3,12(sp)
     c3e:	ce06                	sw	ra,28(sp)
     c40:	8409                	srai	s0,s0,0x2
     c42:	4481                	li	s1,0
     c44:	67878913          	addi	s2,a5,1656
     c48:	59f1                	li	s3,-4
     c4a:	00941a63          	bne	s0,s1,c5e <__libc_fini_array+0x38>
     c4e:	4462                	lw	s0,24(sp)
     c50:	40f2                	lw	ra,28(sp)
     c52:	44d2                	lw	s1,20(sp)
     c54:	4942                	lw	s2,16(sp)
     c56:	49b2                	lw	s3,12(sp)
     c58:	6105                	addi	sp,sp,32
     c5a:	c7aff06f          	j	d4 <_fini>
     c5e:	033487b3          	mul	a5,s1,s3
     c62:	97ca                	add	a5,a5,s2
     c64:	ffc7a783          	lw	a5,-4(a5)
     c68:	0485                	addi	s1,s1,1
     c6a:	9782                	jalr	a5
     c6c:	bff9                	j	c4a <__libc_fini_array+0x24>

00000c6e <__libc_init_array>:
     c6e:	1141                	addi	sp,sp,-16
     c70:	c422                	sw	s0,8(sp)
     c72:	c226                	sw	s1,4(sp)
     c74:	6435                	lui	s0,0xd
     c76:	64b5                	lui	s1,0xd
     c78:	67848793          	addi	a5,s1,1656 # d678 <__DATA_BEGIN__>
     c7c:	67840413          	addi	s0,s0,1656 # d678 <__DATA_BEGIN__>
     c80:	8c1d                	sub	s0,s0,a5
     c82:	c04a                	sw	s2,0(sp)
     c84:	c606                	sw	ra,12(sp)
     c86:	8409                	srai	s0,s0,0x2
     c88:	67848493          	addi	s1,s1,1656
     c8c:	4901                	li	s2,0
     c8e:	02891763          	bne	s2,s0,cbc <__libc_init_array+0x4e>
     c92:	64b5                	lui	s1,0xd
     c94:	c40ff0ef          	jal	ra,d4 <_fini>
     c98:	6435                	lui	s0,0xd
     c9a:	67848793          	addi	a5,s1,1656 # d678 <__DATA_BEGIN__>
     c9e:	67840413          	addi	s0,s0,1656 # d678 <__DATA_BEGIN__>
     ca2:	8c1d                	sub	s0,s0,a5
     ca4:	8409                	srai	s0,s0,0x2
     ca6:	67848493          	addi	s1,s1,1656
     caa:	4901                	li	s2,0
     cac:	00891d63          	bne	s2,s0,cc6 <__libc_init_array+0x58>
     cb0:	40b2                	lw	ra,12(sp)
     cb2:	4422                	lw	s0,8(sp)
     cb4:	4492                	lw	s1,4(sp)
     cb6:	4902                	lw	s2,0(sp)
     cb8:	0141                	addi	sp,sp,16
     cba:	8082                	ret
     cbc:	409c                	lw	a5,0(s1)
     cbe:	0905                	addi	s2,s2,1
     cc0:	9782                	jalr	a5
     cc2:	0491                	addi	s1,s1,4
     cc4:	b7e9                	j	c8e <__libc_init_array+0x20>
     cc6:	409c                	lw	a5,0(s1)
     cc8:	0905                	addi	s2,s2,1
     cca:	9782                	jalr	a5
     ccc:	0491                	addi	s1,s1,4
     cce:	bff9                	j	cac <__libc_init_array+0x3e>

00000cd0 <memset>:
     cd0:	483d                	li	a6,15
     cd2:	872a                	mv	a4,a0
     cd4:	02c87363          	bleu	a2,a6,cfa <memset+0x2a>
     cd8:	00f77793          	andi	a5,a4,15
     cdc:	efbd                	bnez	a5,d5a <memset+0x8a>
     cde:	e5ad                	bnez	a1,d48 <memset+0x78>
     ce0:	ff067693          	andi	a3,a2,-16
     ce4:	8a3d                	andi	a2,a2,15
     ce6:	96ba                	add	a3,a3,a4
     ce8:	c30c                	sw	a1,0(a4)
     cea:	c34c                	sw	a1,4(a4)
     cec:	c70c                	sw	a1,8(a4)
     cee:	c74c                	sw	a1,12(a4)
     cf0:	0741                	addi	a4,a4,16
     cf2:	fed76be3          	bltu	a4,a3,ce8 <memset+0x18>
     cf6:	e211                	bnez	a2,cfa <memset+0x2a>
     cf8:	8082                	ret
     cfa:	40c806b3          	sub	a3,a6,a2
     cfe:	068a                	slli	a3,a3,0x2
     d00:	00000297          	auipc	t0,0x0
     d04:	9696                	add	a3,a3,t0
     d06:	00a68067          	jr	10(a3) # 1000000a <__heap_end+0xfc0000a>
     d0a:	00b70723          	sb	a1,14(a4)
     d0e:	00b706a3          	sb	a1,13(a4)
     d12:	00b70623          	sb	a1,12(a4)
     d16:	00b705a3          	sb	a1,11(a4)
     d1a:	00b70523          	sb	a1,10(a4)
     d1e:	00b704a3          	sb	a1,9(a4)
     d22:	00b70423          	sb	a1,8(a4)
     d26:	00b703a3          	sb	a1,7(a4)
     d2a:	00b70323          	sb	a1,6(a4)
     d2e:	00b702a3          	sb	a1,5(a4)
     d32:	00b70223          	sb	a1,4(a4)
     d36:	00b701a3          	sb	a1,3(a4)
     d3a:	00b70123          	sb	a1,2(a4)
     d3e:	00b700a3          	sb	a1,1(a4)
     d42:	00b70023          	sb	a1,0(a4)
     d46:	8082                	ret
     d48:	0ff5f593          	andi	a1,a1,255
     d4c:	00859693          	slli	a3,a1,0x8
     d50:	8dd5                	or	a1,a1,a3
     d52:	01059693          	slli	a3,a1,0x10
     d56:	8dd5                	or	a1,a1,a3
     d58:	b761                	j	ce0 <memset+0x10>
     d5a:	00279693          	slli	a3,a5,0x2
     d5e:	00000297          	auipc	t0,0x0
     d62:	9696                	add	a3,a3,t0
     d64:	8286                	mv	t0,ra
     d66:	fa8680e7          	jalr	-88(a3)
     d6a:	8096                	mv	ra,t0
     d6c:	17c1                	addi	a5,a5,-16
     d6e:	8f1d                	sub	a4,a4,a5
     d70:	963e                	add	a2,a2,a5
     d72:	f8c874e3          	bleu	a2,a6,cfa <memset+0x2a>
     d76:	b7a5                	j	cde <memset+0xe>

00000d78 <_printf_r>:
     d78:	7139                	addi	sp,sp,-64
     d7a:	d432                	sw	a2,40(sp)
     d7c:	d636                	sw	a3,44(sp)
     d7e:	d83a                	sw	a4,48(sp)
     d80:	da3e                	sw	a5,52(sp)
     d82:	dc42                	sw	a6,56(sp)
     d84:	de46                	sw	a7,60(sp)
     d86:	862e                	mv	a2,a1
     d88:	450c                	lw	a1,8(a0)
     d8a:	1034                	addi	a3,sp,40
     d8c:	ce06                	sw	ra,28(sp)
     d8e:	c636                	sw	a3,12(sp)
     d90:	2251                	jal	f14 <_vfprintf_r>
     d92:	40f2                	lw	ra,28(sp)
     d94:	6121                	addi	sp,sp,64
     d96:	8082                	ret

00000d98 <printf>:
     d98:	7139                	addi	sp,sp,-64
     d9a:	da3e                	sw	a5,52(sp)
     d9c:	1c01a783          	lw	a5,448(gp) # e038 <_impure_ptr>
     da0:	d432                	sw	a2,40(sp)
     da2:	d636                	sw	a3,44(sp)
     da4:	d22e                	sw	a1,36(sp)
     da6:	d83a                	sw	a4,48(sp)
     da8:	dc42                	sw	a6,56(sp)
     daa:	de46                	sw	a7,60(sp)
     dac:	478c                	lw	a1,8(a5)
     dae:	1054                	addi	a3,sp,36
     db0:	862a                	mv	a2,a0
     db2:	853e                	mv	a0,a5
     db4:	ce06                	sw	ra,28(sp)
     db6:	c636                	sw	a3,12(sp)
     db8:	2ab1                	jal	f14 <_vfprintf_r>
     dba:	40f2                	lw	ra,28(sp)
     dbc:	6121                	addi	sp,sp,64
     dbe:	8082                	ret

00000dc0 <_puts_r>:
     dc0:	7139                	addi	sp,sp,-64
     dc2:	dc22                	sw	s0,56(sp)
     dc4:	842a                	mv	s0,a0
     dc6:	852e                	mv	a0,a1
     dc8:	c62e                	sw	a1,12(sp)
     dca:	de06                	sw	ra,60(sp)
     dcc:	2a1d                	jal	f02 <strlen>
     dce:	0000c7b7          	lui	a5,0xc
     dd2:	2fc78793          	addi	a5,a5,764 # c2fc <__clzsi2+0x1ea>
     dd6:	d43e                	sw	a5,40(sp)
     dd8:	4785                	li	a5,1
     dda:	d63e                	sw	a5,44(sp)
     ddc:	101c                	addi	a5,sp,32
     dde:	45b2                	lw	a1,12(sp)
     de0:	ca3e                	sw	a5,20(sp)
     de2:	4789                	li	a5,2
     de4:	d22a                	sw	a0,36(sp)
     de6:	cc3e                	sw	a5,24(sp)
     de8:	0505                	addi	a0,a0,1
     dea:	5c1c                	lw	a5,56(s0)
     dec:	d02e                	sw	a1,32(sp)
     dee:	ce2a                	sw	a0,28(sp)
     df0:	440c                	lw	a1,8(s0)
     df2:	e791                	bnez	a5,dfe <_puts_r+0x3e>
     df4:	8522                	mv	a0,s0
     df6:	c62e                	sw	a1,12(sp)
     df8:	45b010ef          	jal	ra,2a52 <__sinit>
     dfc:	45b2                	lw	a1,12(sp)
     dfe:	00c59783          	lh	a5,12(a1)
     e02:	01279713          	slli	a4,a5,0x12
     e06:	00074b63          	bltz	a4,e1c <_puts_r+0x5c>
     e0a:	6689                	lui	a3,0x2
     e0c:	8fd5                	or	a5,a5,a3
     e0e:	51f8                	lw	a4,100(a1)
     e10:	00f59623          	sh	a5,12(a1)
     e14:	77f9                	lui	a5,0xffffe
     e16:	17fd                	addi	a5,a5,-1
     e18:	8ff9                	and	a5,a5,a4
     e1a:	d1fc                	sw	a5,100(a1)
     e1c:	0850                	addi	a2,sp,20
     e1e:	8522                	mv	a0,s0
     e20:	795010ef          	jal	ra,2db4 <__sfvwrite_r>
     e24:	57fd                	li	a5,-1
     e26:	e111                	bnez	a0,e2a <_puts_r+0x6a>
     e28:	47a9                	li	a5,10
     e2a:	50f2                	lw	ra,60(sp)
     e2c:	5462                	lw	s0,56(sp)
     e2e:	853e                	mv	a0,a5
     e30:	6121                	addi	sp,sp,64
     e32:	8082                	ret

00000e34 <puts>:
     e34:	85aa                	mv	a1,a0
     e36:	1c01a503          	lw	a0,448(gp) # e038 <_impure_ptr>
     e3a:	b759                	j	dc0 <_puts_r>

00000e3c <cleanup_glue>:
     e3c:	1141                	addi	sp,sp,-16
     e3e:	c422                	sw	s0,8(sp)
     e40:	842e                	mv	s0,a1
     e42:	418c                	lw	a1,0(a1)
     e44:	c226                	sw	s1,4(sp)
     e46:	c606                	sw	ra,12(sp)
     e48:	84aa                	mv	s1,a0
     e4a:	c191                	beqz	a1,e4e <cleanup_glue+0x12>
     e4c:	3fc5                	jal	e3c <cleanup_glue>
     e4e:	85a2                	mv	a1,s0
     e50:	4422                	lw	s0,8(sp)
     e52:	40b2                	lw	ra,12(sp)
     e54:	8526                	mv	a0,s1
     e56:	4492                	lw	s1,4(sp)
     e58:	0141                	addi	sp,sp,16
     e5a:	5bd0106f          	j	2c16 <_free_r>

00000e5e <_reclaim_reent>:
     e5e:	1c01a783          	lw	a5,448(gp) # e038 <_impure_ptr>
     e62:	08a78f63          	beq	a5,a0,f00 <_reclaim_reent+0xa2>
     e66:	1101                	addi	sp,sp,-32
     e68:	457c                	lw	a5,76(a0)
     e6a:	cc22                	sw	s0,24(sp)
     e6c:	ca26                	sw	s1,20(sp)
     e6e:	c84a                	sw	s2,16(sp)
     e70:	ce06                	sw	ra,28(sp)
     e72:	c64e                	sw	s3,12(sp)
     e74:	842a                	mv	s0,a0
     e76:	4481                	li	s1,0
     e78:	08000913          	li	s2,128
     e7c:	eb85                	bnez	a5,eac <_reclaim_reent+0x4e>
     e7e:	402c                	lw	a1,64(s0)
     e80:	c581                	beqz	a1,e88 <_reclaim_reent+0x2a>
     e82:	8522                	mv	a0,s0
     e84:	593010ef          	jal	ra,2c16 <_free_r>
     e88:	14842583          	lw	a1,328(s0)
     e8c:	cd95                	beqz	a1,ec8 <_reclaim_reent+0x6a>
     e8e:	14c40493          	addi	s1,s0,332
     e92:	02958b63          	beq	a1,s1,ec8 <_reclaim_reent+0x6a>
     e96:	0005a903          	lw	s2,0(a1)
     e9a:	8522                	mv	a0,s0
     e9c:	57b010ef          	jal	ra,2c16 <_free_r>
     ea0:	85ca                	mv	a1,s2
     ea2:	bfc5                	j	e92 <_reclaim_reent+0x34>
     ea4:	95a6                	add	a1,a1,s1
     ea6:	418c                	lw	a1,0(a1)
     ea8:	e989                	bnez	a1,eba <_reclaim_reent+0x5c>
     eaa:	0491                	addi	s1,s1,4
     eac:	446c                	lw	a1,76(s0)
     eae:	ff249be3          	bne	s1,s2,ea4 <_reclaim_reent+0x46>
     eb2:	8522                	mv	a0,s0
     eb4:	563010ef          	jal	ra,2c16 <_free_r>
     eb8:	b7d9                	j	e7e <_reclaim_reent+0x20>
     eba:	0005a983          	lw	s3,0(a1)
     ebe:	8522                	mv	a0,s0
     ec0:	557010ef          	jal	ra,2c16 <_free_r>
     ec4:	85ce                	mv	a1,s3
     ec6:	b7cd                	j	ea8 <_reclaim_reent+0x4a>
     ec8:	486c                	lw	a1,84(s0)
     eca:	c581                	beqz	a1,ed2 <_reclaim_reent+0x74>
     ecc:	8522                	mv	a0,s0
     ece:	549010ef          	jal	ra,2c16 <_free_r>
     ed2:	5c1c                	lw	a5,56(s0)
     ed4:	cf99                	beqz	a5,ef2 <_reclaim_reent+0x94>
     ed6:	5c5c                	lw	a5,60(s0)
     ed8:	8522                	mv	a0,s0
     eda:	9782                	jalr	a5
     edc:	2e042583          	lw	a1,736(s0)
     ee0:	c989                	beqz	a1,ef2 <_reclaim_reent+0x94>
     ee2:	8522                	mv	a0,s0
     ee4:	4462                	lw	s0,24(sp)
     ee6:	40f2                	lw	ra,28(sp)
     ee8:	44d2                	lw	s1,20(sp)
     eea:	4942                	lw	s2,16(sp)
     eec:	49b2                	lw	s3,12(sp)
     eee:	6105                	addi	sp,sp,32
     ef0:	b7b1                	j	e3c <cleanup_glue>
     ef2:	40f2                	lw	ra,28(sp)
     ef4:	4462                	lw	s0,24(sp)
     ef6:	44d2                	lw	s1,20(sp)
     ef8:	4942                	lw	s2,16(sp)
     efa:	49b2                	lw	s3,12(sp)
     efc:	6105                	addi	sp,sp,32
     efe:	8082                	ret
     f00:	8082                	ret

00000f02 <strlen>:
     f02:	87aa                	mv	a5,a0
     f04:	0785                	addi	a5,a5,1
     f06:	fff7c703          	lbu	a4,-1(a5) # ffffdfff <pulp__FC+0xffffe000>
     f0a:	ff6d                	bnez	a4,f04 <strlen+0x2>
     f0c:	40a78533          	sub	a0,a5,a0
     f10:	157d                	addi	a0,a0,-1
     f12:	8082                	ret

00000f14 <_vfprintf_r>:
     f14:	7105                	addi	sp,sp,-480
     f16:	1c112e23          	sw	ra,476(sp)
     f1a:	1c912a23          	sw	s1,468(sp)
     f1e:	1d212823          	sw	s2,464(sp)
     f22:	1d312623          	sw	s3,460(sp)
     f26:	1d512223          	sw	s5,452(sp)
     f2a:	892e                	mv	s2,a1
     f2c:	84b2                	mv	s1,a2
     f2e:	1c812c23          	sw	s0,472(sp)
     f32:	1d412423          	sw	s4,456(sp)
     f36:	1d612023          	sw	s6,448(sp)
     f3a:	1b712e23          	sw	s7,444(sp)
     f3e:	1b812c23          	sw	s8,440(sp)
     f42:	1b912a23          	sw	s9,436(sp)
     f46:	1ba12823          	sw	s10,432(sp)
     f4a:	1bb12623          	sw	s11,428(sp)
     f4e:	89aa                	mv	s3,a0
     f50:	8ab6                	mv	s5,a3
     f52:	08f030ef          	jal	ra,47e0 <_localeconv_r>
     f56:	4108                	lw	a0,0(a0)
     f58:	c4aa                	sw	a0,72(sp)
     f5a:	3765                	jal	f02 <strlen>
     f5c:	dc2a                	sw	a0,56(sp)
     f5e:	4641                	li	a2,16
     f60:	4581                	li	a1,0
     f62:	1188                	addi	a0,sp,224
     f64:	33b5                	jal	cd0 <memset>
     f66:	00098863          	beqz	s3,f76 <_vfprintf_r+0x62>
     f6a:	0389a783          	lw	a5,56(s3)
     f6e:	e781                	bnez	a5,f76 <_vfprintf_r+0x62>
     f70:	854e                	mv	a0,s3
     f72:	2e1010ef          	jal	ra,2a52 <__sinit>
     f76:	00c91783          	lh	a5,12(s2)
     f7a:	01279593          	slli	a1,a5,0x12
     f7e:	0005cd63          	bltz	a1,f98 <_vfprintf_r+0x84>
     f82:	6689                	lui	a3,0x2
     f84:	8fd5                	or	a5,a5,a3
     f86:	06492703          	lw	a4,100(s2)
     f8a:	00f91623          	sh	a5,12(s2)
     f8e:	77f9                	lui	a5,0xffffe
     f90:	17fd                	addi	a5,a5,-1
     f92:	8ff9                	and	a5,a5,a4
     f94:	06f92223          	sw	a5,100(s2)
     f98:	00c95783          	lhu	a5,12(s2)
     f9c:	8ba1                	andi	a5,a5,8
     f9e:	c3b5                	beqz	a5,1002 <_vfprintf_r+0xee>
     fa0:	01092783          	lw	a5,16(s2)
     fa4:	cfb9                	beqz	a5,1002 <_vfprintf_r+0xee>
     fa6:	00c95783          	lhu	a5,12(s2)
     faa:	4729                	li	a4,10
     fac:	8be9                	andi	a5,a5,26
     fae:	06e79263          	bne	a5,a4,1012 <_vfprintf_r+0xfe>
     fb2:	00e91783          	lh	a5,14(s2)
     fb6:	0407ce63          	bltz	a5,1012 <_vfprintf_r+0xfe>
     fba:	86d6                	mv	a3,s5
     fbc:	8626                	mv	a2,s1
     fbe:	85ca                	mv	a1,s2
     fc0:	854e                	mv	a0,s3
     fc2:	5b8010ef          	jal	ra,257a <__sbprintf>
     fc6:	de2a                	sw	a0,60(sp)
     fc8:	1dc12083          	lw	ra,476(sp)
     fcc:	1d812403          	lw	s0,472(sp)
     fd0:	5572                	lw	a0,60(sp)
     fd2:	1d412483          	lw	s1,468(sp)
     fd6:	1d012903          	lw	s2,464(sp)
     fda:	1cc12983          	lw	s3,460(sp)
     fde:	1c812a03          	lw	s4,456(sp)
     fe2:	1c412a83          	lw	s5,452(sp)
     fe6:	1c012b03          	lw	s6,448(sp)
     fea:	1bc12b83          	lw	s7,444(sp)
     fee:	1b812c03          	lw	s8,440(sp)
     ff2:	1b412c83          	lw	s9,436(sp)
     ff6:	1b012d03          	lw	s10,432(sp)
     ffa:	1ac12d83          	lw	s11,428(sp)
     ffe:	613d                	addi	sp,sp,480
    1000:	8082                	ret
    1002:	85ca                	mv	a1,s2
    1004:	854e                	mv	a0,s3
    1006:	5fe010ef          	jal	ra,2604 <__swsetup_r>
    100a:	dd51                	beqz	a0,fa6 <_vfprintf_r+0x92>
    100c:	55fd                	li	a1,-1
    100e:	de2e                	sw	a1,60(sp)
    1010:	bf65                	j	fc8 <_vfprintf_r+0xb4>
    1012:	0fc10893          	addi	a7,sp,252
    1016:	cbc6                	sw	a7,212(sp)
    1018:	cf82                	sw	zero,220(sp)
    101a:	cd82                	sw	zero,216(sp)
    101c:	4a01                	li	s4,0
    101e:	cc82                	sw	zero,88(sp)
    1020:	ca82                	sw	zero,84(sp)
    1022:	d402                	sw	zero,40(sp)
    1024:	c282                	sw	zero,68(sp)
    1026:	c882                	sw	zero,80(sp)
    1028:	de02                	sw	zero,60(sp)
    102a:	8426                	mv	s0,s1
    102c:	02500713          	li	a4,37
    1030:	00044783          	lbu	a5,0(s0)
    1034:	c399                	beqz	a5,103a <_vfprintf_r+0x126>
    1036:	08e79263          	bne	a5,a4,10ba <_vfprintf_r+0x1a6>
    103a:	40940b33          	sub	s6,s0,s1
    103e:	020b0c63          	beqz	s6,1076 <_vfprintf_r+0x162>
    1042:	47fe                	lw	a5,220(sp)
    1044:	0098a023          	sw	s1,0(a7)
    1048:	97da                	add	a5,a5,s6
    104a:	cfbe                	sw	a5,220(sp)
    104c:	47ee                	lw	a5,216(sp)
    104e:	0168a223          	sw	s6,4(a7)
    1052:	0785                	addi	a5,a5,1
    1054:	cdbe                	sw	a5,216(sp)
    1056:	471d                	li	a4,7
    1058:	08a1                	addi	a7,a7,8
    105a:	00f75b63          	ble	a5,a4,1070 <_vfprintf_r+0x15c>
    105e:	09d0                	addi	a2,sp,212
    1060:	85ca                	mv	a1,s2
    1062:	854e                	mv	a0,s3
    1064:	560060ef          	jal	ra,75c4 <__sprint_r>
    1068:	38051963          	bnez	a0,13fa <_vfprintf_r+0x4e6>
    106c:	0fc10893          	addi	a7,sp,252
    1070:	5672                	lw	a2,60(sp)
    1072:	965a                	add	a2,a2,s6
    1074:	de32                	sw	a2,60(sp)
    1076:	00044783          	lbu	a5,0(s0)
    107a:	e399                	bnez	a5,1080 <_vfprintf_r+0x16c>
    107c:	4da0106f          	j	2556 <_vfprintf_r+0x1642>
    1080:	0405                	addi	s0,s0,1
    1082:	d822                	sw	s0,48(sp)
    1084:	0a010ba3          	sb	zero,183(sp)
    1088:	5b7d                	li	s6,-1
    108a:	c082                	sw	zero,64(sp)
    108c:	4401                	li	s0,0
    108e:	4c29                	li	s8,10
    1090:	02a00b93          	li	s7,42
    1094:	05a00613          	li	a2,90
    1098:	4725                	li	a4,9
    109a:	56c2                	lw	a3,48(sp)
    109c:	0006cd03          	lbu	s10,0(a3) # 2000 <_vfprintf_r+0x10ec>
    10a0:	0685                	addi	a3,a3,1
    10a2:	d836                	sw	a3,48(sp)
    10a4:	fe0d0793          	addi	a5,s10,-32
    10a8:	52f664e3          	bltu	a2,a5,1dd0 <_vfprintf_r+0xebc>
    10ac:	65b5                	lui	a1,0xd
    10ae:	078a                	slli	a5,a5,0x2
    10b0:	93058593          	addi	a1,a1,-1744 # c930 <no_exception_handler_msg+0x53>
    10b4:	97ae                	add	a5,a5,a1
    10b6:	439c                	lw	a5,0(a5)
    10b8:	8782                	jr	a5
    10ba:	0405                	addi	s0,s0,1
    10bc:	bf95                	j	1030 <_vfprintf_r+0x11c>
    10be:	0000d7b7          	lui	a5,0xd
    10c2:	b1478793          	addi	a5,a5,-1260 # cb14 <zeroes.4384+0x68>
    10c6:	ccbe                	sw	a5,88(sp)
    10c8:	02047793          	andi	a5,s0,32
    10cc:	3a0786e3          	beqz	a5,1c78 <_vfprintf_r+0xd64>
    10d0:	0a9d                	addi	s5,s5,7
    10d2:	ff8afa93          	andi	s5,s5,-8
    10d6:	008a8793          	addi	a5,s5,8
    10da:	000aac83          	lw	s9,0(s5)
    10de:	004aac03          	lw	s8,4(s5)
    10e2:	d63e                	sw	a5,44(sp)
    10e4:	00147793          	andi	a5,s0,1
    10e8:	cf89                	beqz	a5,1102 <_vfprintf_r+0x1ee>
    10ea:	018ce7b3          	or	a5,s9,s8
    10ee:	cb91                	beqz	a5,1102 <_vfprintf_r+0x1ee>
    10f0:	03000793          	li	a5,48
    10f4:	0af10c23          	sb	a5,184(sp)
    10f8:	87ea                	mv	a5,s10
    10fa:	0af10ca3          	sb	a5,185(sp)
    10fe:	00246413          	ori	s0,s0,2
    1102:	bff47413          	andi	s0,s0,-1025
    1106:	4789                	li	a5,2
    1108:	0970006f          	j	199e <_vfprintf_r+0xa8a>
    110c:	854e                	mv	a0,s3
    110e:	c246                	sw	a7,4(sp)
    1110:	6d0030ef          	jal	ra,47e0 <_localeconv_r>
    1114:	4148                	lw	a0,4(a0)
    1116:	c8aa                	sw	a0,80(sp)
    1118:	33ed                	jal	f02 <strlen>
    111a:	c2aa                	sw	a0,68(sp)
    111c:	854e                	mv	a0,s3
    111e:	6c2030ef          	jal	ra,47e0 <_localeconv_r>
    1122:	4508                	lw	a0,8(a0)
    1124:	4616                	lw	a2,68(sp)
    1126:	d42a                	sw	a0,40(sp)
    1128:	4892                	lw	a7,4(sp)
    112a:	d62d                	beqz	a2,1094 <_vfprintf_r+0x180>
    112c:	d525                	beqz	a0,1094 <_vfprintf_r+0x180>
    112e:	00054783          	lbu	a5,0(a0)
    1132:	d3ad                	beqz	a5,1094 <_vfprintf_r+0x180>
    1134:	40046413          	ori	s0,s0,1024
    1138:	bfb1                	j	1094 <_vfprintf_r+0x180>
    113a:	0b714783          	lbu	a5,183(sp)
    113e:	fbb9                	bnez	a5,1094 <_vfprintf_r+0x180>
    1140:	02000793          	li	a5,32
    1144:	0af10ba3          	sb	a5,183(sp)
    1148:	b7b1                	j	1094 <_vfprintf_r+0x180>
    114a:	00146413          	ori	s0,s0,1
    114e:	b799                	j	1094 <_vfprintf_r+0x180>
    1150:	000aa683          	lw	a3,0(s5)
    1154:	0a91                	addi	s5,s5,4
    1156:	c0b6                	sw	a3,64(sp)
    1158:	f206dee3          	bgez	a3,1094 <_vfprintf_r+0x180>
    115c:	40d006b3          	neg	a3,a3
    1160:	c0b6                	sw	a3,64(sp)
    1162:	00446413          	ori	s0,s0,4
    1166:	b73d                	j	1094 <_vfprintf_r+0x180>
    1168:	02b00793          	li	a5,43
    116c:	bfe1                	j	1144 <_vfprintf_r+0x230>
    116e:	55c2                	lw	a1,48(sp)
    1170:	0005cd03          	lbu	s10,0(a1)
    1174:	00158793          	addi	a5,a1,1
    1178:	037d1963          	bne	s10,s7,11aa <_vfprintf_r+0x296>
    117c:	000aab03          	lw	s6,0(s5)
    1180:	004a8713          	addi	a4,s5,4
    1184:	000b5363          	bgez	s6,118a <_vfprintf_r+0x276>
    1188:	5b7d                	li	s6,-1
    118a:	8aba                	mv	s5,a4
    118c:	d83e                	sw	a5,48(sp)
    118e:	b719                	j	1094 <_vfprintf_r+0x180>
    1190:	0785                	addi	a5,a5,1
    1192:	038b0333          	mul	t1,s6,s8
    1196:	fff7cd03          	lbu	s10,-1(a5)
    119a:	00d30b33          	add	s6,t1,a3
    119e:	fd0d0693          	addi	a3,s10,-48
    11a2:	fed777e3          	bleu	a3,a4,1190 <_vfprintf_r+0x27c>
    11a6:	d83e                	sw	a5,48(sp)
    11a8:	bdf5                	j	10a4 <_vfprintf_r+0x190>
    11aa:	4b01                	li	s6,0
    11ac:	bfcd                	j	119e <_vfprintf_r+0x28a>
    11ae:	08046413          	ori	s0,s0,128
    11b2:	b5cd                	j	1094 <_vfprintf_r+0x180>
    11b4:	57c2                	lw	a5,48(sp)
    11b6:	c082                	sw	zero,64(sp)
    11b8:	4586                	lw	a1,64(sp)
    11ba:	fd0d0d13          	addi	s10,s10,-48
    11be:	038586b3          	mul	a3,a1,s8
    11c2:	9d36                	add	s10,s10,a3
    11c4:	0785                	addi	a5,a5,1
    11c6:	c0ea                	sw	s10,64(sp)
    11c8:	fff7cd03          	lbu	s10,-1(a5)
    11cc:	fd0d0693          	addi	a3,s10,-48
    11d0:	fed774e3          	bleu	a3,a4,11b8 <_vfprintf_r+0x2a4>
    11d4:	bfc9                	j	11a6 <_vfprintf_r+0x292>
    11d6:	00846413          	ori	s0,s0,8
    11da:	bd6d                	j	1094 <_vfprintf_r+0x180>
    11dc:	5642                	lw	a2,48(sp)
    11de:	06800793          	li	a5,104
    11e2:	00064703          	lbu	a4,0(a2)
    11e6:	00f71763          	bne	a4,a5,11f4 <_vfprintf_r+0x2e0>
    11ea:	0605                	addi	a2,a2,1
    11ec:	d832                	sw	a2,48(sp)
    11ee:	20046413          	ori	s0,s0,512
    11f2:	b54d                	j	1094 <_vfprintf_r+0x180>
    11f4:	04046413          	ori	s0,s0,64
    11f8:	bd71                	j	1094 <_vfprintf_r+0x180>
    11fa:	56c2                	lw	a3,48(sp)
    11fc:	06c00793          	li	a5,108
    1200:	0006c703          	lbu	a4,0(a3)
    1204:	00f71763          	bne	a4,a5,1212 <_vfprintf_r+0x2fe>
    1208:	0685                	addi	a3,a3,1
    120a:	d836                	sw	a3,48(sp)
    120c:	02046413          	ori	s0,s0,32
    1210:	b551                	j	1094 <_vfprintf_r+0x180>
    1212:	01046413          	ori	s0,s0,16
    1216:	bdbd                	j	1094 <_vfprintf_r+0x180>
    1218:	000aa783          	lw	a5,0(s5)
    121c:	004a8713          	addi	a4,s5,4
    1220:	d63a                	sw	a4,44(sp)
    1222:	12f10e23          	sb	a5,316(sp)
    1226:	0a010ba3          	sb	zero,183(sp)
    122a:	d202                	sw	zero,36(sp)
    122c:	4b05                	li	s6,1
    122e:	4a81                	li	s5,0
    1230:	4c01                	li	s8,0
    1232:	4b81                	li	s7,0
    1234:	4c81                	li	s9,0
    1236:	1a64                	addi	s1,sp,316
    1238:	0290006f          	j	1a60 <_vfprintf_r+0xb4c>
    123c:	01046413          	ori	s0,s0,16
    1240:	02047793          	andi	a5,s0,32
    1244:	cba9                	beqz	a5,1296 <_vfprintf_r+0x382>
    1246:	0a9d                	addi	s5,s5,7
    1248:	ff8afa93          	andi	s5,s5,-8
    124c:	008a8793          	addi	a5,s5,8
    1250:	000aac83          	lw	s9,0(s5)
    1254:	004aac03          	lw	s8,4(s5)
    1258:	d63e                	sw	a5,44(sp)
    125a:	000c5e63          	bgez	s8,1276 <_vfprintf_r+0x362>
    125e:	41900cb3          	neg	s9,s9
    1262:	019037b3          	snez	a5,s9
    1266:	41800c33          	neg	s8,s8
    126a:	40fc0c33          	sub	s8,s8,a5
    126e:	02d00793          	li	a5,45
    1272:	0af10ba3          	sb	a5,183(sp)
    1276:	57fd                	li	a5,-1
    1278:	22fb17e3          	bne	s6,a5,1ca6 <_vfprintf_r+0xd92>
    127c:	280c18e3          	bnez	s8,1d0c <_vfprintf_r+0xdf8>
    1280:	47a5                	li	a5,9
    1282:	2997e5e3          	bltu	a5,s9,1d0c <_vfprintf_r+0xdf8>
    1286:	030c8c93          	addi	s9,s9,48
    128a:	19910fa3          	sb	s9,415(sp)
    128e:	19f10493          	addi	s1,sp,415
    1292:	2650006f          	j	1cf6 <_vfprintf_r+0xde2>
    1296:	004a8593          	addi	a1,s5,4
    129a:	d62e                	sw	a1,44(sp)
    129c:	01047793          	andi	a5,s0,16
    12a0:	c791                	beqz	a5,12ac <_vfprintf_r+0x398>
    12a2:	000aac83          	lw	s9,0(s5)
    12a6:	41fcdc13          	srai	s8,s9,0x1f
    12aa:	bf45                	j	125a <_vfprintf_r+0x346>
    12ac:	04047793          	andi	a5,s0,64
    12b0:	000aac83          	lw	s9,0(s5)
    12b4:	c789                	beqz	a5,12be <_vfprintf_r+0x3aa>
    12b6:	0cc2                	slli	s9,s9,0x10
    12b8:	410cdc93          	srai	s9,s9,0x10
    12bc:	b7ed                	j	12a6 <_vfprintf_r+0x392>
    12be:	20047793          	andi	a5,s0,512
    12c2:	d3f5                	beqz	a5,12a6 <_vfprintf_r+0x392>
    12c4:	0ce2                	slli	s9,s9,0x18
    12c6:	418cdc93          	srai	s9,s9,0x18
    12ca:	bff1                	j	12a6 <_vfprintf_r+0x392>
    12cc:	00847793          	andi	a5,s0,8
    12d0:	cfad                	beqz	a5,134a <_vfprintf_r+0x436>
    12d2:	000aa783          	lw	a5,0(s5)
    12d6:	004a8613          	addi	a2,s5,4
    12da:	43d4                	lw	a3,4(a5)
    12dc:	4798                	lw	a4,8(a5)
    12de:	d632                	sw	a2,44(sp)
    12e0:	4390                	lw	a2,0(a5)
    12e2:	47dc                	lw	a5,12(a5)
    12e4:	d1b2                	sw	a2,224(sp)
    12e6:	d3b6                	sw	a3,228(sp)
    12e8:	d5ba                	sw	a4,232(sp)
    12ea:	d7be                	sw	a5,236(sp)
    12ec:	1188                	addi	a0,sp,224
    12ee:	c246                	sw	a7,4(sp)
    12f0:	4ac030ef          	jal	ra,479c <_ldcheck>
    12f4:	df2a                	sw	a0,188(sp)
    12f6:	4789                	li	a5,2
    12f8:	4892                	lw	a7,4(sp)
    12fa:	08f51563          	bne	a0,a5,1384 <_vfprintf_r+0x470>
    12fe:	578e                	lw	a5,224(sp)
    1300:	090c                	addi	a1,sp,144
    1302:	d13e                	sw	a5,160(sp)
    1304:	579e                	lw	a5,228(sp)
    1306:	1108                	addi	a0,sp,160
    1308:	d33e                	sw	a5,164(sp)
    130a:	57ae                	lw	a5,232(sp)
    130c:	c902                	sw	zero,144(sp)
    130e:	d53e                	sw	a5,168(sp)
    1310:	57be                	lw	a5,236(sp)
    1312:	cb02                	sw	zero,148(sp)
    1314:	d73e                	sw	a5,172(sp)
    1316:	cd02                	sw	zero,152(sp)
    1318:	cf02                	sw	zero,156(sp)
    131a:	4e1080ef          	jal	ra,9ffa <__letf2>
    131e:	4892                	lw	a7,4(sp)
    1320:	00055663          	bgez	a0,132c <_vfprintf_r+0x418>
    1324:	02d00793          	li	a5,45
    1328:	0af10ba3          	sb	a5,183(sp)
    132c:	04700793          	li	a5,71
    1330:	05a7c563          	blt	a5,s10,137a <_vfprintf_r+0x466>
    1334:	0000d4b7          	lui	s1,0xd
    1338:	af048493          	addi	s1,s1,-1296 # caf0 <zeroes.4384+0x44>
    133c:	f7f47413          	andi	s0,s0,-129
    1340:	d202                	sw	zero,36(sp)
    1342:	4b0d                	li	s6,3
    1344:	4a81                	li	s5,0
    1346:	1bb0006f          	j	1d00 <_vfprintf_r+0xdec>
    134a:	0a9d                	addi	s5,s5,7
    134c:	ff8afa93          	andi	s5,s5,-8
    1350:	000aa583          	lw	a1,0(s5)
    1354:	004aa603          	lw	a2,4(s5)
    1358:	008a8693          	addi	a3,s5,8
    135c:	1108                	addi	a0,sp,160
    135e:	c246                	sw	a7,4(sp)
    1360:	d636                	sw	a3,44(sp)
    1362:	1fb0a0ef          	jal	ra,bd5c <__extenddftf2>
    1366:	578a                	lw	a5,160(sp)
    1368:	4892                	lw	a7,4(sp)
    136a:	d1be                	sw	a5,224(sp)
    136c:	579a                	lw	a5,164(sp)
    136e:	d3be                	sw	a5,228(sp)
    1370:	57aa                	lw	a5,168(sp)
    1372:	d5be                	sw	a5,232(sp)
    1374:	57ba                	lw	a5,172(sp)
    1376:	d7be                	sw	a5,236(sp)
    1378:	bf95                	j	12ec <_vfprintf_r+0x3d8>
    137a:	0000d4b7          	lui	s1,0xd
    137e:	af448493          	addi	s1,s1,-1292 # caf4 <zeroes.4384+0x48>
    1382:	bf6d                	j	133c <_vfprintf_r+0x428>
    1384:	4785                	li	a5,1
    1386:	02f51063          	bne	a0,a5,13a6 <_vfprintf_r+0x492>
    138a:	04700793          	li	a5,71
    138e:	01a7c763          	blt	a5,s10,139c <_vfprintf_r+0x488>
    1392:	0000d4b7          	lui	s1,0xd
    1396:	af848493          	addi	s1,s1,-1288 # caf8 <zeroes.4384+0x4c>
    139a:	b74d                	j	133c <_vfprintf_r+0x428>
    139c:	0000d4b7          	lui	s1,0xd
    13a0:	afc48493          	addi	s1,s1,-1284 # cafc <zeroes.4384+0x50>
    13a4:	bf61                	j	133c <_vfprintf_r+0x428>
    13a6:	fdfd7b93          	andi	s7,s10,-33
    13aa:	04100793          	li	a5,65
    13ae:	04fb9d63          	bne	s7,a5,1408 <_vfprintf_r+0x4f4>
    13b2:	03000793          	li	a5,48
    13b6:	0af10c23          	sb	a5,184(sp)
    13ba:	06100713          	li	a4,97
    13be:	05800793          	li	a5,88
    13c2:	00ed1463          	bne	s10,a4,13ca <_vfprintf_r+0x4b6>
    13c6:	07800793          	li	a5,120
    13ca:	0af10ca3          	sb	a5,185(sp)
    13ce:	06300793          	li	a5,99
    13d2:	00246413          	ori	s0,s0,2
    13d6:	3567d963          	ble	s6,a5,1728 <_vfprintf_r+0x814>
    13da:	001b0593          	addi	a1,s6,1
    13de:	854e                	mv	a0,s3
    13e0:	c246                	sw	a7,4(sp)
    13e2:	5a8030ef          	jal	ra,498a <_malloc_r>
    13e6:	84aa                	mv	s1,a0
    13e8:	4892                	lw	a7,4(sp)
    13ea:	34051263          	bnez	a0,172e <_vfprintf_r+0x81a>
    13ee:	00c95783          	lhu	a5,12(s2)
    13f2:	0407e793          	ori	a5,a5,64
    13f6:	00f91623          	sh	a5,12(s2)
    13fa:	00c95783          	lhu	a5,12(s2)
    13fe:	0407f793          	andi	a5,a5,64
    1402:	bc0783e3          	beqz	a5,fc8 <_vfprintf_r+0xb4>
    1406:	b119                	j	100c <_vfprintf_r+0xf8>
    1408:	57fd                	li	a5,-1
    140a:	32fb0463          	beq	s6,a5,1732 <_vfprintf_r+0x81e>
    140e:	04700793          	li	a5,71
    1412:	d202                	sw	zero,36(sp)
    1414:	00fb9463          	bne	s7,a5,141c <_vfprintf_r+0x508>
    1418:	320b0063          	beqz	s6,1738 <_vfprintf_r+0x824>
    141c:	10046713          	ori	a4,s0,256
    1420:	5a3e                	lw	s4,236(sp)
    1422:	da3a                	sw	a4,52(sp)
    1424:	c682                	sw	zero,76(sp)
    1426:	5e0e                	lw	t3,224(sp)
    1428:	5d9e                	lw	s11,228(sp)
    142a:	5cae                	lw	s9,232(sp)
    142c:	000a5963          	bgez	s4,143e <_vfprintf_r+0x52a>
    1430:	800007b7          	lui	a5,0x80000
    1434:	0147ca33          	xor	s4,a5,s4
    1438:	02d00793          	li	a5,45
    143c:	c6be                	sw	a5,76(sp)
    143e:	04100793          	li	a5,65
    1442:	32fb9863          	bne	s7,a5,1772 <_vfprintf_r+0x85e>
    1446:	1108                	addi	a0,sp,160
    1448:	c246                	sw	a7,4(sp)
    144a:	d172                	sw	t3,160(sp)
    144c:	d36e                	sw	s11,164(sp)
    144e:	d566                	sw	s9,168(sp)
    1450:	d752                	sw	s4,172(sp)
    1452:	2750a0ef          	jal	ra,bec6 <__trunctfdf2>
    1456:	1970                	addi	a2,sp,188
    1458:	029040ef          	jal	ra,5c80 <frexp>
    145c:	862e                	mv	a2,a1
    145e:	85aa                	mv	a1,a0
    1460:	1108                	addi	a0,sp,160
    1462:	0fb0a0ef          	jal	ra,bd5c <__extenddftf2>
    1466:	558a                	lw	a1,160(sp)
    1468:	0000d7b7          	lui	a5,0xd
    146c:	c12e                	sw	a1,128(sp)
    146e:	559a                	lw	a1,164(sp)
    1470:	ac078793          	addi	a5,a5,-1344 # cac0 <zeroes.4384+0x14>
    1474:	c32e                	sw	a1,132(sp)
    1476:	55aa                	lw	a1,168(sp)
    1478:	4390                	lw	a2,0(a5)
    147a:	c52e                	sw	a1,136(sp)
    147c:	55ba                	lw	a1,172(sp)
    147e:	43d4                	lw	a3,4(a5)
    1480:	4798                	lw	a4,8(a5)
    1482:	47dc                	lw	a5,12(a5)
    1484:	c72e                	sw	a1,140(sp)
    1486:	d8b2                	sw	a2,112(sp)
    1488:	010c                	addi	a1,sp,128
    148a:	1890                	addi	a2,sp,112
    148c:	0908                	addi	a0,sp,144
    148e:	dab6                	sw	a3,116(sp)
    1490:	dcba                	sw	a4,120(sp)
    1492:	debe                	sw	a5,124(sp)
    1494:	479080ef          	jal	ra,a10c <__multf3>
    1498:	43ca                	lw	t2,144(sp)
    149a:	485a                	lw	a6,148(sp)
    149c:	4dea                	lw	s11,152(sp)
    149e:	4cfa                	lw	s9,156(sp)
    14a0:	090c                	addi	a1,sp,144
    14a2:	1108                	addi	a0,sp,160
    14a4:	d11e                	sw	t2,160(sp)
    14a6:	d342                	sw	a6,164(sp)
    14a8:	d01e                	sw	t2,32(sp)
    14aa:	ca42                	sw	a6,20(sp)
    14ac:	d56e                	sw	s11,168(sp)
    14ae:	d766                	sw	s9,172(sp)
    14b0:	c902                	sw	zero,144(sp)
    14b2:	cb02                	sw	zero,148(sp)
    14b4:	cd02                	sw	zero,152(sp)
    14b6:	cf02                	sw	zero,156(sp)
    14b8:	18b080ef          	jal	ra,9e42 <__eqtf2>
    14bc:	5382                	lw	t2,32(sp)
    14be:	4852                	lw	a6,20(sp)
    14c0:	4892                	lw	a7,4(sp)
    14c2:	e119                	bnez	a0,14c8 <_vfprintf_r+0x5b4>
    14c4:	4785                	li	a5,1
    14c6:	df3e                	sw	a5,188(sp)
    14c8:	06100793          	li	a5,97
    14cc:	26fd1963          	bne	s10,a5,173e <_vfprintf_r+0x82a>
    14d0:	0000da37          	lui	s4,0xd
    14d4:	b00a0a13          	addi	s4,s4,-1280 # cb00 <zeroes.4384+0x54>
    14d8:	0000d737          	lui	a4,0xd
    14dc:	ad070713          	addi	a4,a4,-1328 # cad0 <zeroes.4384+0x24>
    14e0:	4314                	lw	a3,0(a4)
    14e2:	435c                	lw	a5,4(a4)
    14e4:	d0b6                	sw	a3,96(sp)
    14e6:	4714                	lw	a3,8(a4)
    14e8:	4758                	lw	a4,12(a4)
    14ea:	fffb0e13          	addi	t3,s6,-1
    14ee:	8c26                	mv	s8,s1
    14f0:	d2be                	sw	a5,100(sp)
    14f2:	d4b6                	sw	a3,104(sp)
    14f4:	d6ba                	sw	a4,108(sp)
    14f6:	5706                	lw	a4,96(sp)
    14f8:	5796                	lw	a5,100(sp)
    14fa:	56a6                	lw	a3,104(sp)
    14fc:	c13a                	sw	a4,128(sp)
    14fe:	5736                	lw	a4,108(sp)
    1500:	090c                	addi	a1,sp,144
    1502:	0110                	addi	a2,sp,128
    1504:	1108                	addi	a0,sp,160
    1506:	c246                	sw	a7,4(sp)
    1508:	c472                	sw	t3,8(sp)
    150a:	c91e                	sw	t2,144(sp)
    150c:	cb42                	sw	a6,148(sp)
    150e:	c33e                	sw	a5,132(sp)
    1510:	c73a                	sw	a4,140(sp)
    1512:	cd6e                	sw	s11,152(sp)
    1514:	cf66                	sw	s9,156(sp)
    1516:	c536                	sw	a3,136(sp)
    1518:	3f5080ef          	jal	ra,a10c <__multf3>
    151c:	560a                	lw	a2,160(sp)
    151e:	569a                	lw	a3,164(sp)
    1520:	1108                	addi	a0,sp,160
    1522:	d032                	sw	a2,32(sp)
    1524:	ca36                	sw	a3,20(sp)
    1526:	6520a0ef          	jal	ra,bb78 <__fixtfsi>
    152a:	85aa                	mv	a1,a0
    152c:	8aaa                	mv	s5,a0
    152e:	1108                	addi	a0,sp,160
    1530:	5daa                	lw	s11,168(sp)
    1532:	5cba                	lw	s9,172(sp)
    1534:	73a0a0ef          	jal	ra,bc6e <__floatsitf>
    1538:	570a                	lw	a4,160(sp)
    153a:	5602                	lw	a2,32(sp)
    153c:	d8ba                	sw	a4,112(sp)
    153e:	571a                	lw	a4,164(sp)
    1540:	46d2                	lw	a3,20(sp)
    1542:	daba                	sw	a4,116(sp)
    1544:	572a                	lw	a4,168(sp)
    1546:	c132                	sw	a2,128(sp)
    1548:	dcba                	sw	a4,120(sp)
    154a:	573a                	lw	a4,172(sp)
    154c:	1890                	addi	a2,sp,112
    154e:	010c                	addi	a1,sp,128
    1550:	0908                	addi	a0,sp,144
    1552:	c56e                	sw	s11,136(sp)
    1554:	c766                	sw	s9,140(sp)
    1556:	deba                	sw	a4,124(sp)
    1558:	c336                	sw	a3,132(sp)
    155a:	786090ef          	jal	ra,ace0 <__subtf3>
    155e:	015a0733          	add	a4,s4,s5
    1562:	00074703          	lbu	a4,0(a4)
    1566:	0c05                	addi	s8,s8,1
    1568:	4f6a                	lw	t5,152(sp)
    156a:	4efa                	lw	t4,156(sp)
    156c:	42ca                	lw	t0,144(sp)
    156e:	4fda                	lw	t6,148(sp)
    1570:	feec0fa3          	sb	a4,-1(s8)
    1574:	4e22                	lw	t3,8(sp)
    1576:	577d                	li	a4,-1
    1578:	cef2                	sw	t3,92(sp)
    157a:	8dfa                	mv	s11,t5
    157c:	8cf6                	mv	s9,t4
    157e:	4892                	lw	a7,4(sp)
    1580:	02ee0f63          	beq	t3,a4,15be <_vfprintf_r+0x6aa>
    1584:	1e7d                	addi	t3,t3,-1
    1586:	090c                	addi	a1,sp,144
    1588:	1108                	addi	a0,sp,160
    158a:	d116                	sw	t0,160(sp)
    158c:	d37e                	sw	t6,164(sp)
    158e:	d57a                	sw	t5,168(sp)
    1590:	d776                	sw	t4,172(sp)
    1592:	ce16                	sw	t0,28(sp)
    1594:	d016                	sw	t0,32(sp)
    1596:	ca7e                	sw	t6,20(sp)
    1598:	c472                	sw	t3,8(sp)
    159a:	c676                	sw	t4,12(sp)
    159c:	c87a                	sw	t5,16(sp)
    159e:	cc7e                	sw	t6,24(sp)
    15a0:	c902                	sw	zero,144(sp)
    15a2:	cb02                	sw	zero,148(sp)
    15a4:	cd02                	sw	zero,152(sp)
    15a6:	cf02                	sw	zero,156(sp)
    15a8:	09b080ef          	jal	ra,9e42 <__eqtf2>
    15ac:	42f2                	lw	t0,28(sp)
    15ae:	5382                	lw	t2,32(sp)
    15b0:	4852                	lw	a6,20(sp)
    15b2:	4892                	lw	a7,4(sp)
    15b4:	4e22                	lw	t3,8(sp)
    15b6:	4eb2                	lw	t4,12(sp)
    15b8:	4f42                	lw	t5,16(sp)
    15ba:	4fe2                	lw	t6,24(sp)
    15bc:	fd0d                	bnez	a0,14f6 <_vfprintf_r+0x5e2>
    15be:	0000d737          	lui	a4,0xd
    15c2:	ae070713          	addi	a4,a4,-1312 # cae0 <zeroes.4384+0x34>
    15c6:	4310                	lw	a2,0(a4)
    15c8:	4354                	lw	a3,4(a4)
    15ca:	00872d83          	lw	s11,8(a4)
    15ce:	00c72c83          	lw	s9,12(a4)
    15d2:	090c                	addi	a1,sp,144
    15d4:	1108                	addi	a0,sp,160
    15d6:	d116                	sw	t0,160(sp)
    15d8:	d37e                	sw	t6,164(sp)
    15da:	d57a                	sw	t5,168(sp)
    15dc:	d776                	sw	t4,172(sp)
    15de:	c932                	sw	a2,144(sp)
    15e0:	cb36                	sw	a3,148(sp)
    15e2:	ce16                	sw	t0,28(sp)
    15e4:	d032                	sw	a2,32(sp)
    15e6:	ca36                	sw	a3,20(sp)
    15e8:	c246                	sw	a7,4(sp)
    15ea:	c676                	sw	t4,12(sp)
    15ec:	c87a                	sw	t5,16(sp)
    15ee:	cc7e                	sw	t6,24(sp)
    15f0:	cd6e                	sw	s11,152(sp)
    15f2:	cf66                	sw	s9,156(sp)
    15f4:	0f5080ef          	jal	ra,9ee8 <__getf2>
    15f8:	42f2                	lw	t0,28(sp)
    15fa:	5602                	lw	a2,32(sp)
    15fc:	46d2                	lw	a3,20(sp)
    15fe:	4892                	lw	a7,4(sp)
    1600:	4eb2                	lw	t4,12(sp)
    1602:	4f42                	lw	t5,16(sp)
    1604:	4fe2                	lw	t6,24(sp)
    1606:	02a04563          	bgtz	a0,1630 <_vfprintf_r+0x71c>
    160a:	090c                	addi	a1,sp,144
    160c:	1108                	addi	a0,sp,160
    160e:	d116                	sw	t0,160(sp)
    1610:	d37e                	sw	t6,164(sp)
    1612:	d57a                	sw	t5,168(sp)
    1614:	d776                	sw	t4,172(sp)
    1616:	c932                	sw	a2,144(sp)
    1618:	cb36                	sw	a3,148(sp)
    161a:	cd6e                	sw	s11,152(sp)
    161c:	cf66                	sw	s9,156(sp)
    161e:	025080ef          	jal	ra,9e42 <__eqtf2>
    1622:	4892                	lw	a7,4(sp)
    1624:	14051163          	bnez	a0,1766 <_vfprintf_r+0x852>
    1628:	001afa93          	andi	s5,s5,1
    162c:	120a8d63          	beqz	s5,1766 <_vfprintf_r+0x852>
    1630:	00fa4603          	lbu	a2,15(s4)
    1634:	c7e2                	sw	s8,204(sp)
    1636:	03000593          	li	a1,48
    163a:	46be                	lw	a3,204(sp)
    163c:	fff68713          	addi	a4,a3,-1
    1640:	c7ba                	sw	a4,204(sp)
    1642:	fff6c703          	lbu	a4,-1(a3)
    1646:	10c70163          	beq	a4,a2,1748 <_vfprintf_r+0x834>
    164a:	03900613          	li	a2,57
    164e:	10c71063          	bne	a4,a2,174e <_vfprintf_r+0x83a>
    1652:	00aa4703          	lbu	a4,10(s4)
    1656:	fee68fa3          	sb	a4,-1(a3)
    165a:	8a62                	mv	s4,s8
    165c:	04700713          	li	a4,71
    1660:	409a0a33          	sub	s4,s4,s1
    1664:	5cfa                	lw	s9,188(sp)
    1666:	1ceb9e63          	bne	s7,a4,1842 <_vfprintf_r+0x92e>
    166a:	5775                	li	a4,-3
    166c:	00ecc463          	blt	s9,a4,1674 <_vfprintf_r+0x760>
    1670:	239b5d63          	ble	s9,s6,18aa <_vfprintf_r+0x996>
    1674:	1d79                	addi	s10,s10,-2
    1676:	fffc8693          	addi	a3,s9,-1
    167a:	df36                	sw	a3,188(sp)
    167c:	fdfd7613          	andi	a2,s10,-33
    1680:	04100513          	li	a0,65
    1684:	0ffd7713          	andi	a4,s10,255
    1688:	4581                	li	a1,0
    168a:	00a61663          	bne	a2,a0,1696 <_vfprintf_r+0x782>
    168e:	073d                	addi	a4,a4,15
    1690:	0ff77713          	andi	a4,a4,255
    1694:	4585                	li	a1,1
    1696:	0ce10223          	sb	a4,196(sp)
    169a:	02b00793          	li	a5,43
    169e:	0006d763          	bgez	a3,16ac <_vfprintf_r+0x798>
    16a2:	4685                	li	a3,1
    16a4:	419686b3          	sub	a3,a3,s9
    16a8:	02d00793          	li	a5,45
    16ac:	0cf102a3          	sb	a5,197(sp)
    16b0:	47a5                	li	a5,9
    16b2:	1cd7d363          	ble	a3,a5,1878 <_vfprintf_r+0x964>
    16b6:	0d310713          	addi	a4,sp,211
    16ba:	853a                	mv	a0,a4
    16bc:	45a9                	li	a1,10
    16be:	4825                	li	a6,9
    16c0:	02b6e7b3          	rem	a5,a3,a1
    16c4:	02b6c6b3          	div	a3,a3,a1
    16c8:	03078793          	addi	a5,a5,48
    16cc:	fef70fa3          	sb	a5,-1(a4)
    16d0:	fff70613          	addi	a2,a4,-1
    16d4:	18d84963          	blt	a6,a3,1866 <_vfprintf_r+0x952>
    16d8:	03068793          	addi	a5,a3,48
    16dc:	fef60fa3          	sb	a5,-1(a2)
    16e0:	1779                	addi	a4,a4,-2
    16e2:	0c610613          	addi	a2,sp,198
    16e6:	18a76263          	bltu	a4,a0,186a <_vfprintf_r+0x956>
    16ea:	01dc                	addi	a5,sp,196
    16ec:	40f607b3          	sub	a5,a2,a5
    16f0:	cabe                	sw	a5,84(sp)
    16f2:	01478b33          	add	s6,a5,s4
    16f6:	4785                	li	a5,1
    16f8:	0147c563          	blt	a5,s4,1702 <_vfprintf_r+0x7ee>
    16fc:	00147793          	andi	a5,s0,1
    1700:	c399                	beqz	a5,1706 <_vfprintf_r+0x7f2>
    1702:	55e2                	lw	a1,56(sp)
    1704:	9b2e                	add	s6,s6,a1
    1706:	bff47413          	andi	s0,s0,-1025
    170a:	10046413          	ori	s0,s0,256
    170e:	da22                	sw	s0,52(sp)
    1710:	4c01                	li	s8,0
    1712:	4b81                	li	s7,0
    1714:	4c81                	li	s9,0
    1716:	4736                	lw	a4,76(sp)
    1718:	c709                	beqz	a4,1722 <_vfprintf_r+0x80e>
    171a:	02d00713          	li	a4,45
    171e:	0ae10ba3          	sb	a4,183(sp)
    1722:	5452                	lw	s0,52(sp)
    1724:	4a81                	li	s5,0
    1726:	ae2d                	j	1a60 <_vfprintf_r+0xb4c>
    1728:	d202                	sw	zero,36(sp)
    172a:	1a64                	addi	s1,sp,316
    172c:	b9c5                	j	141c <_vfprintf_r+0x508>
    172e:	d22a                	sw	a0,36(sp)
    1730:	b1f5                	j	141c <_vfprintf_r+0x508>
    1732:	d202                	sw	zero,36(sp)
    1734:	4b19                	li	s6,6
    1736:	b1dd                	j	141c <_vfprintf_r+0x508>
    1738:	d25a                	sw	s6,36(sp)
    173a:	4b05                	li	s6,1
    173c:	b1c5                	j	141c <_vfprintf_r+0x508>
    173e:	0000da37          	lui	s4,0xd
    1742:	b14a0a13          	addi	s4,s4,-1260 # cb14 <zeroes.4384+0x68>
    1746:	bb49                	j	14d8 <_vfprintf_r+0x5c4>
    1748:	feb68fa3          	sb	a1,-1(a3)
    174c:	b5fd                	j	163a <_vfprintf_r+0x726>
    174e:	0705                	addi	a4,a4,1
    1750:	0ff77713          	andi	a4,a4,255
    1754:	b709                	j	1656 <_vfprintf_r+0x742>
    1756:	0a05                	addi	s4,s4,1
    1758:	feea0fa3          	sb	a4,-1(s4)
    175c:	414c07b3          	sub	a5,s8,s4
    1760:	fe07dbe3          	bgez	a5,1756 <_vfprintf_r+0x842>
    1764:	bde5                	j	165c <_vfprintf_r+0x748>
    1766:	47f6                	lw	a5,92(sp)
    1768:	8a62                	mv	s4,s8
    176a:	03000713          	li	a4,48
    176e:	9c3e                	add	s8,s8,a5
    1770:	b7f5                	j	175c <_vfprintf_r+0x848>
    1772:	04600793          	li	a5,70
    1776:	00fb8b63          	beq	s7,a5,178c <_vfprintf_r+0x878>
    177a:	04500793          	li	a5,69
    177e:	001b0a93          	addi	s5,s6,1
    1782:	00fb8363          	beq	s7,a5,1788 <_vfprintf_r+0x874>
    1786:	8ada                	mv	s5,s6
    1788:	4609                	li	a2,2
    178a:	a019                	j	1790 <_vfprintf_r+0x87c>
    178c:	8ada                	mv	s5,s6
    178e:	460d                	li	a2,3
    1790:	019c                	addi	a5,sp,192
    1792:	0cc10813          	addi	a6,sp,204
    1796:	1978                	addi	a4,sp,188
    1798:	86d6                	mv	a3,s5
    179a:	110c                	addi	a1,sp,160
    179c:	854e                	mv	a0,s3
    179e:	d172                	sw	t3,160(sp)
    17a0:	c246                	sw	a7,4(sp)
    17a2:	c472                	sw	t3,8(sp)
    17a4:	d36e                	sw	s11,164(sp)
    17a6:	d566                	sw	s9,168(sp)
    17a8:	d752                	sw	s4,172(sp)
    17aa:	6ea020ef          	jal	ra,3e94 <_ldtoa_r>
    17ae:	04700793          	li	a5,71
    17b2:	84aa                	mv	s1,a0
    17b4:	4892                	lw	a7,4(sp)
    17b6:	4e22                	lw	t3,8(sp)
    17b8:	00fb9563          	bne	s7,a5,17c2 <_vfprintf_r+0x8ae>
    17bc:	00147793          	andi	a5,s0,1
    17c0:	c7b5                	beqz	a5,182c <_vfprintf_r+0x918>
    17c2:	04600793          	li	a5,70
    17c6:	01548c33          	add	s8,s1,s5
    17ca:	02fb9f63          	bne	s7,a5,1808 <_vfprintf_r+0x8f4>
    17ce:	0004c703          	lbu	a4,0(s1)
    17d2:	03000793          	li	a5,48
    17d6:	02f71763          	bne	a4,a5,1804 <_vfprintf_r+0x8f0>
    17da:	090c                	addi	a1,sp,144
    17dc:	1108                	addi	a0,sp,160
    17de:	d172                	sw	t3,160(sp)
    17e0:	c246                	sw	a7,4(sp)
    17e2:	c472                	sw	t3,8(sp)
    17e4:	d36e                	sw	s11,164(sp)
    17e6:	d566                	sw	s9,168(sp)
    17e8:	d752                	sw	s4,172(sp)
    17ea:	c902                	sw	zero,144(sp)
    17ec:	cb02                	sw	zero,148(sp)
    17ee:	cd02                	sw	zero,152(sp)
    17f0:	cf02                	sw	zero,156(sp)
    17f2:	650080ef          	jal	ra,9e42 <__eqtf2>
    17f6:	4892                	lw	a7,4(sp)
    17f8:	4e22                	lw	t3,8(sp)
    17fa:	c509                	beqz	a0,1804 <_vfprintf_r+0x8f0>
    17fc:	4785                	li	a5,1
    17fe:	41578ab3          	sub	s5,a5,s5
    1802:	df56                	sw	s5,188(sp)
    1804:	57fa                	lw	a5,188(sp)
    1806:	9c3e                	add	s8,s8,a5
    1808:	090c                	addi	a1,sp,144
    180a:	1108                	addi	a0,sp,160
    180c:	c246                	sw	a7,4(sp)
    180e:	d172                	sw	t3,160(sp)
    1810:	d36e                	sw	s11,164(sp)
    1812:	d566                	sw	s9,168(sp)
    1814:	d752                	sw	s4,172(sp)
    1816:	c902                	sw	zero,144(sp)
    1818:	cb02                	sw	zero,148(sp)
    181a:	cd02                	sw	zero,152(sp)
    181c:	cf02                	sw	zero,156(sp)
    181e:	624080ef          	jal	ra,9e42 <__eqtf2>
    1822:	4892                	lw	a7,4(sp)
    1824:	03000713          	li	a4,48
    1828:	e909                	bnez	a0,183a <_vfprintf_r+0x926>
    182a:	c7e2                	sw	s8,204(sp)
    182c:	4a3e                	lw	s4,204(sp)
    182e:	b53d                	j	165c <_vfprintf_r+0x748>
    1830:	00178693          	addi	a3,a5,1
    1834:	c7b6                	sw	a3,204(sp)
    1836:	00e78023          	sb	a4,0(a5)
    183a:	47be                	lw	a5,204(sp)
    183c:	ff87eae3          	bltu	a5,s8,1830 <_vfprintf_r+0x91c>
    1840:	b7f5                	j	182c <_vfprintf_r+0x918>
    1842:	04600713          	li	a4,70
    1846:	e2eb98e3          	bne	s7,a4,1676 <_vfprintf_r+0x762>
    184a:	05905763          	blez	s9,1898 <_vfprintf_r+0x984>
    184e:	000b1563          	bnez	s6,1858 <_vfprintf_r+0x944>
    1852:	00147713          	andi	a4,s0,1
    1856:	cf41                	beqz	a4,18ee <_vfprintf_r+0x9da>
    1858:	5662                	lw	a2,56(sp)
    185a:	00cc8733          	add	a4,s9,a2
    185e:	9b3a                	add	s6,s6,a4
    1860:	06600d13          	li	s10,102
    1864:	a895                	j	18d8 <_vfprintf_r+0x9c4>
    1866:	8732                	mv	a4,a2
    1868:	bda1                	j	16c0 <_vfprintf_r+0x7ac>
    186a:	0705                	addi	a4,a4,1
    186c:	fff74783          	lbu	a5,-1(a4)
    1870:	0605                	addi	a2,a2,1
    1872:	fef60fa3          	sb	a5,-1(a2)
    1876:	bd85                	j	16e6 <_vfprintf_r+0x7d2>
    1878:	0c610713          	addi	a4,sp,198
    187c:	e599                	bnez	a1,188a <_vfprintf_r+0x976>
    187e:	03000793          	li	a5,48
    1882:	0cf10323          	sb	a5,198(sp)
    1886:	0c710713          	addi	a4,sp,199
    188a:	03068793          	addi	a5,a3,48
    188e:	00170613          	addi	a2,a4,1
    1892:	00f70023          	sb	a5,0(a4)
    1896:	bd91                	j	16ea <_vfprintf_r+0x7d6>
    1898:	000b1563          	bnez	s6,18a2 <_vfprintf_r+0x98e>
    189c:	00147713          	andi	a4,s0,1
    18a0:	cb29                	beqz	a4,18f2 <_vfprintf_r+0x9de>
    18a2:	56e2                	lw	a3,56(sp)
    18a4:	00168713          	addi	a4,a3,1
    18a8:	bf5d                	j	185e <_vfprintf_r+0x94a>
    18aa:	014ccc63          	blt	s9,s4,18c2 <_vfprintf_r+0x9ae>
    18ae:	00147713          	andi	a4,s0,1
    18b2:	8b66                	mv	s6,s9
    18b4:	c701                	beqz	a4,18bc <_vfprintf_r+0x9a8>
    18b6:	5762                	lw	a4,56(sp)
    18b8:	00ec8b33          	add	s6,s9,a4
    18bc:	06700d13          	li	s10,103
    18c0:	a821                	j	18d8 <_vfprintf_r+0x9c4>
    18c2:	57e2                	lw	a5,56(sp)
    18c4:	06700d13          	li	s10,103
    18c8:	00fa0b33          	add	s6,s4,a5
    18cc:	01904663          	bgtz	s9,18d8 <_vfprintf_r+0x9c4>
    18d0:	419b0333          	sub	t1,s6,s9
    18d4:	00130b13          	addi	s6,t1,1
    18d8:	40047b93          	andi	s7,s0,1024
    18dc:	4c01                	li	s8,0
    18de:	e20b8ce3          	beqz	s7,1716 <_vfprintf_r+0x802>
    18e2:	4b81                	li	s7,0
    18e4:	e39059e3          	blez	s9,1716 <_vfprintf_r+0x802>
    18e8:	0ff00693          	li	a3,255
    18ec:	a015                	j	1910 <_vfprintf_r+0x9fc>
    18ee:	8b66                	mv	s6,s9
    18f0:	bf85                	j	1860 <_vfprintf_r+0x94c>
    18f2:	06600d13          	li	s10,102
    18f6:	4b05                	li	s6,1
    18f8:	b7c5                	j	18d8 <_vfprintf_r+0x9c4>
    18fa:	03975063          	ble	s9,a4,191a <_vfprintf_r+0xa06>
    18fe:	55a2                	lw	a1,40(sp)
    1900:	40ec8cb3          	sub	s9,s9,a4
    1904:	0015c703          	lbu	a4,1(a1)
    1908:	c305                	beqz	a4,1928 <_vfprintf_r+0xa14>
    190a:	0585                	addi	a1,a1,1
    190c:	0b85                	addi	s7,s7,1
    190e:	d42e                	sw	a1,40(sp)
    1910:	5622                	lw	a2,40(sp)
    1912:	00064703          	lbu	a4,0(a2)
    1916:	fed712e3          	bne	a4,a3,18fa <_vfprintf_r+0x9e6>
    191a:	4696                	lw	a3,68(sp)
    191c:	018b8733          	add	a4,s7,s8
    1920:	02d70733          	mul	a4,a4,a3
    1924:	9b3a                	add	s6,s6,a4
    1926:	bbc5                	j	1716 <_vfprintf_r+0x802>
    1928:	0c05                	addi	s8,s8,1
    192a:	b7dd                	j	1910 <_vfprintf_r+0x9fc>
    192c:	000aa783          	lw	a5,0(s5)
    1930:	0a91                	addi	s5,s5,4
    1932:	d656                	sw	s5,44(sp)
    1934:	02047713          	andi	a4,s0,32
    1938:	cb11                	beqz	a4,194c <_vfprintf_r+0xa38>
    193a:	55f2                	lw	a1,60(sp)
    193c:	41f5d713          	srai	a4,a1,0x1f
    1940:	c38c                	sw	a1,0(a5)
    1942:	c3d8                	sw	a4,4(a5)
    1944:	5ab2                	lw	s5,44(sp)
    1946:	54c2                	lw	s1,48(sp)
    1948:	ee2ff06f          	j	102a <_vfprintf_r+0x116>
    194c:	01047713          	andi	a4,s0,16
    1950:	c701                	beqz	a4,1958 <_vfprintf_r+0xa44>
    1952:	5672                	lw	a2,60(sp)
    1954:	c390                	sw	a2,0(a5)
    1956:	b7fd                	j	1944 <_vfprintf_r+0xa30>
    1958:	04047713          	andi	a4,s0,64
    195c:	c709                	beqz	a4,1966 <_vfprintf_r+0xa52>
    195e:	5772                	lw	a4,60(sp)
    1960:	00e79023          	sh	a4,0(a5)
    1964:	b7c5                	j	1944 <_vfprintf_r+0xa30>
    1966:	20047413          	andi	s0,s0,512
    196a:	c409                	beqz	s0,1974 <_vfprintf_r+0xa60>
    196c:	5772                	lw	a4,60(sp)
    196e:	00e78023          	sb	a4,0(a5)
    1972:	bfc9                	j	1944 <_vfprintf_r+0xa30>
    1974:	56f2                	lw	a3,60(sp)
    1976:	c394                	sw	a3,0(a5)
    1978:	b7f1                	j	1944 <_vfprintf_r+0xa30>
    197a:	01046413          	ori	s0,s0,16
    197e:	02047793          	andi	a5,s0,32
    1982:	c3a1                	beqz	a5,19c2 <_vfprintf_r+0xaae>
    1984:	0a9d                	addi	s5,s5,7
    1986:	ff8afa93          	andi	s5,s5,-8
    198a:	008a8713          	addi	a4,s5,8
    198e:	000aac83          	lw	s9,0(s5)
    1992:	004aac03          	lw	s8,4(s5)
    1996:	d63a                	sw	a4,44(sp)
    1998:	bff47413          	andi	s0,s0,-1025
    199c:	4781                	li	a5,0
    199e:	0a010ba3          	sb	zero,183(sp)
    19a2:	577d                	li	a4,-1
    19a4:	30eb0463          	beq	s6,a4,1cac <_vfprintf_r+0xd98>
    19a8:	8722                	mv	a4,s0
    19aa:	018ce6b3          	or	a3,s9,s8
    19ae:	f7f47413          	andi	s0,s0,-129
    19b2:	2e069d63          	bnez	a3,1cac <_vfprintf_r+0xd98>
    19b6:	400b0363          	beqz	s6,1dbc <_vfprintf_r+0xea8>
    19ba:	4705                	li	a4,1
    19bc:	2ee79b63          	bne	a5,a4,1cb2 <_vfprintf_r+0xd9e>
    19c0:	b0d9                	j	1286 <_vfprintf_r+0x372>
    19c2:	004a8793          	addi	a5,s5,4
    19c6:	d63e                	sw	a5,44(sp)
    19c8:	01047793          	andi	a5,s0,16
    19cc:	c781                	beqz	a5,19d4 <_vfprintf_r+0xac0>
    19ce:	000aac83          	lw	s9,0(s5)
    19d2:	a031                	j	19de <_vfprintf_r+0xaca>
    19d4:	04047793          	andi	a5,s0,64
    19d8:	c789                	beqz	a5,19e2 <_vfprintf_r+0xace>
    19da:	000adc83          	lhu	s9,0(s5)
    19de:	4c01                	li	s8,0
    19e0:	bf65                	j	1998 <_vfprintf_r+0xa84>
    19e2:	20047793          	andi	a5,s0,512
    19e6:	d7e5                	beqz	a5,19ce <_vfprintf_r+0xaba>
    19e8:	000acc83          	lbu	s9,0(s5)
    19ec:	bfcd                	j	19de <_vfprintf_r+0xaca>
    19ee:	77e1                	lui	a5,0xffff8
    19f0:	8307c793          	xori	a5,a5,-2000
    19f4:	0af11c23          	sh	a5,184(sp)
    19f8:	0000d7b7          	lui	a5,0xd
    19fc:	b0078793          	addi	a5,a5,-1280 # cb00 <zeroes.4384+0x54>
    1a00:	004a8593          	addi	a1,s5,4
    1a04:	ccbe                	sw	a5,88(sp)
    1a06:	d62e                	sw	a1,44(sp)
    1a08:	000aac83          	lw	s9,0(s5)
    1a0c:	4c01                	li	s8,0
    1a0e:	00246413          	ori	s0,s0,2
    1a12:	4789                	li	a5,2
    1a14:	07800d13          	li	s10,120
    1a18:	b759                	j	199e <_vfprintf_r+0xa8a>
    1a1a:	004a8613          	addi	a2,s5,4
    1a1e:	d632                	sw	a2,44(sp)
    1a20:	0a010ba3          	sb	zero,183(sp)
    1a24:	57fd                	li	a5,-1
    1a26:	000aa483          	lw	s1,0(s5)
    1a2a:	02fb0063          	beq	s6,a5,1a4a <_vfprintf_r+0xb36>
    1a2e:	865a                	mv	a2,s6
    1a30:	4581                	li	a1,0
    1a32:	8526                	mv	a0,s1
    1a34:	c246                	sw	a7,4(sp)
    1a36:	430030ef          	jal	ra,4e66 <memchr>
    1a3a:	d22a                	sw	a0,36(sp)
    1a3c:	4892                	lw	a7,4(sp)
    1a3e:	900503e3          	beqz	a0,1344 <_vfprintf_r+0x430>
    1a42:	40950b33          	sub	s6,a0,s1
    1a46:	d202                	sw	zero,36(sp)
    1a48:	b8f5                	j	1344 <_vfprintf_r+0x430>
    1a4a:	8526                	mv	a0,s1
    1a4c:	c246                	sw	a7,4(sp)
    1a4e:	cb4ff0ef          	jal	ra,f02 <strlen>
    1a52:	4892                	lw	a7,4(sp)
    1a54:	8b2a                	mv	s6,a0
    1a56:	d202                	sw	zero,36(sp)
    1a58:	4a81                	li	s5,0
    1a5a:	4c01                	li	s8,0
    1a5c:	4b81                	li	s7,0
    1a5e:	4c81                	li	s9,0
    1a60:	da56                	sw	s5,52(sp)
    1a62:	016ad363          	ble	s6,s5,1a68 <_vfprintf_r+0xb54>
    1a66:	da5a                	sw	s6,52(sp)
    1a68:	0b714703          	lbu	a4,183(sp)
    1a6c:	c701                	beqz	a4,1a74 <_vfprintf_r+0xb60>
    1a6e:	5752                	lw	a4,52(sp)
    1a70:	0705                	addi	a4,a4,1
    1a72:	da3a                	sw	a4,52(sp)
    1a74:	00247d93          	andi	s11,s0,2
    1a78:	000d8563          	beqz	s11,1a82 <_vfprintf_r+0xb6e>
    1a7c:	57d2                	lw	a5,52(sp)
    1a7e:	0789                	addi	a5,a5,2
    1a80:	da3e                	sw	a5,52(sp)
    1a82:	08447693          	andi	a3,s0,132
    1a86:	c6b6                	sw	a3,76(sp)
    1a88:	e6b9                	bnez	a3,1ad6 <_vfprintf_r+0xbc2>
    1a8a:	4786                	lw	a5,64(sp)
    1a8c:	56d2                	lw	a3,52(sp)
    1a8e:	40d78733          	sub	a4,a5,a3
    1a92:	04e05263          	blez	a4,1ad6 <_vfprintf_r+0xbc2>
    1a96:	6e35                	lui	t3,0xd
    1a98:	4ec1                	li	t4,16
    1a9a:	a9ce0e13          	addi	t3,t3,-1380 # ca9c <blanks.4383>
    1a9e:	4f1d                	li	t5,7
    1aa0:	46ee                	lw	a3,216(sp)
    1aa2:	01c8a023          	sw	t3,0(a7)
    1aa6:	467e                	lw	a2,220(sp)
    1aa8:	0685                	addi	a3,a3,1
    1aaa:	00888593          	addi	a1,a7,8
    1aae:	32eecb63          	blt	t4,a4,1de4 <_vfprintf_r+0xed0>
    1ab2:	00e8a223          	sw	a4,4(a7)
    1ab6:	9732                	add	a4,a4,a2
    1ab8:	cfba                	sw	a4,220(sp)
    1aba:	cdb6                	sw	a3,216(sp)
    1abc:	471d                	li	a4,7
    1abe:	88ae                	mv	a7,a1
    1ac0:	00d75b63          	ble	a3,a4,1ad6 <_vfprintf_r+0xbc2>
    1ac4:	09d0                	addi	a2,sp,212
    1ac6:	85ca                	mv	a1,s2
    1ac8:	854e                	mv	a0,s3
    1aca:	2fb050ef          	jal	ra,75c4 <__sprint_r>
    1ace:	240513e3          	bnez	a0,2514 <_vfprintf_r+0x1600>
    1ad2:	0fc10893          	addi	a7,sp,252
    1ad6:	0b714703          	lbu	a4,183(sp)
    1ada:	cb1d                	beqz	a4,1b10 <_vfprintf_r+0xbfc>
    1adc:	0b710713          	addi	a4,sp,183
    1ae0:	00e8a023          	sw	a4,0(a7)
    1ae4:	4705                	li	a4,1
    1ae6:	00e8a223          	sw	a4,4(a7)
    1aea:	477e                	lw	a4,220(sp)
    1aec:	469d                	li	a3,7
    1aee:	0705                	addi	a4,a4,1
    1af0:	cfba                	sw	a4,220(sp)
    1af2:	476e                	lw	a4,216(sp)
    1af4:	08a1                	addi	a7,a7,8
    1af6:	0705                	addi	a4,a4,1
    1af8:	cdba                	sw	a4,216(sp)
    1afa:	00e6db63          	ble	a4,a3,1b10 <_vfprintf_r+0xbfc>
    1afe:	09d0                	addi	a2,sp,212
    1b00:	85ca                	mv	a1,s2
    1b02:	854e                	mv	a0,s3
    1b04:	2c1050ef          	jal	ra,75c4 <__sprint_r>
    1b08:	200516e3          	bnez	a0,2514 <_vfprintf_r+0x1600>
    1b0c:	0fc10893          	addi	a7,sp,252
    1b10:	020d8b63          	beqz	s11,1b46 <_vfprintf_r+0xc32>
    1b14:	1938                	addi	a4,sp,184
    1b16:	00e8a023          	sw	a4,0(a7)
    1b1a:	4709                	li	a4,2
    1b1c:	00e8a223          	sw	a4,4(a7)
    1b20:	477e                	lw	a4,220(sp)
    1b22:	469d                	li	a3,7
    1b24:	0709                	addi	a4,a4,2
    1b26:	cfba                	sw	a4,220(sp)
    1b28:	476e                	lw	a4,216(sp)
    1b2a:	08a1                	addi	a7,a7,8
    1b2c:	0705                	addi	a4,a4,1
    1b2e:	cdba                	sw	a4,216(sp)
    1b30:	00e6db63          	ble	a4,a3,1b46 <_vfprintf_r+0xc32>
    1b34:	09d0                	addi	a2,sp,212
    1b36:	85ca                	mv	a1,s2
    1b38:	854e                	mv	a0,s3
    1b3a:	28b050ef          	jal	ra,75c4 <__sprint_r>
    1b3e:	1c051be3          	bnez	a0,2514 <_vfprintf_r+0x1600>
    1b42:	0fc10893          	addi	a7,sp,252
    1b46:	47b6                	lw	a5,76(sp)
    1b48:	08000713          	li	a4,128
    1b4c:	04e79863          	bne	a5,a4,1b9c <_vfprintf_r+0xc88>
    1b50:	4586                	lw	a1,64(sp)
    1b52:	56d2                	lw	a3,52(sp)
    1b54:	40d58db3          	sub	s11,a1,a3
    1b58:	05b05263          	blez	s11,1b9c <_vfprintf_r+0xc88>
    1b5c:	47c1                	li	a5,16
    1b5e:	4e1d                	li	t3,7
    1b60:	476e                	lw	a4,216(sp)
    1b62:	46fe                	lw	a3,220(sp)
    1b64:	0705                	addi	a4,a4,1
    1b66:	00888613          	addi	a2,a7,8
    1b6a:	2bb7c763          	blt	a5,s11,1e18 <_vfprintf_r+0xf04>
    1b6e:	67b5                	lui	a5,0xd
    1b70:	01b8a223          	sw	s11,4(a7)
    1b74:	aac78793          	addi	a5,a5,-1364 # caac <zeroes.4384>
    1b78:	9db6                	add	s11,s11,a3
    1b7a:	00f8a023          	sw	a5,0(a7)
    1b7e:	cfee                	sw	s11,220(sp)
    1b80:	cdba                	sw	a4,216(sp)
    1b82:	469d                	li	a3,7
    1b84:	88b2                	mv	a7,a2
    1b86:	00e6db63          	ble	a4,a3,1b9c <_vfprintf_r+0xc88>
    1b8a:	09d0                	addi	a2,sp,212
    1b8c:	85ca                	mv	a1,s2
    1b8e:	854e                	mv	a0,s3
    1b90:	235050ef          	jal	ra,75c4 <__sprint_r>
    1b94:	180510e3          	bnez	a0,2514 <_vfprintf_r+0x1600>
    1b98:	0fc10893          	addi	a7,sp,252
    1b9c:	416a8ab3          	sub	s5,s5,s6
    1ba0:	05505263          	blez	s5,1be4 <_vfprintf_r+0xcd0>
    1ba4:	4dc1                	li	s11,16
    1ba6:	481d                	li	a6,7
    1ba8:	476e                	lw	a4,216(sp)
    1baa:	46fe                	lw	a3,220(sp)
    1bac:	0705                	addi	a4,a4,1
    1bae:	00888613          	addi	a2,a7,8
    1bb2:	295dce63          	blt	s11,s5,1e4e <_vfprintf_r+0xf3a>
    1bb6:	67b5                	lui	a5,0xd
    1bb8:	0158a223          	sw	s5,4(a7)
    1bbc:	aac78793          	addi	a5,a5,-1364 # caac <zeroes.4384>
    1bc0:	9ab6                	add	s5,s5,a3
    1bc2:	00f8a023          	sw	a5,0(a7)
    1bc6:	cfd6                	sw	s5,220(sp)
    1bc8:	cdba                	sw	a4,216(sp)
    1bca:	469d                	li	a3,7
    1bcc:	88b2                	mv	a7,a2
    1bce:	00e6db63          	ble	a4,a3,1be4 <_vfprintf_r+0xcd0>
    1bd2:	09d0                	addi	a2,sp,212
    1bd4:	85ca                	mv	a1,s2
    1bd6:	854e                	mv	a0,s3
    1bd8:	1ed050ef          	jal	ra,75c4 <__sprint_r>
    1bdc:	12051ce3          	bnez	a0,2514 <_vfprintf_r+0x1600>
    1be0:	0fc10893          	addi	a7,sp,252
    1be4:	10047713          	andi	a4,s0,256
    1be8:	4dfe                	lw	s11,220(sp)
    1bea:	28071b63          	bnez	a4,1e80 <_vfprintf_r+0xf6c>
    1bee:	01bb0333          	add	t1,s6,s11
    1bf2:	0098a023          	sw	s1,0(a7)
    1bf6:	0168a223          	sw	s6,4(a7)
    1bfa:	cf9a                	sw	t1,220(sp)
    1bfc:	47ee                	lw	a5,216(sp)
    1bfe:	471d                	li	a4,7
    1c00:	0785                	addi	a5,a5,1
    1c02:	cdbe                	sw	a5,216(sp)
    1c04:	08a1                	addi	a7,a7,8
    1c06:	34f75a63          	ble	a5,a4,1f5a <_vfprintf_r+0x1046>
    1c0a:	09d0                	addi	a2,sp,212
    1c0c:	85ca                	mv	a1,s2
    1c0e:	854e                	mv	a0,s3
    1c10:	1b5050ef          	jal	ra,75c4 <__sprint_r>
    1c14:	100510e3          	bnez	a0,2514 <_vfprintf_r+0x1600>
    1c18:	0fc10893          	addi	a7,sp,252
    1c1c:	ae3d                	j	1f5a <_vfprintf_r+0x1046>
    1c1e:	01046413          	ori	s0,s0,16
    1c22:	02047793          	andi	a5,s0,32
    1c26:	cf89                	beqz	a5,1c40 <_vfprintf_r+0xd2c>
    1c28:	0a9d                	addi	s5,s5,7
    1c2a:	ff8afa93          	andi	s5,s5,-8
    1c2e:	008a8693          	addi	a3,s5,8
    1c32:	000aac83          	lw	s9,0(s5)
    1c36:	004aac03          	lw	s8,4(s5)
    1c3a:	d636                	sw	a3,44(sp)
    1c3c:	4785                	li	a5,1
    1c3e:	b385                	j	199e <_vfprintf_r+0xa8a>
    1c40:	004a8713          	addi	a4,s5,4
    1c44:	d63a                	sw	a4,44(sp)
    1c46:	01047793          	andi	a5,s0,16
    1c4a:	c781                	beqz	a5,1c52 <_vfprintf_r+0xd3e>
    1c4c:	000aac83          	lw	s9,0(s5)
    1c50:	a031                	j	1c5c <_vfprintf_r+0xd48>
    1c52:	04047793          	andi	a5,s0,64
    1c56:	c789                	beqz	a5,1c60 <_vfprintf_r+0xd4c>
    1c58:	000adc83          	lhu	s9,0(s5)
    1c5c:	4c01                	li	s8,0
    1c5e:	bff9                	j	1c3c <_vfprintf_r+0xd28>
    1c60:	20047793          	andi	a5,s0,512
    1c64:	d7e5                	beqz	a5,1c4c <_vfprintf_r+0xd38>
    1c66:	000acc83          	lbu	s9,0(s5)
    1c6a:	bfcd                	j	1c5c <_vfprintf_r+0xd48>
    1c6c:	0000d7b7          	lui	a5,0xd
    1c70:	b0078793          	addi	a5,a5,-1280 # cb00 <zeroes.4384+0x54>
    1c74:	c52ff06f          	j	10c6 <_vfprintf_r+0x1b2>
    1c78:	004a8593          	addi	a1,s5,4
    1c7c:	d62e                	sw	a1,44(sp)
    1c7e:	01047793          	andi	a5,s0,16
    1c82:	c781                	beqz	a5,1c8a <_vfprintf_r+0xd76>
    1c84:	000aac83          	lw	s9,0(s5)
    1c88:	a031                	j	1c94 <_vfprintf_r+0xd80>
    1c8a:	04047793          	andi	a5,s0,64
    1c8e:	c791                	beqz	a5,1c9a <_vfprintf_r+0xd86>
    1c90:	000adc83          	lhu	s9,0(s5)
    1c94:	4c01                	li	s8,0
    1c96:	c4eff06f          	j	10e4 <_vfprintf_r+0x1d0>
    1c9a:	20047793          	andi	a5,s0,512
    1c9e:	d3fd                	beqz	a5,1c84 <_vfprintf_r+0xd70>
    1ca0:	000acc83          	lbu	s9,0(s5)
    1ca4:	bfc5                	j	1c94 <_vfprintf_r+0xd80>
    1ca6:	8722                	mv	a4,s0
    1ca8:	4785                	li	a5,1
    1caa:	b301                	j	19aa <_vfprintf_r+0xa96>
    1cac:	4705                	li	a4,1
    1cae:	dce78763          	beq	a5,a4,127c <_vfprintf_r+0x368>
    1cb2:	4709                	li	a4,2
    1cb4:	0ce78e63          	beq	a5,a4,1d90 <_vfprintf_r+0xe7c>
    1cb8:	131c                	addi	a5,sp,416
    1cba:	01dc1693          	slli	a3,s8,0x1d
    1cbe:	007cf713          	andi	a4,s9,7
    1cc2:	003cdc93          	srli	s9,s9,0x3
    1cc6:	03070713          	addi	a4,a4,48
    1cca:	0196ecb3          	or	s9,a3,s9
    1cce:	003c5c13          	srli	s8,s8,0x3
    1cd2:	fee78fa3          	sb	a4,-1(a5)
    1cd6:	018ce6b3          	or	a3,s9,s8
    1cda:	fff78493          	addi	s1,a5,-1
    1cde:	e68d                	bnez	a3,1d08 <_vfprintf_r+0xdf4>
    1ce0:	00147693          	andi	a3,s0,1
    1ce4:	ca89                	beqz	a3,1cf6 <_vfprintf_r+0xde2>
    1ce6:	03000693          	li	a3,48
    1cea:	00d70663          	beq	a4,a3,1cf6 <_vfprintf_r+0xde2>
    1cee:	fed48fa3          	sb	a3,-1(s1)
    1cf2:	ffe78493          	addi	s1,a5,-2
    1cf6:	1314                	addi	a3,sp,416
    1cf8:	8ada                	mv	s5,s6
    1cfa:	d202                	sw	zero,36(sp)
    1cfc:	40968b33          	sub	s6,a3,s1
    1d00:	4c01                	li	s8,0
    1d02:	4b81                	li	s7,0
    1d04:	4c81                	li	s9,0
    1d06:	bba9                	j	1a60 <_vfprintf_r+0xb4c>
    1d08:	87a6                	mv	a5,s1
    1d0a:	bf45                	j	1cba <_vfprintf_r+0xda6>
    1d0c:	4a01                	li	s4,0
    1d0e:	1a010d93          	addi	s11,sp,416
    1d12:	40047a93          	andi	s5,s0,1024
    1d16:	4ba5                	li	s7,9
    1d18:	4629                	li	a2,10
    1d1a:	4681                	li	a3,0
    1d1c:	8566                	mv	a0,s9
    1d1e:	85e2                	mv	a1,s8
    1d20:	c246                	sw	a7,4(sp)
    1d22:	438070ef          	jal	ra,915a <__umoddi3>
    1d26:	03050513          	addi	a0,a0,48
    1d2a:	fead8fa3          	sb	a0,-1(s11)
    1d2e:	fffd8493          	addi	s1,s11,-1
    1d32:	0a05                	addi	s4,s4,1
    1d34:	4892                	lw	a7,4(sp)
    1d36:	020a8f63          	beqz	s5,1d74 <_vfprintf_r+0xe60>
    1d3a:	5622                	lw	a2,40(sp)
    1d3c:	00064783          	lbu	a5,0(a2)
    1d40:	02fa1a63          	bne	s4,a5,1d74 <_vfprintf_r+0xe60>
    1d44:	0ff00693          	li	a3,255
    1d48:	02da0663          	beq	s4,a3,1d74 <_vfprintf_r+0xe60>
    1d4c:	000c1463          	bnez	s8,1d54 <_vfprintf_r+0xe40>
    1d50:	039bf263          	bleu	s9,s7,1d74 <_vfprintf_r+0xe60>
    1d54:	4716                	lw	a4,68(sp)
    1d56:	45c6                	lw	a1,80(sp)
    1d58:	8c99                	sub	s1,s1,a4
    1d5a:	863a                	mv	a2,a4
    1d5c:	8526                	mv	a0,s1
    1d5e:	c246                	sw	a7,4(sp)
    1d60:	212040ef          	jal	ra,5f72 <strncpy>
    1d64:	55a2                	lw	a1,40(sp)
    1d66:	4a01                	li	s4,0
    1d68:	0015c783          	lbu	a5,1(a1)
    1d6c:	4892                	lw	a7,4(sp)
    1d6e:	c399                	beqz	a5,1d74 <_vfprintf_r+0xe60>
    1d70:	0585                	addi	a1,a1,1
    1d72:	d42e                	sw	a1,40(sp)
    1d74:	8566                	mv	a0,s9
    1d76:	85e2                	mv	a1,s8
    1d78:	4629                	li	a2,10
    1d7a:	4681                	li	a3,0
    1d7c:	c246                	sw	a7,4(sp)
    1d7e:	082070ef          	jal	ra,8e00 <__udivdi3>
    1d82:	8c2e                	mv	s8,a1
    1d84:	8dc9                	or	a1,a1,a0
    1d86:	8caa                	mv	s9,a0
    1d88:	4892                	lw	a7,4(sp)
    1d8a:	d5b5                	beqz	a1,1cf6 <_vfprintf_r+0xde2>
    1d8c:	8da6                	mv	s11,s1
    1d8e:	b769                	j	1d18 <_vfprintf_r+0xe04>
    1d90:	1304                	addi	s1,sp,416
    1d92:	4666                	lw	a2,88(sp)
    1d94:	00fcf793          	andi	a5,s9,15
    1d98:	97b2                	add	a5,a5,a2
    1d9a:	0007c783          	lbu	a5,0(a5)
    1d9e:	14fd                	addi	s1,s1,-1
    1da0:	00f48023          	sb	a5,0(s1)
    1da4:	004cdc93          	srli	s9,s9,0x4
    1da8:	01cc1793          	slli	a5,s8,0x1c
    1dac:	0197ecb3          	or	s9,a5,s9
    1db0:	004c5c13          	srli	s8,s8,0x4
    1db4:	018ce7b3          	or	a5,s9,s8
    1db8:	ffe9                	bnez	a5,1d92 <_vfprintf_r+0xe7e>
    1dba:	bf35                	j	1cf6 <_vfprintf_r+0xde2>
    1dbc:	1304                	addi	s1,sp,416
    1dbe:	ff85                	bnez	a5,1cf6 <_vfprintf_r+0xde2>
    1dc0:	8b05                	andi	a4,a4,1
    1dc2:	db15                	beqz	a4,1cf6 <_vfprintf_r+0xde2>
    1dc4:	03000793          	li	a5,48
    1dc8:	18f10fa3          	sb	a5,415(sp)
    1dcc:	cc2ff06f          	j	128e <_vfprintf_r+0x37a>
    1dd0:	780d0363          	beqz	s10,2556 <_vfprintf_r+0x1642>
    1dd4:	87ea                	mv	a5,s10
    1dd6:	12f10e23          	sb	a5,316(sp)
    1dda:	0a010ba3          	sb	zero,183(sp)
    1dde:	d656                	sw	s5,44(sp)
    1de0:	c4aff06f          	j	122a <_vfprintf_r+0x316>
    1de4:	0641                	addi	a2,a2,16
    1de6:	01d8a223          	sw	t4,4(a7)
    1dea:	cfb2                	sw	a2,220(sp)
    1dec:	cdb6                	sw	a3,216(sp)
    1dee:	02df5263          	ble	a3,t5,1e12 <_vfprintf_r+0xefe>
    1df2:	09d0                	addi	a2,sp,212
    1df4:	85ca                	mv	a1,s2
    1df6:	854e                	mv	a0,s3
    1df8:	d03a                	sw	a4,32(sp)
    1dfa:	c472                	sw	t3,8(sp)
    1dfc:	c676                	sw	t4,12(sp)
    1dfe:	c87a                	sw	t5,16(sp)
    1e00:	7c4050ef          	jal	ra,75c4 <__sprint_r>
    1e04:	5702                	lw	a4,32(sp)
    1e06:	4e22                	lw	t3,8(sp)
    1e08:	4eb2                	lw	t4,12(sp)
    1e0a:	4f42                	lw	t5,16(sp)
    1e0c:	70051463          	bnez	a0,2514 <_vfprintf_r+0x1600>
    1e10:	19ec                	addi	a1,sp,252
    1e12:	1741                	addi	a4,a4,-16
    1e14:	88ae                	mv	a7,a1
    1e16:	b169                	j	1aa0 <_vfprintf_r+0xb8c>
    1e18:	65b5                	lui	a1,0xd
    1e1a:	aac58593          	addi	a1,a1,-1364 # caac <zeroes.4384>
    1e1e:	06c1                	addi	a3,a3,16
    1e20:	00b8a023          	sw	a1,0(a7)
    1e24:	00f8a223          	sw	a5,4(a7)
    1e28:	cfb6                	sw	a3,220(sp)
    1e2a:	cdba                	sw	a4,216(sp)
    1e2c:	00ee5e63          	ble	a4,t3,1e48 <_vfprintf_r+0xf34>
    1e30:	09d0                	addi	a2,sp,212
    1e32:	85ca                	mv	a1,s2
    1e34:	854e                	mv	a0,s3
    1e36:	d03e                	sw	a5,32(sp)
    1e38:	c472                	sw	t3,8(sp)
    1e3a:	78a050ef          	jal	ra,75c4 <__sprint_r>
    1e3e:	5782                	lw	a5,32(sp)
    1e40:	4e22                	lw	t3,8(sp)
    1e42:	6c051963          	bnez	a0,2514 <_vfprintf_r+0x1600>
    1e46:	19f0                	addi	a2,sp,252
    1e48:	1dc1                	addi	s11,s11,-16
    1e4a:	88b2                	mv	a7,a2
    1e4c:	bb11                	j	1b60 <_vfprintf_r+0xc4c>
    1e4e:	65b5                	lui	a1,0xd
    1e50:	aac58593          	addi	a1,a1,-1364 # caac <zeroes.4384>
    1e54:	06c1                	addi	a3,a3,16
    1e56:	00b8a023          	sw	a1,0(a7)
    1e5a:	01b8a223          	sw	s11,4(a7)
    1e5e:	cfb6                	sw	a3,220(sp)
    1e60:	cdba                	sw	a4,216(sp)
    1e62:	00e85c63          	ble	a4,a6,1e7a <_vfprintf_r+0xf66>
    1e66:	09d0                	addi	a2,sp,212
    1e68:	85ca                	mv	a1,s2
    1e6a:	854e                	mv	a0,s3
    1e6c:	ca42                	sw	a6,20(sp)
    1e6e:	756050ef          	jal	ra,75c4 <__sprint_r>
    1e72:	4852                	lw	a6,20(sp)
    1e74:	6a051063          	bnez	a0,2514 <_vfprintf_r+0x1600>
    1e78:	19f0                	addi	a2,sp,252
    1e7a:	1ac1                	addi	s5,s5,-16
    1e7c:	88b2                	mv	a7,a2
    1e7e:	b32d                	j	1ba8 <_vfprintf_r+0xc94>
    1e80:	06500713          	li	a4,101
    1e84:	4fa75b63          	ble	s10,a4,237a <_vfprintf_r+0x1466>
    1e88:	570e                	lw	a4,224(sp)
    1e8a:	090c                	addi	a1,sp,144
    1e8c:	d13a                	sw	a4,160(sp)
    1e8e:	571e                	lw	a4,228(sp)
    1e90:	1108                	addi	a0,sp,160
    1e92:	d33a                	sw	a4,164(sp)
    1e94:	572e                	lw	a4,232(sp)
    1e96:	c246                	sw	a7,4(sp)
    1e98:	d53a                	sw	a4,168(sp)
    1e9a:	573e                	lw	a4,236(sp)
    1e9c:	c902                	sw	zero,144(sp)
    1e9e:	d73a                	sw	a4,172(sp)
    1ea0:	cb02                	sw	zero,148(sp)
    1ea2:	cd02                	sw	zero,152(sp)
    1ea4:	cf02                	sw	zero,156(sp)
    1ea6:	79d070ef          	jal	ra,9e42 <__eqtf2>
    1eaa:	4892                	lw	a7,4(sp)
    1eac:	10051963          	bnez	a0,1fbe <_vfprintf_r+0x10aa>
    1eb0:	0000d7b7          	lui	a5,0xd
    1eb4:	b2878793          	addi	a5,a5,-1240 # cb28 <zeroes.4384+0x7c>
    1eb8:	00f8a023          	sw	a5,0(a7)
    1ebc:	4785                	li	a5,1
    1ebe:	00f8a223          	sw	a5,4(a7)
    1ec2:	47ee                	lw	a5,216(sp)
    1ec4:	0d85                	addi	s11,s11,1
    1ec6:	0785                	addi	a5,a5,1
    1ec8:	cfee                	sw	s11,220(sp)
    1eca:	cdbe                	sw	a5,216(sp)
    1ecc:	471d                	li	a4,7
    1ece:	08a1                	addi	a7,a7,8
    1ed0:	00f75b63          	ble	a5,a4,1ee6 <_vfprintf_r+0xfd2>
    1ed4:	09d0                	addi	a2,sp,212
    1ed6:	85ca                	mv	a1,s2
    1ed8:	854e                	mv	a0,s3
    1eda:	6ea050ef          	jal	ra,75c4 <__sprint_r>
    1ede:	62051b63          	bnez	a0,2514 <_vfprintf_r+0x1600>
    1ee2:	0fc10893          	addi	a7,sp,252
    1ee6:	57fa                	lw	a5,188(sp)
    1ee8:	0147c563          	blt	a5,s4,1ef2 <_vfprintf_r+0xfde>
    1eec:	00147793          	andi	a5,s0,1
    1ef0:	c7ad                	beqz	a5,1f5a <_vfprintf_r+0x1046>
    1ef2:	5662                	lw	a2,56(sp)
    1ef4:	47fe                	lw	a5,220(sp)
    1ef6:	45a6                	lw	a1,72(sp)
    1ef8:	97b2                	add	a5,a5,a2
    1efa:	cfbe                	sw	a5,220(sp)
    1efc:	47ee                	lw	a5,216(sp)
    1efe:	00b8a023          	sw	a1,0(a7)
    1f02:	0785                	addi	a5,a5,1
    1f04:	00c8a223          	sw	a2,4(a7)
    1f08:	cdbe                	sw	a5,216(sp)
    1f0a:	471d                	li	a4,7
    1f0c:	08a1                	addi	a7,a7,8
    1f0e:	00f75b63          	ble	a5,a4,1f24 <_vfprintf_r+0x1010>
    1f12:	09d0                	addi	a2,sp,212
    1f14:	85ca                	mv	a1,s2
    1f16:	854e                	mv	a0,s3
    1f18:	6ac050ef          	jal	ra,75c4 <__sprint_r>
    1f1c:	5e051c63          	bnez	a0,2514 <_vfprintf_r+0x1600>
    1f20:	0fc10893          	addi	a7,sp,252
    1f24:	fffa0493          	addi	s1,s4,-1
    1f28:	02905963          	blez	s1,1f5a <_vfprintf_r+0x1046>
    1f2c:	4ac1                	li	s5,16
    1f2e:	4b9d                	li	s7,7
    1f30:	47ee                	lw	a5,216(sp)
    1f32:	477e                	lw	a4,220(sp)
    1f34:	0785                	addi	a5,a5,1
    1f36:	00888693          	addi	a3,a7,8
    1f3a:	049acb63          	blt	s5,s1,1f90 <_vfprintf_r+0x107c>
    1f3e:	6635                	lui	a2,0xd
    1f40:	aac60613          	addi	a2,a2,-1364 # caac <zeroes.4384>
    1f44:	0098a223          	sw	s1,4(a7)
    1f48:	00c8a023          	sw	a2,0(a7)
    1f4c:	94ba                	add	s1,s1,a4
    1f4e:	cfa6                	sw	s1,220(sp)
    1f50:	cdbe                	sw	a5,216(sp)
    1f52:	471d                	li	a4,7
    1f54:	88b6                	mv	a7,a3
    1f56:	caf74ae3          	blt	a4,a5,1c0a <_vfprintf_r+0xcf6>
    1f5a:	8811                	andi	s0,s0,4
    1f5c:	56041b63          	bnez	s0,24d2 <_vfprintf_r+0x15be>
    1f60:	4d06                	lw	s10,64(sp)
    1f62:	5752                	lw	a4,52(sp)
    1f64:	00ed5363          	ble	a4,s10,1f6a <_vfprintf_r+0x1056>
    1f68:	8d3a                	mv	s10,a4
    1f6a:	57f2                	lw	a5,60(sp)
    1f6c:	97ea                	add	a5,a5,s10
    1f6e:	de3e                	sw	a5,60(sp)
    1f70:	47fe                	lw	a5,220(sp)
    1f72:	cb81                	beqz	a5,1f82 <_vfprintf_r+0x106e>
    1f74:	09d0                	addi	a2,sp,212
    1f76:	85ca                	mv	a1,s2
    1f78:	854e                	mv	a0,s3
    1f7a:	64a050ef          	jal	ra,75c4 <__sprint_r>
    1f7e:	58051b63          	bnez	a0,2514 <_vfprintf_r+0x1600>
    1f82:	5712                	lw	a4,36(sp)
    1f84:	cd82                	sw	zero,216(sp)
    1f86:	5c071363          	bnez	a4,254c <_vfprintf_r+0x1638>
    1f8a:	0fc10893          	addi	a7,sp,252
    1f8e:	ba5d                	j	1944 <_vfprintf_r+0xa30>
    1f90:	65b5                	lui	a1,0xd
    1f92:	aac58593          	addi	a1,a1,-1364 # caac <zeroes.4384>
    1f96:	0741                	addi	a4,a4,16
    1f98:	00b8a023          	sw	a1,0(a7)
    1f9c:	0158a223          	sw	s5,4(a7)
    1fa0:	cfba                	sw	a4,220(sp)
    1fa2:	cdbe                	sw	a5,216(sp)
    1fa4:	00fbda63          	ble	a5,s7,1fb8 <_vfprintf_r+0x10a4>
    1fa8:	09d0                	addi	a2,sp,212
    1faa:	85ca                	mv	a1,s2
    1fac:	854e                	mv	a0,s3
    1fae:	616050ef          	jal	ra,75c4 <__sprint_r>
    1fb2:	56051163          	bnez	a0,2514 <_vfprintf_r+0x1600>
    1fb6:	19f4                	addi	a3,sp,252
    1fb8:	14c1                	addi	s1,s1,-16
    1fba:	88b6                	mv	a7,a3
    1fbc:	bf95                	j	1f30 <_vfprintf_r+0x101c>
    1fbe:	577a                	lw	a4,188(sp)
    1fc0:	0ee04f63          	bgtz	a4,20be <_vfprintf_r+0x11aa>
    1fc4:	0000d7b7          	lui	a5,0xd
    1fc8:	b2878793          	addi	a5,a5,-1240 # cb28 <zeroes.4384+0x7c>
    1fcc:	00f8a023          	sw	a5,0(a7)
    1fd0:	4785                	li	a5,1
    1fd2:	00f8a223          	sw	a5,4(a7)
    1fd6:	47ee                	lw	a5,216(sp)
    1fd8:	0d85                	addi	s11,s11,1
    1fda:	0785                	addi	a5,a5,1
    1fdc:	cfee                	sw	s11,220(sp)
    1fde:	cdbe                	sw	a5,216(sp)
    1fe0:	471d                	li	a4,7
    1fe2:	08a1                	addi	a7,a7,8
    1fe4:	00f75b63          	ble	a5,a4,1ffa <_vfprintf_r+0x10e6>
    1fe8:	09d0                	addi	a2,sp,212
    1fea:	85ca                	mv	a1,s2
    1fec:	854e                	mv	a0,s3
    1fee:	5d6050ef          	jal	ra,75c4 <__sprint_r>
    1ff2:	52051163          	bnez	a0,2514 <_vfprintf_r+0x1600>
    1ff6:	0fc10893          	addi	a7,sp,252
    1ffa:	57fa                	lw	a5,188(sp)
    1ffc:	e791                	bnez	a5,2008 <_vfprintf_r+0x10f4>
    1ffe:	000a1563          	bnez	s4,2008 <_vfprintf_r+0x10f4>
    2002:	00147793          	andi	a5,s0,1
    2006:	dbb1                	beqz	a5,1f5a <_vfprintf_r+0x1046>
    2008:	5762                	lw	a4,56(sp)
    200a:	47fe                	lw	a5,220(sp)
    200c:	46a6                	lw	a3,72(sp)
    200e:	97ba                	add	a5,a5,a4
    2010:	cfbe                	sw	a5,220(sp)
    2012:	47ee                	lw	a5,216(sp)
    2014:	00e8a223          	sw	a4,4(a7)
    2018:	0785                	addi	a5,a5,1
    201a:	00d8a023          	sw	a3,0(a7)
    201e:	cdbe                	sw	a5,216(sp)
    2020:	471d                	li	a4,7
    2022:	08a1                	addi	a7,a7,8
    2024:	00f75b63          	ble	a5,a4,203a <_vfprintf_r+0x1126>
    2028:	09d0                	addi	a2,sp,212
    202a:	85ca                	mv	a1,s2
    202c:	854e                	mv	a0,s3
    202e:	596050ef          	jal	ra,75c4 <__sprint_r>
    2032:	4e051163          	bnez	a0,2514 <_vfprintf_r+0x1600>
    2036:	0fc10893          	addi	a7,sp,252
    203a:	5afa                	lw	s5,188(sp)
    203c:	040ad263          	bgez	s5,2080 <_vfprintf_r+0x116c>
    2040:	41500ab3          	neg	s5,s5
    2044:	8746                	mv	a4,a7
    2046:	4bc1                	li	s7,16
    2048:	4c1d                	li	s8,7
    204a:	47ee                	lw	a5,216(sp)
    204c:	46fe                	lw	a3,220(sp)
    204e:	0785                	addi	a5,a5,1
    2050:	08a1                	addi	a7,a7,8
    2052:	035bcf63          	blt	s7,s5,2090 <_vfprintf_r+0x117c>
    2056:	6635                	lui	a2,0xd
    2058:	01572223          	sw	s5,4(a4)
    205c:	aac60613          	addi	a2,a2,-1364 # caac <zeroes.4384>
    2060:	9ab6                	add	s5,s5,a3
    2062:	c310                	sw	a2,0(a4)
    2064:	cfd6                	sw	s5,220(sp)
    2066:	cdbe                	sw	a5,216(sp)
    2068:	471d                	li	a4,7
    206a:	00f75b63          	ble	a5,a4,2080 <_vfprintf_r+0x116c>
    206e:	09d0                	addi	a2,sp,212
    2070:	85ca                	mv	a1,s2
    2072:	854e                	mv	a0,s3
    2074:	550050ef          	jal	ra,75c4 <__sprint_r>
    2078:	48051e63          	bnez	a0,2514 <_vfprintf_r+0x1600>
    207c:	0fc10893          	addi	a7,sp,252
    2080:	47fe                	lw	a5,220(sp)
    2082:	0098a023          	sw	s1,0(a7)
    2086:	97d2                	add	a5,a5,s4
    2088:	0148a223          	sw	s4,4(a7)
    208c:	cfbe                	sw	a5,220(sp)
    208e:	b6bd                	j	1bfc <_vfprintf_r+0xce8>
    2090:	65b5                	lui	a1,0xd
    2092:	aac58593          	addi	a1,a1,-1364 # caac <zeroes.4384>
    2096:	06c1                	addi	a3,a3,16
    2098:	c30c                	sw	a1,0(a4)
    209a:	01772223          	sw	s7,4(a4)
    209e:	cfb6                	sw	a3,220(sp)
    20a0:	cdbe                	sw	a5,216(sp)
    20a2:	00fc5b63          	ble	a5,s8,20b8 <_vfprintf_r+0x11a4>
    20a6:	09d0                	addi	a2,sp,212
    20a8:	85ca                	mv	a1,s2
    20aa:	854e                	mv	a0,s3
    20ac:	518050ef          	jal	ra,75c4 <__sprint_r>
    20b0:	46051263          	bnez	a0,2514 <_vfprintf_r+0x1600>
    20b4:	0fc10893          	addi	a7,sp,252
    20b8:	1ac1                	addi	s5,s5,-16
    20ba:	8746                	mv	a4,a7
    20bc:	b779                	j	204a <_vfprintf_r+0x1136>
    20be:	8ae6                	mv	s5,s9
    20c0:	019a5363          	ble	s9,s4,20c6 <_vfprintf_r+0x11b2>
    20c4:	8ad2                	mv	s5,s4
    20c6:	03505863          	blez	s5,20f6 <_vfprintf_r+0x11e2>
    20ca:	476e                	lw	a4,216(sp)
    20cc:	9dd6                	add	s11,s11,s5
    20ce:	0705                	addi	a4,a4,1
    20d0:	0098a023          	sw	s1,0(a7)
    20d4:	0158a223          	sw	s5,4(a7)
    20d8:	cfee                	sw	s11,220(sp)
    20da:	cdba                	sw	a4,216(sp)
    20dc:	469d                	li	a3,7
    20de:	08a1                	addi	a7,a7,8
    20e0:	00e6db63          	ble	a4,a3,20f6 <_vfprintf_r+0x11e2>
    20e4:	09d0                	addi	a2,sp,212
    20e6:	85ca                	mv	a1,s2
    20e8:	854e                	mv	a0,s3
    20ea:	4da050ef          	jal	ra,75c4 <__sprint_r>
    20ee:	42051363          	bnez	a0,2514 <_vfprintf_r+0x1600>
    20f2:	0fc10893          	addi	a7,sp,252
    20f6:	000ad363          	bgez	s5,20fc <_vfprintf_r+0x11e8>
    20fa:	4a81                	li	s5,0
    20fc:	415c8ab3          	sub	s5,s9,s5
    2100:	05505263          	blez	s5,2144 <_vfprintf_r+0x1230>
    2104:	4d41                	li	s10,16
    2106:	4d9d                	li	s11,7
    2108:	476e                	lw	a4,216(sp)
    210a:	46fe                	lw	a3,220(sp)
    210c:	0705                	addi	a4,a4,1
    210e:	00888613          	addi	a2,a7,8
    2112:	135d4563          	blt	s10,s5,223c <_vfprintf_r+0x1328>
    2116:	65b5                	lui	a1,0xd
    2118:	0158a223          	sw	s5,4(a7)
    211c:	aac58593          	addi	a1,a1,-1364 # caac <zeroes.4384>
    2120:	9ab6                	add	s5,s5,a3
    2122:	00b8a023          	sw	a1,0(a7)
    2126:	cfd6                	sw	s5,220(sp)
    2128:	cdba                	sw	a4,216(sp)
    212a:	469d                	li	a3,7
    212c:	88b2                	mv	a7,a2
    212e:	00e6db63          	ble	a4,a3,2144 <_vfprintf_r+0x1230>
    2132:	09d0                	addi	a2,sp,212
    2134:	85ca                	mv	a1,s2
    2136:	854e                	mv	a0,s3
    2138:	48c050ef          	jal	ra,75c4 <__sprint_r>
    213c:	3c051c63          	bnez	a0,2514 <_vfprintf_r+0x1600>
    2140:	0fc10893          	addi	a7,sp,252
    2144:	40047793          	andi	a5,s0,1024
    2148:	01948ab3          	add	s5,s1,s9
    214c:	cf89                	beqz	a5,2166 <_vfprintf_r+0x1252>
    214e:	4d1d                	li	s10,7
    2150:	01448db3          	add	s11,s1,s4
    2154:	100b9b63          	bnez	s7,226a <_vfprintf_r+0x1356>
    2158:	100c1b63          	bnez	s8,226e <_vfprintf_r+0x135a>
    215c:	014487b3          	add	a5,s1,s4
    2160:	0157f363          	bleu	s5,a5,2166 <_vfprintf_r+0x1252>
    2164:	8abe                	mv	s5,a5
    2166:	57fa                	lw	a5,188(sp)
    2168:	0147c563          	blt	a5,s4,2172 <_vfprintf_r+0x125e>
    216c:	00147793          	andi	a5,s0,1
    2170:	cb95                	beqz	a5,21a4 <_vfprintf_r+0x1290>
    2172:	5762                	lw	a4,56(sp)
    2174:	47fe                	lw	a5,220(sp)
    2176:	46a6                	lw	a3,72(sp)
    2178:	97ba                	add	a5,a5,a4
    217a:	cfbe                	sw	a5,220(sp)
    217c:	47ee                	lw	a5,216(sp)
    217e:	00e8a223          	sw	a4,4(a7)
    2182:	0785                	addi	a5,a5,1
    2184:	00d8a023          	sw	a3,0(a7)
    2188:	cdbe                	sw	a5,216(sp)
    218a:	471d                	li	a4,7
    218c:	08a1                	addi	a7,a7,8
    218e:	00f75b63          	ble	a5,a4,21a4 <_vfprintf_r+0x1290>
    2192:	09d0                	addi	a2,sp,212
    2194:	85ca                	mv	a1,s2
    2196:	854e                	mv	a0,s3
    2198:	42c050ef          	jal	ra,75c4 <__sprint_r>
    219c:	36051c63          	bnez	a0,2514 <_vfprintf_r+0x1600>
    21a0:	0fc10893          	addi	a7,sp,252
    21a4:	94d2                	add	s1,s1,s4
    21a6:	415487b3          	sub	a5,s1,s5
    21aa:	54fa                	lw	s1,188(sp)
    21ac:	409a04b3          	sub	s1,s4,s1
    21b0:	0097d363          	ble	s1,a5,21b6 <_vfprintf_r+0x12a2>
    21b4:	84be                	mv	s1,a5
    21b6:	02905963          	blez	s1,21e8 <_vfprintf_r+0x12d4>
    21ba:	47fe                	lw	a5,220(sp)
    21bc:	0158a023          	sw	s5,0(a7)
    21c0:	97a6                	add	a5,a5,s1
    21c2:	cfbe                	sw	a5,220(sp)
    21c4:	47ee                	lw	a5,216(sp)
    21c6:	0098a223          	sw	s1,4(a7)
    21ca:	0785                	addi	a5,a5,1
    21cc:	cdbe                	sw	a5,216(sp)
    21ce:	471d                	li	a4,7
    21d0:	08a1                	addi	a7,a7,8
    21d2:	00f75b63          	ble	a5,a4,21e8 <_vfprintf_r+0x12d4>
    21d6:	09d0                	addi	a2,sp,212
    21d8:	85ca                	mv	a1,s2
    21da:	854e                	mv	a0,s3
    21dc:	3e8050ef          	jal	ra,75c4 <__sprint_r>
    21e0:	32051a63          	bnez	a0,2514 <_vfprintf_r+0x1600>
    21e4:	0fc10893          	addi	a7,sp,252
    21e8:	87a6                	mv	a5,s1
    21ea:	0004d363          	bgez	s1,21f0 <_vfprintf_r+0x12dc>
    21ee:	4781                	li	a5,0
    21f0:	54fa                	lw	s1,188(sp)
    21f2:	409a04b3          	sub	s1,s4,s1
    21f6:	8c9d                	sub	s1,s1,a5
    21f8:	d69051e3          	blez	s1,1f5a <_vfprintf_r+0x1046>
    21fc:	4ac1                	li	s5,16
    21fe:	4b9d                	li	s7,7
    2200:	47ee                	lw	a5,216(sp)
    2202:	477e                	lw	a4,220(sp)
    2204:	0785                	addi	a5,a5,1
    2206:	00888693          	addi	a3,a7,8
    220a:	d29adae3          	ble	s1,s5,1f3e <_vfprintf_r+0x102a>
    220e:	65b5                	lui	a1,0xd
    2210:	aac58593          	addi	a1,a1,-1364 # caac <zeroes.4384>
    2214:	0741                	addi	a4,a4,16
    2216:	00b8a023          	sw	a1,0(a7)
    221a:	0158a223          	sw	s5,4(a7)
    221e:	cfba                	sw	a4,220(sp)
    2220:	cdbe                	sw	a5,216(sp)
    2222:	00fbda63          	ble	a5,s7,2236 <_vfprintf_r+0x1322>
    2226:	09d0                	addi	a2,sp,212
    2228:	85ca                	mv	a1,s2
    222a:	854e                	mv	a0,s3
    222c:	398050ef          	jal	ra,75c4 <__sprint_r>
    2230:	2e051263          	bnez	a0,2514 <_vfprintf_r+0x1600>
    2234:	19f4                	addi	a3,sp,252
    2236:	14c1                	addi	s1,s1,-16
    2238:	88b6                	mv	a7,a3
    223a:	b7d9                	j	2200 <_vfprintf_r+0x12ec>
    223c:	67b5                	lui	a5,0xd
    223e:	aac78793          	addi	a5,a5,-1364 # caac <zeroes.4384>
    2242:	06c1                	addi	a3,a3,16
    2244:	00f8a023          	sw	a5,0(a7)
    2248:	01a8a223          	sw	s10,4(a7)
    224c:	cfb6                	sw	a3,220(sp)
    224e:	cdba                	sw	a4,216(sp)
    2250:	00edda63          	ble	a4,s11,2264 <_vfprintf_r+0x1350>
    2254:	09d0                	addi	a2,sp,212
    2256:	85ca                	mv	a1,s2
    2258:	854e                	mv	a0,s3
    225a:	36a050ef          	jal	ra,75c4 <__sprint_r>
    225e:	2a051b63          	bnez	a0,2514 <_vfprintf_r+0x1600>
    2262:	19f0                	addi	a2,sp,252
    2264:	1ac1                	addi	s5,s5,-16
    2266:	88b2                	mv	a7,a2
    2268:	b545                	j	2108 <_vfprintf_r+0x11f4>
    226a:	080c0c63          	beqz	s8,2302 <_vfprintf_r+0x13ee>
    226e:	1c7d                	addi	s8,s8,-1
    2270:	4716                	lw	a4,68(sp)
    2272:	47fe                	lw	a5,220(sp)
    2274:	46c6                	lw	a3,80(sp)
    2276:	97ba                	add	a5,a5,a4
    2278:	cfbe                	sw	a5,220(sp)
    227a:	47ee                	lw	a5,216(sp)
    227c:	00d8a023          	sw	a3,0(a7)
    2280:	0785                	addi	a5,a5,1
    2282:	00e8a223          	sw	a4,4(a7)
    2286:	cdbe                	sw	a5,216(sp)
    2288:	08a1                	addi	a7,a7,8
    228a:	00fd5b63          	ble	a5,s10,22a0 <_vfprintf_r+0x138c>
    228e:	09d0                	addi	a2,sp,212
    2290:	85ca                	mv	a1,s2
    2292:	854e                	mv	a0,s3
    2294:	330050ef          	jal	ra,75c4 <__sprint_r>
    2298:	26051e63          	bnez	a0,2514 <_vfprintf_r+0x1600>
    229c:	0fc10893          	addi	a7,sp,252
    22a0:	57a2                	lw	a5,40(sp)
    22a2:	415d8733          	sub	a4,s11,s5
    22a6:	0007cb03          	lbu	s6,0(a5)
    22aa:	01675363          	ble	s6,a4,22b0 <_vfprintf_r+0x139c>
    22ae:	8b3a                	mv	s6,a4
    22b0:	03605863          	blez	s6,22e0 <_vfprintf_r+0x13cc>
    22b4:	477e                	lw	a4,220(sp)
    22b6:	0158a023          	sw	s5,0(a7)
    22ba:	975a                	add	a4,a4,s6
    22bc:	cfba                	sw	a4,220(sp)
    22be:	476e                	lw	a4,216(sp)
    22c0:	0168a223          	sw	s6,4(a7)
    22c4:	0705                	addi	a4,a4,1
    22c6:	cdba                	sw	a4,216(sp)
    22c8:	08a1                	addi	a7,a7,8
    22ca:	00ed5b63          	ble	a4,s10,22e0 <_vfprintf_r+0x13cc>
    22ce:	09d0                	addi	a2,sp,212
    22d0:	85ca                	mv	a1,s2
    22d2:	854e                	mv	a0,s3
    22d4:	2f0050ef          	jal	ra,75c4 <__sprint_r>
    22d8:	22051e63          	bnez	a0,2514 <_vfprintf_r+0x1600>
    22dc:	0fc10893          	addi	a7,sp,252
    22e0:	875a                	mv	a4,s6
    22e2:	000b5363          	bgez	s6,22e8 <_vfprintf_r+0x13d4>
    22e6:	4701                	li	a4,0
    22e8:	55a2                	lw	a1,40(sp)
    22ea:	4841                	li	a6,16
    22ec:	0005c783          	lbu	a5,0(a1)
    22f0:	40e78b33          	sub	s6,a5,a4
    22f4:	05604463          	bgtz	s6,233c <_vfprintf_r+0x1428>
    22f8:	5622                	lw	a2,40(sp)
    22fa:	00064783          	lbu	a5,0(a2)
    22fe:	9abe                	add	s5,s5,a5
    2300:	bd91                	j	2154 <_vfprintf_r+0x1240>
    2302:	5622                	lw	a2,40(sp)
    2304:	1bfd                	addi	s7,s7,-1
    2306:	167d                	addi	a2,a2,-1
    2308:	d432                	sw	a2,40(sp)
    230a:	b79d                	j	2270 <_vfprintf_r+0x135c>
    230c:	67b5                	lui	a5,0xd
    230e:	aac78793          	addi	a5,a5,-1364 # caac <zeroes.4384>
    2312:	06c1                	addi	a3,a3,16
    2314:	00f8a023          	sw	a5,0(a7)
    2318:	0108a223          	sw	a6,4(a7)
    231c:	cfb6                	sw	a3,220(sp)
    231e:	cdba                	sw	a4,216(sp)
    2320:	00ed5c63          	ble	a4,s10,2338 <_vfprintf_r+0x1424>
    2324:	09d0                	addi	a2,sp,212
    2326:	85ca                	mv	a1,s2
    2328:	854e                	mv	a0,s3
    232a:	ca42                	sw	a6,20(sp)
    232c:	298050ef          	jal	ra,75c4 <__sprint_r>
    2330:	4852                	lw	a6,20(sp)
    2332:	1e051163          	bnez	a0,2514 <_vfprintf_r+0x1600>
    2336:	19f0                	addi	a2,sp,252
    2338:	1b41                	addi	s6,s6,-16
    233a:	88b2                	mv	a7,a2
    233c:	476e                	lw	a4,216(sp)
    233e:	46fe                	lw	a3,220(sp)
    2340:	0705                	addi	a4,a4,1
    2342:	00888613          	addi	a2,a7,8
    2346:	fd6843e3          	blt	a6,s6,230c <_vfprintf_r+0x13f8>
    234a:	65b5                	lui	a1,0xd
    234c:	aac58593          	addi	a1,a1,-1364 # caac <zeroes.4384>
    2350:	00db07b3          	add	a5,s6,a3
    2354:	00b8a023          	sw	a1,0(a7)
    2358:	0168a223          	sw	s6,4(a7)
    235c:	cfbe                	sw	a5,220(sp)
    235e:	cdba                	sw	a4,216(sp)
    2360:	88b2                	mv	a7,a2
    2362:	f8ed5be3          	ble	a4,s10,22f8 <_vfprintf_r+0x13e4>
    2366:	09d0                	addi	a2,sp,212
    2368:	85ca                	mv	a1,s2
    236a:	854e                	mv	a0,s3
    236c:	258050ef          	jal	ra,75c4 <__sprint_r>
    2370:	1a051263          	bnez	a0,2514 <_vfprintf_r+0x1600>
    2374:	0fc10893          	addi	a7,sp,252
    2378:	b741                	j	22f8 <_vfprintf_r+0x13e4>
    237a:	47ee                	lw	a5,216(sp)
    237c:	4705                	li	a4,1
    237e:	0098a023          	sw	s1,0(a7)
    2382:	0d85                	addi	s11,s11,1
    2384:	0785                	addi	a5,a5,1
    2386:	00888b93          	addi	s7,a7,8
    238a:	01474663          	blt	a4,s4,2396 <_vfprintf_r+0x1482>
    238e:	00147693          	andi	a3,s0,1
    2392:	12068863          	beqz	a3,24c2 <_vfprintf_r+0x15ae>
    2396:	4705                	li	a4,1
    2398:	00e8a223          	sw	a4,4(a7)
    239c:	cfee                	sw	s11,220(sp)
    239e:	cdbe                	sw	a5,216(sp)
    23a0:	471d                	li	a4,7
    23a2:	00f75b63          	ble	a5,a4,23b8 <_vfprintf_r+0x14a4>
    23a6:	09d0                	addi	a2,sp,212
    23a8:	85ca                	mv	a1,s2
    23aa:	854e                	mv	a0,s3
    23ac:	218050ef          	jal	ra,75c4 <__sprint_r>
    23b0:	16051263          	bnez	a0,2514 <_vfprintf_r+0x1600>
    23b4:	0fc10b93          	addi	s7,sp,252
    23b8:	5762                	lw	a4,56(sp)
    23ba:	47fe                	lw	a5,220(sp)
    23bc:	46a6                	lw	a3,72(sp)
    23be:	97ba                	add	a5,a5,a4
    23c0:	cfbe                	sw	a5,220(sp)
    23c2:	47ee                	lw	a5,216(sp)
    23c4:	00eba223          	sw	a4,4(s7)
    23c8:	0785                	addi	a5,a5,1
    23ca:	00dba023          	sw	a3,0(s7)
    23ce:	cdbe                	sw	a5,216(sp)
    23d0:	471d                	li	a4,7
    23d2:	0ba1                	addi	s7,s7,8
    23d4:	00f75b63          	ble	a5,a4,23ea <_vfprintf_r+0x14d6>
    23d8:	09d0                	addi	a2,sp,212
    23da:	85ca                	mv	a1,s2
    23dc:	854e                	mv	a0,s3
    23de:	1e6050ef          	jal	ra,75c4 <__sprint_r>
    23e2:	12051963          	bnez	a0,2514 <_vfprintf_r+0x1600>
    23e6:	0fc10b93          	addi	s7,sp,252
    23ea:	578e                	lw	a5,224(sp)
    23ec:	090c                	addi	a1,sp,144
    23ee:	d13e                	sw	a5,160(sp)
    23f0:	579e                	lw	a5,228(sp)
    23f2:	1108                	addi	a0,sp,160
    23f4:	d33e                	sw	a5,164(sp)
    23f6:	57ae                	lw	a5,232(sp)
    23f8:	fffa0a93          	addi	s5,s4,-1
    23fc:	d53e                	sw	a5,168(sp)
    23fe:	57be                	lw	a5,236(sp)
    2400:	c902                	sw	zero,144(sp)
    2402:	d73e                	sw	a5,172(sp)
    2404:	cb02                	sw	zero,148(sp)
    2406:	cd02                	sw	zero,152(sp)
    2408:	cf02                	sw	zero,156(sp)
    240a:	239070ef          	jal	ra,9e42 <__eqtf2>
    240e:	cd21                	beqz	a0,2466 <_vfprintf_r+0x1552>
    2410:	47fe                	lw	a5,220(sp)
    2412:	476e                	lw	a4,216(sp)
    2414:	17fd                	addi	a5,a5,-1
    2416:	97d2                	add	a5,a5,s4
    2418:	0705                	addi	a4,a4,1
    241a:	0485                	addi	s1,s1,1
    241c:	009ba023          	sw	s1,0(s7)
    2420:	015ba223          	sw	s5,4(s7)
    2424:	cfbe                	sw	a5,220(sp)
    2426:	cdba                	sw	a4,216(sp)
    2428:	479d                	li	a5,7
    242a:	0ba1                	addi	s7,s7,8
    242c:	00e7da63          	ble	a4,a5,2440 <_vfprintf_r+0x152c>
    2430:	09d0                	addi	a2,sp,212
    2432:	85ca                	mv	a1,s2
    2434:	854e                	mv	a0,s3
    2436:	18e050ef          	jal	ra,75c4 <__sprint_r>
    243a:	ed69                	bnez	a0,2514 <_vfprintf_r+0x1600>
    243c:	0fc10b93          	addi	s7,sp,252
    2440:	01dc                	addi	a5,sp,196
    2442:	46d6                	lw	a3,84(sp)
    2444:	00fba023          	sw	a5,0(s7)
    2448:	47fe                	lw	a5,220(sp)
    244a:	00dba223          	sw	a3,4(s7)
    244e:	97b6                	add	a5,a5,a3
    2450:	cfbe                	sw	a5,220(sp)
    2452:	47ee                	lw	a5,216(sp)
    2454:	471d                	li	a4,7
    2456:	0785                	addi	a5,a5,1
    2458:	cdbe                	sw	a5,216(sp)
    245a:	008b8893          	addi	a7,s7,8
    245e:	aef75ee3          	ble	a5,a4,1f5a <_vfprintf_r+0x1046>
    2462:	fa8ff06f          	j	1c0a <_vfprintf_r+0xcf6>
    2466:	fd505de3          	blez	s5,2440 <_vfprintf_r+0x152c>
    246a:	44c1                	li	s1,16
    246c:	4c1d                	li	s8,7
    246e:	476e                	lw	a4,216(sp)
    2470:	47fe                	lw	a5,220(sp)
    2472:	0705                	addi	a4,a4,1
    2474:	008b8693          	addi	a3,s7,8
    2478:	0154cf63          	blt	s1,s5,2496 <_vfprintf_r+0x1582>
    247c:	6635                	lui	a2,0xd
    247e:	97d6                	add	a5,a5,s5
    2480:	aac60613          	addi	a2,a2,-1364 # caac <zeroes.4384>
    2484:	00cba023          	sw	a2,0(s7)
    2488:	015ba223          	sw	s5,4(s7)
    248c:	cfbe                	sw	a5,220(sp)
    248e:	cdba                	sw	a4,216(sp)
    2490:	479d                	li	a5,7
    2492:	8bb6                	mv	s7,a3
    2494:	bf61                	j	242c <_vfprintf_r+0x1518>
    2496:	65b5                	lui	a1,0xd
    2498:	aac58593          	addi	a1,a1,-1364 # caac <zeroes.4384>
    249c:	07c1                	addi	a5,a5,16
    249e:	00bba023          	sw	a1,0(s7)
    24a2:	009ba223          	sw	s1,4(s7)
    24a6:	cfbe                	sw	a5,220(sp)
    24a8:	cdba                	sw	a4,216(sp)
    24aa:	00ec5963          	ble	a4,s8,24bc <_vfprintf_r+0x15a8>
    24ae:	09d0                	addi	a2,sp,212
    24b0:	85ca                	mv	a1,s2
    24b2:	854e                	mv	a0,s3
    24b4:	110050ef          	jal	ra,75c4 <__sprint_r>
    24b8:	ed31                	bnez	a0,2514 <_vfprintf_r+0x1600>
    24ba:	19f4                	addi	a3,sp,252
    24bc:	1ac1                	addi	s5,s5,-16
    24be:	8bb6                	mv	s7,a3
    24c0:	b77d                	j	246e <_vfprintf_r+0x155a>
    24c2:	00e8a223          	sw	a4,4(a7)
    24c6:	cfee                	sw	s11,220(sp)
    24c8:	cdbe                	sw	a5,216(sp)
    24ca:	471d                	li	a4,7
    24cc:	f6f75ae3          	ble	a5,a4,2440 <_vfprintf_r+0x152c>
    24d0:	b785                	j	2430 <_vfprintf_r+0x151c>
    24d2:	4586                	lw	a1,64(sp)
    24d4:	56d2                	lw	a3,52(sp)
    24d6:	40d58433          	sub	s0,a1,a3
    24da:	a88053e3          	blez	s0,1f60 <_vfprintf_r+0x104c>
    24de:	64b5                	lui	s1,0xd
    24e0:	4ac1                	li	s5,16
    24e2:	a9c48493          	addi	s1,s1,-1380 # ca9c <blanks.4383>
    24e6:	4b9d                	li	s7,7
    24e8:	47ee                	lw	a5,216(sp)
    24ea:	0098a023          	sw	s1,0(a7)
    24ee:	477e                	lw	a4,220(sp)
    24f0:	0785                	addi	a5,a5,1
    24f2:	028acb63          	blt	s5,s0,2528 <_vfprintf_r+0x1614>
    24f6:	0088a223          	sw	s0,4(a7)
    24fa:	943a                	add	s0,s0,a4
    24fc:	cfa2                	sw	s0,220(sp)
    24fe:	cdbe                	sw	a5,216(sp)
    2500:	471d                	li	a4,7
    2502:	a4f75fe3          	ble	a5,a4,1f60 <_vfprintf_r+0x104c>
    2506:	09d0                	addi	a2,sp,212
    2508:	85ca                	mv	a1,s2
    250a:	854e                	mv	a0,s3
    250c:	0b8050ef          	jal	ra,75c4 <__sprint_r>
    2510:	a40508e3          	beqz	a0,1f60 <_vfprintf_r+0x104c>
    2514:	5792                	lw	a5,36(sp)
    2516:	e399                	bnez	a5,251c <_vfprintf_r+0x1608>
    2518:	ee3fe06f          	j	13fa <_vfprintf_r+0x4e6>
    251c:	85be                	mv	a1,a5
    251e:	854e                	mv	a0,s3
    2520:	6f6000ef          	jal	ra,2c16 <_free_r>
    2524:	ed7fe06f          	j	13fa <_vfprintf_r+0x4e6>
    2528:	0741                	addi	a4,a4,16
    252a:	0158a223          	sw	s5,4(a7)
    252e:	cfba                	sw	a4,220(sp)
    2530:	cdbe                	sw	a5,216(sp)
    2532:	08a1                	addi	a7,a7,8
    2534:	00fbda63          	ble	a5,s7,2548 <_vfprintf_r+0x1634>
    2538:	09d0                	addi	a2,sp,212
    253a:	85ca                	mv	a1,s2
    253c:	854e                	mv	a0,s3
    253e:	086050ef          	jal	ra,75c4 <__sprint_r>
    2542:	f969                	bnez	a0,2514 <_vfprintf_r+0x1600>
    2544:	0fc10893          	addi	a7,sp,252
    2548:	1441                	addi	s0,s0,-16
    254a:	bf79                	j	24e8 <_vfprintf_r+0x15d4>
    254c:	5592                	lw	a1,36(sp)
    254e:	854e                	mv	a0,s3
    2550:	6c6000ef          	jal	ra,2c16 <_free_r>
    2554:	bc1d                	j	1f8a <_vfprintf_r+0x1076>
    2556:	47fe                	lw	a5,220(sp)
    2558:	e399                	bnez	a5,255e <_vfprintf_r+0x164a>
    255a:	ea1fe06f          	j	13fa <_vfprintf_r+0x4e6>
    255e:	09d0                	addi	a2,sp,212
    2560:	85ca                	mv	a1,s2
    2562:	854e                	mv	a0,s3
    2564:	060050ef          	jal	ra,75c4 <__sprint_r>
    2568:	e93fe06f          	j	13fa <_vfprintf_r+0x4e6>

0000256c <vfprintf>:
    256c:	86b2                	mv	a3,a2
    256e:	862e                	mv	a2,a1
    2570:	85aa                	mv	a1,a0
    2572:	1c01a503          	lw	a0,448(gp) # e038 <_impure_ptr>
    2576:	99ffe06f          	j	f14 <_vfprintf_r>

0000257a <__sbprintf>:
    257a:	00c5d783          	lhu	a5,12(a1)
    257e:	b8010113          	addi	sp,sp,-1152
    2582:	9bf5                	andi	a5,a5,-3
    2584:	00f11a23          	sh	a5,20(sp)
    2588:	51fc                	lw	a5,100(a1)
    258a:	46812c23          	sw	s0,1144(sp)
    258e:	d6be                	sw	a5,108(sp)
    2590:	00e5d783          	lhu	a5,14(a1)
    2594:	842e                	mv	s0,a1
    2596:	00f11b23          	sh	a5,22(sp)
    259a:	4ddc                	lw	a5,28(a1)
    259c:	46912a23          	sw	s1,1140(sp)
    25a0:	d23e                	sw	a5,36(sp)
    25a2:	51dc                	lw	a5,36(a1)
    25a4:	002c                	addi	a1,sp,8
    25a6:	d63e                	sw	a5,44(sp)
    25a8:	189c                	addi	a5,sp,112
    25aa:	c43e                	sw	a5,8(sp)
    25ac:	cc3e                	sw	a5,24(sp)
    25ae:	40000793          	li	a5,1024
    25b2:	47212823          	sw	s2,1136(sp)
    25b6:	46112e23          	sw	ra,1148(sp)
    25ba:	892a                	mv	s2,a0
    25bc:	c83e                	sw	a5,16(sp)
    25be:	ce3e                	sw	a5,28(sp)
    25c0:	d002                	sw	zero,32(sp)
    25c2:	953fe0ef          	jal	ra,f14 <_vfprintf_r>
    25c6:	84aa                	mv	s1,a0
    25c8:	00054763          	bltz	a0,25d6 <__sbprintf+0x5c>
    25cc:	002c                	addi	a1,sp,8
    25ce:	854a                	mv	a0,s2
    25d0:	26bd                	jal	293e <_fflush_r>
    25d2:	c111                	beqz	a0,25d6 <__sbprintf+0x5c>
    25d4:	54fd                	li	s1,-1
    25d6:	01415783          	lhu	a5,20(sp)
    25da:	0407f793          	andi	a5,a5,64
    25de:	c799                	beqz	a5,25ec <__sbprintf+0x72>
    25e0:	00c45783          	lhu	a5,12(s0)
    25e4:	0407e793          	ori	a5,a5,64
    25e8:	00f41623          	sh	a5,12(s0)
    25ec:	47c12083          	lw	ra,1148(sp)
    25f0:	47812403          	lw	s0,1144(sp)
    25f4:	8526                	mv	a0,s1
    25f6:	47012903          	lw	s2,1136(sp)
    25fa:	47412483          	lw	s1,1140(sp)
    25fe:	48010113          	addi	sp,sp,1152
    2602:	8082                	ret

00002604 <__swsetup_r>:
    2604:	1141                	addi	sp,sp,-16
    2606:	c226                	sw	s1,4(sp)
    2608:	84aa                	mv	s1,a0
    260a:	1c01a503          	lw	a0,448(gp) # e038 <_impure_ptr>
    260e:	c422                	sw	s0,8(sp)
    2610:	c606                	sw	ra,12(sp)
    2612:	842e                	mv	s0,a1
    2614:	c501                	beqz	a0,261c <__swsetup_r+0x18>
    2616:	5d1c                	lw	a5,56(a0)
    2618:	e391                	bnez	a5,261c <__swsetup_r+0x18>
    261a:	2925                	jal	2a52 <__sinit>
    261c:	00c41703          	lh	a4,12(s0)
    2620:	01071793          	slli	a5,a4,0x10
    2624:	83c1                	srli	a5,a5,0x10
    2626:	0087f693          	andi	a3,a5,8
    262a:	eea1                	bnez	a3,2682 <__swsetup_r+0x7e>
    262c:	0107f693          	andi	a3,a5,16
    2630:	ee89                	bnez	a3,264a <__swsetup_r+0x46>
    2632:	47a5                	li	a5,9
    2634:	c09c                	sw	a5,0(s1)
    2636:	04076713          	ori	a4,a4,64
    263a:	00e41623          	sh	a4,12(s0)
    263e:	557d                	li	a0,-1
    2640:	40b2                	lw	ra,12(sp)
    2642:	4422                	lw	s0,8(sp)
    2644:	4492                	lw	s1,4(sp)
    2646:	0141                	addi	sp,sp,16
    2648:	8082                	ret
    264a:	8b91                	andi	a5,a5,4
    264c:	c78d                	beqz	a5,2676 <__swsetup_r+0x72>
    264e:	580c                	lw	a1,48(s0)
    2650:	c989                	beqz	a1,2662 <__swsetup_r+0x5e>
    2652:	04040793          	addi	a5,s0,64
    2656:	00f58463          	beq	a1,a5,265e <__swsetup_r+0x5a>
    265a:	8526                	mv	a0,s1
    265c:	2b6d                	jal	2c16 <_free_r>
    265e:	02042823          	sw	zero,48(s0)
    2662:	00c45783          	lhu	a5,12(s0)
    2666:	00042223          	sw	zero,4(s0)
    266a:	fdb7f793          	andi	a5,a5,-37
    266e:	00f41623          	sh	a5,12(s0)
    2672:	481c                	lw	a5,16(s0)
    2674:	c01c                	sw	a5,0(s0)
    2676:	00c45783          	lhu	a5,12(s0)
    267a:	0087e793          	ori	a5,a5,8
    267e:	00f41623          	sh	a5,12(s0)
    2682:	481c                	lw	a5,16(s0)
    2684:	ef89                	bnez	a5,269e <__swsetup_r+0x9a>
    2686:	00c45783          	lhu	a5,12(s0)
    268a:	20000713          	li	a4,512
    268e:	2807f793          	andi	a5,a5,640
    2692:	00e78663          	beq	a5,a4,269e <__swsetup_r+0x9a>
    2696:	85a2                	mv	a1,s0
    2698:	8526                	mv	a0,s1
    269a:	252020ef          	jal	ra,48ec <__smakebuf_r>
    269e:	00c45783          	lhu	a5,12(s0)
    26a2:	0017f713          	andi	a4,a5,1
    26a6:	c705                	beqz	a4,26ce <__swsetup_r+0xca>
    26a8:	485c                	lw	a5,20(s0)
    26aa:	00042423          	sw	zero,8(s0)
    26ae:	40f007b3          	neg	a5,a5
    26b2:	cc1c                	sw	a5,24(s0)
    26b4:	481c                	lw	a5,16(s0)
    26b6:	4501                	li	a0,0
    26b8:	f7c1                	bnez	a5,2640 <__swsetup_r+0x3c>
    26ba:	00c41783          	lh	a5,12(s0)
    26be:	0807f713          	andi	a4,a5,128
    26c2:	df3d                	beqz	a4,2640 <__swsetup_r+0x3c>
    26c4:	0407e793          	ori	a5,a5,64
    26c8:	00f41623          	sh	a5,12(s0)
    26cc:	bf8d                	j	263e <__swsetup_r+0x3a>
    26ce:	8b89                	andi	a5,a5,2
    26d0:	4701                	li	a4,0
    26d2:	e391                	bnez	a5,26d6 <__swsetup_r+0xd2>
    26d4:	4858                	lw	a4,20(s0)
    26d6:	c418                	sw	a4,8(s0)
    26d8:	bff1                	j	26b4 <__swsetup_r+0xb0>

000026da <__register_exitproc>:
    26da:	1bc1a703          	lw	a4,444(gp) # e034 <_global_impure_ptr>
    26de:	832a                	mv	t1,a0
    26e0:	14872783          	lw	a5,328(a4)
    26e4:	e789                	bnez	a5,26ee <__register_exitproc+0x14>
    26e6:	14c70793          	addi	a5,a4,332
    26ea:	14f72423          	sw	a5,328(a4)
    26ee:	43d8                	lw	a4,4(a5)
    26f0:	487d                	li	a6,31
    26f2:	557d                	li	a0,-1
    26f4:	04e84263          	blt	a6,a4,2738 <__register_exitproc+0x5e>
    26f8:	00271893          	slli	a7,a4,0x2
    26fc:	02030963          	beqz	t1,272e <__register_exitproc+0x54>
    2700:	01178533          	add	a0,a5,a7
    2704:	08c52423          	sw	a2,136(a0)
    2708:	1887a803          	lw	a6,392(a5)
    270c:	4605                	li	a2,1
    270e:	00e61633          	sll	a2,a2,a4
    2712:	00c86833          	or	a6,a6,a2
    2716:	1907a423          	sw	a6,392(a5)
    271a:	10d52423          	sw	a3,264(a0)
    271e:	4689                	li	a3,2
    2720:	00d31763          	bne	t1,a3,272e <__register_exitproc+0x54>
    2724:	18c7a683          	lw	a3,396(a5)
    2728:	8e55                	or	a2,a2,a3
    272a:	18c7a623          	sw	a2,396(a5)
    272e:	0705                	addi	a4,a4,1
    2730:	c3d8                	sw	a4,4(a5)
    2732:	97c6                	add	a5,a5,a7
    2734:	c78c                	sw	a1,8(a5)
    2736:	4501                	li	a0,0
    2738:	8082                	ret

0000273a <__call_exitprocs>:
    273a:	7179                	addi	sp,sp,-48
    273c:	ce4e                	sw	s3,28(sp)
    273e:	1bc1a983          	lw	s3,444(gp) # e034 <_global_impure_ptr>
    2742:	cc52                	sw	s4,24(sp)
    2744:	ca56                	sw	s5,20(sp)
    2746:	c85a                	sw	s6,16(sp)
    2748:	d606                	sw	ra,44(sp)
    274a:	d422                	sw	s0,40(sp)
    274c:	d226                	sw	s1,36(sp)
    274e:	d04a                	sw	s2,32(sp)
    2750:	c65e                	sw	s7,12(sp)
    2752:	8aaa                	mv	s5,a0
    2754:	8a2e                	mv	s4,a1
    2756:	4b05                	li	s6,1
    2758:	1489a483          	lw	s1,328(s3)
    275c:	c881                	beqz	s1,276c <__call_exitprocs+0x32>
    275e:	40c0                	lw	s0,4(s1)
    2760:	fff40913          	addi	s2,s0,-1
    2764:	040a                	slli	s0,s0,0x2
    2766:	9426                	add	s0,s0,s1
    2768:	00095d63          	bgez	s2,2782 <__call_exitprocs+0x48>
    276c:	50b2                	lw	ra,44(sp)
    276e:	5422                	lw	s0,40(sp)
    2770:	5492                	lw	s1,36(sp)
    2772:	5902                	lw	s2,32(sp)
    2774:	49f2                	lw	s3,28(sp)
    2776:	4a62                	lw	s4,24(sp)
    2778:	4ad2                	lw	s5,20(sp)
    277a:	4b42                	lw	s6,16(sp)
    277c:	4bb2                	lw	s7,12(sp)
    277e:	6145                	addi	sp,sp,48
    2780:	8082                	ret
    2782:	000a0963          	beqz	s4,2794 <__call_exitprocs+0x5a>
    2786:	10442783          	lw	a5,260(s0)
    278a:	01478563          	beq	a5,s4,2794 <__call_exitprocs+0x5a>
    278e:	197d                	addi	s2,s2,-1
    2790:	1471                	addi	s0,s0,-4
    2792:	bfd9                	j	2768 <__call_exitprocs+0x2e>
    2794:	40d8                	lw	a4,4(s1)
    2796:	405c                	lw	a5,4(s0)
    2798:	177d                	addi	a4,a4,-1
    279a:	03271663          	bne	a4,s2,27c6 <__call_exitprocs+0x8c>
    279e:	0124a223          	sw	s2,4(s1)
    27a2:	d7f5                	beqz	a5,278e <__call_exitprocs+0x54>
    27a4:	1884a683          	lw	a3,392(s1)
    27a8:	012b1733          	sll	a4,s6,s2
    27ac:	8ef9                	and	a3,a3,a4
    27ae:	0044ab83          	lw	s7,4(s1)
    27b2:	ee89                	bnez	a3,27cc <__call_exitprocs+0x92>
    27b4:	9782                	jalr	a5
    27b6:	40d8                	lw	a4,4(s1)
    27b8:	1489a783          	lw	a5,328(s3)
    27bc:	f9771ee3          	bne	a4,s7,2758 <__call_exitprocs+0x1e>
    27c0:	fcf487e3          	beq	s1,a5,278e <__call_exitprocs+0x54>
    27c4:	bf51                	j	2758 <__call_exitprocs+0x1e>
    27c6:	00042223          	sw	zero,4(s0)
    27ca:	bfe1                	j	27a2 <__call_exitprocs+0x68>
    27cc:	18c4a683          	lw	a3,396(s1)
    27d0:	08442583          	lw	a1,132(s0)
    27d4:	8f75                	and	a4,a4,a3
    27d6:	e701                	bnez	a4,27de <__call_exitprocs+0xa4>
    27d8:	8556                	mv	a0,s5
    27da:	9782                	jalr	a5
    27dc:	bfe9                	j	27b6 <__call_exitprocs+0x7c>
    27de:	852e                	mv	a0,a1
    27e0:	9782                	jalr	a5
    27e2:	bfd1                	j	27b6 <__call_exitprocs+0x7c>

000027e4 <__sflush_r>:
    27e4:	00c59783          	lh	a5,12(a1)
    27e8:	1101                	addi	sp,sp,-32
    27ea:	01079713          	slli	a4,a5,0x10
    27ee:	8341                	srli	a4,a4,0x10
    27f0:	cc22                	sw	s0,24(sp)
    27f2:	ca26                	sw	s1,20(sp)
    27f4:	ce06                	sw	ra,28(sp)
    27f6:	c84a                	sw	s2,16(sp)
    27f8:	c64e                	sw	s3,12(sp)
    27fa:	00877693          	andi	a3,a4,8
    27fe:	84aa                	mv	s1,a0
    2800:	842e                	mv	s0,a1
    2802:	eee5                	bnez	a3,28fa <__sflush_r+0x116>
    2804:	6705                	lui	a4,0x1
    2806:	80070713          	addi	a4,a4,-2048 # 800 <main+0x72a>
    280a:	8fd9                	or	a5,a5,a4
    280c:	41d8                	lw	a4,4(a1)
    280e:	00f59623          	sh	a5,12(a1)
    2812:	00e04d63          	bgtz	a4,282c <__sflush_r+0x48>
    2816:	5dd8                	lw	a4,60(a1)
    2818:	00e04a63          	bgtz	a4,282c <__sflush_r+0x48>
    281c:	4501                	li	a0,0
    281e:	40f2                	lw	ra,28(sp)
    2820:	4462                	lw	s0,24(sp)
    2822:	44d2                	lw	s1,20(sp)
    2824:	4942                	lw	s2,16(sp)
    2826:	49b2                	lw	s3,12(sp)
    2828:	6105                	addi	sp,sp,32
    282a:	8082                	ret
    282c:	5418                	lw	a4,40(s0)
    282e:	d77d                	beqz	a4,281c <__sflush_r+0x38>
    2830:	0004a903          	lw	s2,0(s1)
    2834:	01379693          	slli	a3,a5,0x13
    2838:	0004a023          	sw	zero,0(s1)
    283c:	4c4c                	lw	a1,28(s0)
    283e:	0806d563          	bgez	a3,28c8 <__sflush_r+0xe4>
    2842:	4830                	lw	a2,80(s0)
    2844:	00c45783          	lhu	a5,12(s0)
    2848:	8b91                	andi	a5,a5,4
    284a:	c799                	beqz	a5,2858 <__sflush_r+0x74>
    284c:	405c                	lw	a5,4(s0)
    284e:	8e1d                	sub	a2,a2,a5
    2850:	581c                	lw	a5,48(s0)
    2852:	c399                	beqz	a5,2858 <__sflush_r+0x74>
    2854:	5c5c                	lw	a5,60(s0)
    2856:	8e1d                	sub	a2,a2,a5
    2858:	541c                	lw	a5,40(s0)
    285a:	4c4c                	lw	a1,28(s0)
    285c:	4681                	li	a3,0
    285e:	8526                	mv	a0,s1
    2860:	9782                	jalr	a5
    2862:	57fd                	li	a5,-1
    2864:	00c45683          	lhu	a3,12(s0)
    2868:	00f51d63          	bne	a0,a5,2882 <__sflush_r+0x9e>
    286c:	409c                	lw	a5,0(s1)
    286e:	4775                	li	a4,29
    2870:	06f76f63          	bltu	a4,a5,28ee <__sflush_r+0x10a>
    2874:	20400737          	lui	a4,0x20400
    2878:	0705                	addi	a4,a4,1
    287a:	00f75733          	srl	a4,a4,a5
    287e:	8b05                	andi	a4,a4,1
    2880:	c73d                	beqz	a4,28ee <__sflush_r+0x10a>
    2882:	77fd                	lui	a5,0xfffff
    2884:	7ff78793          	addi	a5,a5,2047 # fffff7ff <pulp__FC+0xfffff800>
    2888:	8ff5                	and	a5,a5,a3
    288a:	4818                	lw	a4,16(s0)
    288c:	07c2                	slli	a5,a5,0x10
    288e:	87c1                	srai	a5,a5,0x10
    2890:	c018                	sw	a4,0(s0)
    2892:	00f41623          	sh	a5,12(s0)
    2896:	00042223          	sw	zero,4(s0)
    289a:	01379713          	slli	a4,a5,0x13
    289e:	00075863          	bgez	a4,28ae <__sflush_r+0xca>
    28a2:	57fd                	li	a5,-1
    28a4:	00f51463          	bne	a0,a5,28ac <__sflush_r+0xc8>
    28a8:	409c                	lw	a5,0(s1)
    28aa:	e391                	bnez	a5,28ae <__sflush_r+0xca>
    28ac:	c828                	sw	a0,80(s0)
    28ae:	580c                	lw	a1,48(s0)
    28b0:	0124a023          	sw	s2,0(s1)
    28b4:	d5a5                	beqz	a1,281c <__sflush_r+0x38>
    28b6:	04040793          	addi	a5,s0,64
    28ba:	00f58463          	beq	a1,a5,28c2 <__sflush_r+0xde>
    28be:	8526                	mv	a0,s1
    28c0:	2e99                	jal	2c16 <_free_r>
    28c2:	02042823          	sw	zero,48(s0)
    28c6:	bf99                	j	281c <__sflush_r+0x38>
    28c8:	4601                	li	a2,0
    28ca:	4685                	li	a3,1
    28cc:	8526                	mv	a0,s1
    28ce:	9702                	jalr	a4
    28d0:	57fd                	li	a5,-1
    28d2:	862a                	mv	a2,a0
    28d4:	f6f518e3          	bne	a0,a5,2844 <__sflush_r+0x60>
    28d8:	409c                	lw	a5,0(s1)
    28da:	d7ad                	beqz	a5,2844 <__sflush_r+0x60>
    28dc:	4775                	li	a4,29
    28de:	00e78563          	beq	a5,a4,28e8 <__sflush_r+0x104>
    28e2:	4759                	li	a4,22
    28e4:	04e79463          	bne	a5,a4,292c <__sflush_r+0x148>
    28e8:	0124a023          	sw	s2,0(s1)
    28ec:	bf05                	j	281c <__sflush_r+0x38>
    28ee:	0406e793          	ori	a5,a3,64
    28f2:	00f41623          	sh	a5,12(s0)
    28f6:	557d                	li	a0,-1
    28f8:	b71d                	j	281e <__sflush_r+0x3a>
    28fa:	0105a983          	lw	s3,16(a1)
    28fe:	f0098fe3          	beqz	s3,281c <__sflush_r+0x38>
    2902:	0005a903          	lw	s2,0(a1)
    2906:	8b0d                	andi	a4,a4,3
    2908:	0135a023          	sw	s3,0(a1)
    290c:	41390933          	sub	s2,s2,s3
    2910:	4781                	li	a5,0
    2912:	e311                	bnez	a4,2916 <__sflush_r+0x132>
    2914:	49dc                	lw	a5,20(a1)
    2916:	c41c                	sw	a5,8(s0)
    2918:	f12052e3          	blez	s2,281c <__sflush_r+0x38>
    291c:	505c                	lw	a5,36(s0)
    291e:	4c4c                	lw	a1,28(s0)
    2920:	86ca                	mv	a3,s2
    2922:	864e                	mv	a2,s3
    2924:	8526                	mv	a0,s1
    2926:	9782                	jalr	a5
    2928:	00a04763          	bgtz	a0,2936 <__sflush_r+0x152>
    292c:	00c45783          	lhu	a5,12(s0)
    2930:	0407e793          	ori	a5,a5,64
    2934:	bf7d                	j	28f2 <__sflush_r+0x10e>
    2936:	99aa                	add	s3,s3,a0
    2938:	40a90933          	sub	s2,s2,a0
    293c:	bff1                	j	2918 <__sflush_r+0x134>

0000293e <_fflush_r>:
    293e:	1101                	addi	sp,sp,-32
    2940:	cc22                	sw	s0,24(sp)
    2942:	ce06                	sw	ra,28(sp)
    2944:	842a                	mv	s0,a0
    2946:	c511                	beqz	a0,2952 <_fflush_r+0x14>
    2948:	5d1c                	lw	a5,56(a0)
    294a:	e781                	bnez	a5,2952 <_fflush_r+0x14>
    294c:	c62e                	sw	a1,12(sp)
    294e:	2211                	jal	2a52 <__sinit>
    2950:	45b2                	lw	a1,12(sp)
    2952:	00c59783          	lh	a5,12(a1)
    2956:	c791                	beqz	a5,2962 <_fflush_r+0x24>
    2958:	8522                	mv	a0,s0
    295a:	4462                	lw	s0,24(sp)
    295c:	40f2                	lw	ra,28(sp)
    295e:	6105                	addi	sp,sp,32
    2960:	b551                	j	27e4 <__sflush_r>
    2962:	40f2                	lw	ra,28(sp)
    2964:	4462                	lw	s0,24(sp)
    2966:	4501                	li	a0,0
    2968:	6105                	addi	sp,sp,32
    296a:	8082                	ret

0000296c <fflush>:
    296c:	85aa                	mv	a1,a0
    296e:	e909                	bnez	a0,2980 <fflush+0x14>
    2970:	000035b7          	lui	a1,0x3
    2974:	1bc1a503          	lw	a0,444(gp) # e034 <_global_impure_ptr>
    2978:	93e58593          	addi	a1,a1,-1730 # 293e <_fflush_r>
    297c:	7800006f          	j	30fc <_fwalk_reent>
    2980:	1c01a503          	lw	a0,448(gp) # e038 <_impure_ptr>
    2984:	bf6d                	j	293e <_fflush_r>

00002986 <__fp_lock>:
    2986:	4501                	li	a0,0
    2988:	8082                	ret

0000298a <_cleanup_r>:
    298a:	000085b7          	lui	a1,0x8
    298e:	0d858593          	addi	a1,a1,216 # 80d8 <_fclose_r>
    2992:	76a0006f          	j	30fc <_fwalk_reent>

00002996 <std.isra.0>:
    2996:	1141                	addi	sp,sp,-16
    2998:	c422                	sw	s0,8(sp)
    299a:	c606                	sw	ra,12(sp)
    299c:	842a                	mv	s0,a0
    299e:	00b51623          	sh	a1,12(a0)
    29a2:	00c51723          	sh	a2,14(a0)
    29a6:	00052023          	sw	zero,0(a0)
    29aa:	00052223          	sw	zero,4(a0)
    29ae:	00052423          	sw	zero,8(a0)
    29b2:	06052223          	sw	zero,100(a0)
    29b6:	00052823          	sw	zero,16(a0)
    29ba:	00052a23          	sw	zero,20(a0)
    29be:	00052c23          	sw	zero,24(a0)
    29c2:	4621                	li	a2,8
    29c4:	4581                	li	a1,0
    29c6:	05c50513          	addi	a0,a0,92
    29ca:	b06fe0ef          	jal	ra,cd0 <memset>
    29ce:	000067b7          	lui	a5,0x6
    29d2:	d7a78793          	addi	a5,a5,-646 # 5d7a <__sread>
    29d6:	d01c                	sw	a5,32(s0)
    29d8:	000067b7          	lui	a5,0x6
    29dc:	db078793          	addi	a5,a5,-592 # 5db0 <__swrite>
    29e0:	d05c                	sw	a5,36(s0)
    29e2:	000067b7          	lui	a5,0x6
    29e6:	e0278793          	addi	a5,a5,-510 # 5e02 <__sseek>
    29ea:	d41c                	sw	a5,40(s0)
    29ec:	000067b7          	lui	a5,0x6
    29f0:	e3a78793          	addi	a5,a5,-454 # 5e3a <__sclose>
    29f4:	cc40                	sw	s0,28(s0)
    29f6:	d45c                	sw	a5,44(s0)
    29f8:	40b2                	lw	ra,12(sp)
    29fa:	4422                	lw	s0,8(sp)
    29fc:	0141                	addi	sp,sp,16
    29fe:	8082                	ret

00002a00 <__fp_unlock>:
    2a00:	4501                	li	a0,0
    2a02:	8082                	ret

00002a04 <__sfmoreglue>:
    2a04:	1141                	addi	sp,sp,-16
    2a06:	c226                	sw	s1,4(sp)
    2a08:	06800613          	li	a2,104
    2a0c:	fff58493          	addi	s1,a1,-1
    2a10:	02c484b3          	mul	s1,s1,a2
    2a14:	c04a                	sw	s2,0(sp)
    2a16:	892e                	mv	s2,a1
    2a18:	07448593          	addi	a1,s1,116
    2a1c:	c422                	sw	s0,8(sp)
    2a1e:	c606                	sw	ra,12(sp)
    2a20:	76b010ef          	jal	ra,498a <_malloc_r>
    2a24:	842a                	mv	s0,a0
    2a26:	cd01                	beqz	a0,2a3e <__sfmoreglue+0x3a>
    2a28:	00052023          	sw	zero,0(a0)
    2a2c:	01252223          	sw	s2,4(a0)
    2a30:	0531                	addi	a0,a0,12
    2a32:	c408                	sw	a0,8(s0)
    2a34:	06848613          	addi	a2,s1,104
    2a38:	4581                	li	a1,0
    2a3a:	a96fe0ef          	jal	ra,cd0 <memset>
    2a3e:	8522                	mv	a0,s0
    2a40:	40b2                	lw	ra,12(sp)
    2a42:	4422                	lw	s0,8(sp)
    2a44:	4492                	lw	s1,4(sp)
    2a46:	4902                	lw	s2,0(sp)
    2a48:	0141                	addi	sp,sp,16
    2a4a:	8082                	ret

00002a4c <_cleanup>:
    2a4c:	1bc1a503          	lw	a0,444(gp) # e034 <_global_impure_ptr>
    2a50:	bf2d                	j	298a <_cleanup_r>

00002a52 <__sinit>:
    2a52:	5d1c                	lw	a5,56(a0)
    2a54:	e7a9                	bnez	a5,2a9e <__sinit+0x4c>
    2a56:	1141                	addi	sp,sp,-16
    2a58:	000037b7          	lui	a5,0x3
    2a5c:	c606                	sw	ra,12(sp)
    2a5e:	c422                	sw	s0,8(sp)
    2a60:	98a78793          	addi	a5,a5,-1654 # 298a <_cleanup_r>
    2a64:	dd5c                	sw	a5,60(a0)
    2a66:	478d                	li	a5,3
    2a68:	2ef52223          	sw	a5,740(a0)
    2a6c:	2ec50793          	addi	a5,a0,748
    2a70:	842a                	mv	s0,a0
    2a72:	2ef52423          	sw	a5,744(a0)
    2a76:	2e052023          	sw	zero,736(a0)
    2a7a:	4148                	lw	a0,4(a0)
    2a7c:	4601                	li	a2,0
    2a7e:	4591                	li	a1,4
    2a80:	3f19                	jal	2996 <std.isra.0>
    2a82:	4408                	lw	a0,8(s0)
    2a84:	4605                	li	a2,1
    2a86:	45a5                	li	a1,9
    2a88:	3739                	jal	2996 <std.isra.0>
    2a8a:	4448                	lw	a0,12(s0)
    2a8c:	4609                	li	a2,2
    2a8e:	45c9                	li	a1,18
    2a90:	3719                	jal	2996 <std.isra.0>
    2a92:	4785                	li	a5,1
    2a94:	dc1c                	sw	a5,56(s0)
    2a96:	40b2                	lw	ra,12(sp)
    2a98:	4422                	lw	s0,8(sp)
    2a9a:	0141                	addi	sp,sp,16
    2a9c:	8082                	ret
    2a9e:	8082                	ret

00002aa0 <__sfp>:
    2aa0:	1141                	addi	sp,sp,-16
    2aa2:	c226                	sw	s1,4(sp)
    2aa4:	1bc1a483          	lw	s1,444(gp) # e034 <_global_impure_ptr>
    2aa8:	c04a                	sw	s2,0(sp)
    2aaa:	5c9c                	lw	a5,56(s1)
    2aac:	c606                	sw	ra,12(sp)
    2aae:	c422                	sw	s0,8(sp)
    2ab0:	892a                	mv	s2,a0
    2ab2:	e399                	bnez	a5,2ab8 <__sfp+0x18>
    2ab4:	8526                	mv	a0,s1
    2ab6:	3f71                	jal	2a52 <__sinit>
    2ab8:	2e048493          	addi	s1,s1,736
    2abc:	4480                	lw	s0,8(s1)
    2abe:	40dc                	lw	a5,4(s1)
    2ac0:	17fd                	addi	a5,a5,-1
    2ac2:	0007d663          	bgez	a5,2ace <__sfp+0x2e>
    2ac6:	409c                	lw	a5,0(s1)
    2ac8:	cb89                	beqz	a5,2ada <__sfp+0x3a>
    2aca:	4084                	lw	s1,0(s1)
    2acc:	bfc5                	j	2abc <__sfp+0x1c>
    2ace:	00c41703          	lh	a4,12(s0)
    2ad2:	c705                	beqz	a4,2afa <__sfp+0x5a>
    2ad4:	06840413          	addi	s0,s0,104
    2ad8:	b7e5                	j	2ac0 <__sfp+0x20>
    2ada:	4591                	li	a1,4
    2adc:	854a                	mv	a0,s2
    2ade:	371d                	jal	2a04 <__sfmoreglue>
    2ae0:	c088                	sw	a0,0(s1)
    2ae2:	f565                	bnez	a0,2aca <__sfp+0x2a>
    2ae4:	47b1                	li	a5,12
    2ae6:	00f92023          	sw	a5,0(s2)
    2aea:	4401                	li	s0,0
    2aec:	8522                	mv	a0,s0
    2aee:	40b2                	lw	ra,12(sp)
    2af0:	4422                	lw	s0,8(sp)
    2af2:	4492                	lw	s1,4(sp)
    2af4:	4902                	lw	s2,0(sp)
    2af6:	0141                	addi	sp,sp,16
    2af8:	8082                	ret
    2afa:	77c1                	lui	a5,0xffff0
    2afc:	0785                	addi	a5,a5,1
    2afe:	06042223          	sw	zero,100(s0)
    2b02:	00042023          	sw	zero,0(s0)
    2b06:	00042223          	sw	zero,4(s0)
    2b0a:	00042423          	sw	zero,8(s0)
    2b0e:	c45c                	sw	a5,12(s0)
    2b10:	00042823          	sw	zero,16(s0)
    2b14:	00042a23          	sw	zero,20(s0)
    2b18:	00042c23          	sw	zero,24(s0)
    2b1c:	4621                	li	a2,8
    2b1e:	4581                	li	a1,0
    2b20:	05c40513          	addi	a0,s0,92
    2b24:	9acfe0ef          	jal	ra,cd0 <memset>
    2b28:	02042823          	sw	zero,48(s0)
    2b2c:	02042a23          	sw	zero,52(s0)
    2b30:	04042223          	sw	zero,68(s0)
    2b34:	04042423          	sw	zero,72(s0)
    2b38:	bf55                	j	2aec <__sfp+0x4c>

00002b3a <__sfp_lock_acquire>:
    2b3a:	8082                	ret

00002b3c <__sfp_lock_release>:
    2b3c:	8082                	ret

00002b3e <__sinit_lock_acquire>:
    2b3e:	8082                	ret

00002b40 <__sinit_lock_release>:
    2b40:	8082                	ret

00002b42 <__fp_lock_all>:
    2b42:	000035b7          	lui	a1,0x3
    2b46:	1c01a503          	lw	a0,448(gp) # e038 <_impure_ptr>
    2b4a:	98658593          	addi	a1,a1,-1658 # 2986 <__fp_lock>
    2b4e:	a3b1                	j	309a <_fwalk>

00002b50 <__fp_unlock_all>:
    2b50:	000035b7          	lui	a1,0x3
    2b54:	1c01a503          	lw	a0,448(gp) # e038 <_impure_ptr>
    2b58:	a0058593          	addi	a1,a1,-1536 # 2a00 <__fp_unlock>
    2b5c:	ab3d                	j	309a <_fwalk>

00002b5e <_malloc_trim_r>:
    2b5e:	7179                	addi	sp,sp,-48
    2b60:	d04a                	sw	s2,32(sp)
    2b62:	d422                	sw	s0,40(sp)
    2b64:	d226                	sw	s1,36(sp)
    2b66:	ce4e                	sw	s3,28(sp)
    2b68:	c62e                	sw	a1,12(sp)
    2b6a:	d606                	sw	ra,44(sp)
    2b6c:	89aa                	mv	s3,a0
    2b6e:	d9418913          	addi	s2,gp,-620 # dc0c <__malloc_av_>
    2b72:	40a020ef          	jal	ra,4f7c <__malloc_lock>
    2b76:	00892783          	lw	a5,8(s2)
    2b7a:	45b2                	lw	a1,12(sp)
    2b7c:	43c4                	lw	s1,4(a5)
    2b7e:	6785                	lui	a5,0x1
    2b80:	fef78413          	addi	s0,a5,-17 # fef <_vfprintf_r+0xdb>
    2b84:	98f1                	andi	s1,s1,-4
    2b86:	8c0d                	sub	s0,s0,a1
    2b88:	9426                	add	s0,s0,s1
    2b8a:	8031                	srli	s0,s0,0xc
    2b8c:	147d                	addi	s0,s0,-1
    2b8e:	0432                	slli	s0,s0,0xc
    2b90:	00f45d63          	ble	a5,s0,2baa <_malloc_trim_r+0x4c>
    2b94:	854e                	mv	a0,s3
    2b96:	3e8020ef          	jal	ra,4f7e <__malloc_unlock>
    2b9a:	4501                	li	a0,0
    2b9c:	50b2                	lw	ra,44(sp)
    2b9e:	5422                	lw	s0,40(sp)
    2ba0:	5492                	lw	s1,36(sp)
    2ba2:	5902                	lw	s2,32(sp)
    2ba4:	49f2                	lw	s3,28(sp)
    2ba6:	6145                	addi	sp,sp,48
    2ba8:	8082                	ret
    2baa:	4581                	li	a1,0
    2bac:	854e                	mv	a0,s3
    2bae:	0a6030ef          	jal	ra,5c54 <_sbrk_r>
    2bb2:	00892783          	lw	a5,8(s2)
    2bb6:	97a6                	add	a5,a5,s1
    2bb8:	fcf51ee3          	bne	a0,a5,2b94 <_malloc_trim_r+0x36>
    2bbc:	408005b3          	neg	a1,s0
    2bc0:	854e                	mv	a0,s3
    2bc2:	092030ef          	jal	ra,5c54 <_sbrk_r>
    2bc6:	57fd                	li	a5,-1
    2bc8:	02f51663          	bne	a0,a5,2bf4 <_malloc_trim_r+0x96>
    2bcc:	4581                	li	a1,0
    2bce:	854e                	mv	a0,s3
    2bd0:	084030ef          	jal	ra,5c54 <_sbrk_r>
    2bd4:	00892703          	lw	a4,8(s2)
    2bd8:	46bd                	li	a3,15
    2bda:	40e507b3          	sub	a5,a0,a4
    2bde:	faf6dbe3          	ble	a5,a3,2b94 <_malloc_trim_r+0x36>
    2be2:	1c41a683          	lw	a3,452(gp) # e03c <__malloc_sbrk_base>
    2be6:	0017e793          	ori	a5,a5,1
    2bea:	8d15                	sub	a0,a0,a3
    2bec:	1ca1ae23          	sw	a0,476(gp) # e054 <__malloc_current_mallinfo>
    2bf0:	c35c                	sw	a5,4(a4)
    2bf2:	b74d                	j	2b94 <_malloc_trim_r+0x36>
    2bf4:	00892783          	lw	a5,8(s2)
    2bf8:	8c81                	sub	s1,s1,s0
    2bfa:	0014e493          	ori	s1,s1,1
    2bfe:	c3c4                	sw	s1,4(a5)
    2c00:	1dc1a783          	lw	a5,476(gp) # e054 <__malloc_current_mallinfo>
    2c04:	854e                	mv	a0,s3
    2c06:	40878433          	sub	s0,a5,s0
    2c0a:	1c81ae23          	sw	s0,476(gp) # e054 <__malloc_current_mallinfo>
    2c0e:	370020ef          	jal	ra,4f7e <__malloc_unlock>
    2c12:	4505                	li	a0,1
    2c14:	b761                	j	2b9c <_malloc_trim_r+0x3e>

00002c16 <_free_r>:
    2c16:	18058e63          	beqz	a1,2db2 <_free_r+0x19c>
    2c1a:	1141                	addi	sp,sp,-16
    2c1c:	c422                	sw	s0,8(sp)
    2c1e:	c226                	sw	s1,4(sp)
    2c20:	842a                	mv	s0,a0
    2c22:	84ae                	mv	s1,a1
    2c24:	c606                	sw	ra,12(sp)
    2c26:	356020ef          	jal	ra,4f7c <__malloc_lock>
    2c2a:	ffc4a503          	lw	a0,-4(s1)
    2c2e:	ffe57793          	andi	a5,a0,-2
    2c32:	ff848693          	addi	a3,s1,-8
    2c36:	d9418813          	addi	a6,gp,-620 # dc0c <__malloc_av_>
    2c3a:	00f685b3          	add	a1,a3,a5
    2c3e:	41d8                	lw	a4,4(a1)
    2c40:	00882803          	lw	a6,8(a6)
    2c44:	9b71                	andi	a4,a4,-4
    2c46:	d9418613          	addi	a2,gp,-620 # dc0c <__malloc_av_>
    2c4a:	8905                	andi	a0,a0,1
    2c4c:	02b81f63          	bne	a6,a1,2c8a <_free_r+0x74>
    2c50:	97ba                	add	a5,a5,a4
    2c52:	e909                	bnez	a0,2c64 <_free_r+0x4e>
    2c54:	ff84a703          	lw	a4,-8(s1)
    2c58:	8e99                	sub	a3,a3,a4
    2c5a:	468c                	lw	a1,8(a3)
    2c5c:	97ba                	add	a5,a5,a4
    2c5e:	46d8                	lw	a4,12(a3)
    2c60:	c5d8                	sw	a4,12(a1)
    2c62:	c70c                	sw	a1,8(a4)
    2c64:	0017e713          	ori	a4,a5,1
    2c68:	c2d8                	sw	a4,4(a3)
    2c6a:	1c81a703          	lw	a4,456(gp) # e040 <__malloc_trim_threshold>
    2c6e:	c614                	sw	a3,8(a2)
    2c70:	00e7e663          	bltu	a5,a4,2c7c <_free_r+0x66>
    2c74:	1d81a583          	lw	a1,472(gp) # e050 <__malloc_top_pad>
    2c78:	8522                	mv	a0,s0
    2c7a:	35d5                	jal	2b5e <_malloc_trim_r>
    2c7c:	8522                	mv	a0,s0
    2c7e:	4422                	lw	s0,8(sp)
    2c80:	40b2                	lw	ra,12(sp)
    2c82:	4492                	lw	s1,4(sp)
    2c84:	0141                	addi	sp,sp,16
    2c86:	2f80206f          	j	4f7e <__malloc_unlock>
    2c8a:	c1d8                	sw	a4,4(a1)
    2c8c:	4801                	li	a6,0
    2c8e:	e105                	bnez	a0,2cae <_free_r+0x98>
    2c90:	ff84a503          	lw	a0,-8(s1)
    2c94:	8e89                	sub	a3,a3,a0
    2c96:	97aa                	add	a5,a5,a0
    2c98:	4688                	lw	a0,8(a3)
    2c9a:	d9c18893          	addi	a7,gp,-612 # dc14 <__malloc_av_+0x8>
    2c9e:	07150a63          	beq	a0,a7,2d12 <_free_r+0xfc>
    2ca2:	00c6a883          	lw	a7,12(a3)
    2ca6:	01152623          	sw	a7,12(a0)
    2caa:	00a8a423          	sw	a0,8(a7)
    2cae:	00e58533          	add	a0,a1,a4
    2cb2:	4148                	lw	a0,4(a0)
    2cb4:	8905                	andi	a0,a0,1
    2cb6:	ed11                	bnez	a0,2cd2 <_free_r+0xbc>
    2cb8:	97ba                	add	a5,a5,a4
    2cba:	4598                	lw	a4,8(a1)
    2cbc:	04081d63          	bnez	a6,2d16 <_free_r+0x100>
    2cc0:	d9c18513          	addi	a0,gp,-612 # dc14 <__malloc_av_+0x8>
    2cc4:	04a71963          	bne	a4,a0,2d16 <_free_r+0x100>
    2cc8:	ca54                	sw	a3,20(a2)
    2cca:	ca14                	sw	a3,16(a2)
    2ccc:	c6d8                	sw	a4,12(a3)
    2cce:	c698                	sw	a4,8(a3)
    2cd0:	4805                	li	a6,1
    2cd2:	0017e713          	ori	a4,a5,1
    2cd6:	c2d8                	sw	a4,4(a3)
    2cd8:	00f68733          	add	a4,a3,a5
    2cdc:	c31c                	sw	a5,0(a4)
    2cde:	f8081fe3          	bnez	a6,2c7c <_free_r+0x66>
    2ce2:	1ff00713          	li	a4,511
    2ce6:	02f76c63          	bltu	a4,a5,2d1e <_free_r+0x108>
    2cea:	838d                	srli	a5,a5,0x3
    2cec:	4027d593          	srai	a1,a5,0x2
    2cf0:	4705                	li	a4,1
    2cf2:	00b71733          	sll	a4,a4,a1
    2cf6:	0785                	addi	a5,a5,1
    2cf8:	424c                	lw	a1,4(a2)
    2cfa:	078e                	slli	a5,a5,0x3
    2cfc:	97b2                	add	a5,a5,a2
    2cfe:	8f4d                	or	a4,a4,a1
    2d00:	c258                	sw	a4,4(a2)
    2d02:	4398                	lw	a4,0(a5)
    2d04:	ff878613          	addi	a2,a5,-8
    2d08:	c6d0                	sw	a2,12(a3)
    2d0a:	c698                	sw	a4,8(a3)
    2d0c:	c394                	sw	a3,0(a5)
    2d0e:	c754                	sw	a3,12(a4)
    2d10:	b7b5                	j	2c7c <_free_r+0x66>
    2d12:	4805                	li	a6,1
    2d14:	bf69                	j	2cae <_free_r+0x98>
    2d16:	45cc                	lw	a1,12(a1)
    2d18:	c74c                	sw	a1,12(a4)
    2d1a:	c598                	sw	a4,8(a1)
    2d1c:	bf5d                	j	2cd2 <_free_r+0xbc>
    2d1e:	0097d593          	srli	a1,a5,0x9
    2d22:	4711                	li	a4,4
    2d24:	02b76b63          	bltu	a4,a1,2d5a <_free_r+0x144>
    2d28:	0067d713          	srli	a4,a5,0x6
    2d2c:	03870713          	addi	a4,a4,56 # 20400038 <__heap_end+0x20000038>
    2d30:	00170593          	addi	a1,a4,1
    2d34:	058e                	slli	a1,a1,0x3
    2d36:	95b2                	add	a1,a1,a2
    2d38:	ff858513          	addi	a0,a1,-8
    2d3c:	418c                	lw	a1,0(a1)
    2d3e:	06b51463          	bne	a0,a1,2da6 <_free_r+0x190>
    2d42:	4785                	li	a5,1
    2d44:	8709                	srai	a4,a4,0x2
    2d46:	00e79733          	sll	a4,a5,a4
    2d4a:	425c                	lw	a5,4(a2)
    2d4c:	8f5d                	or	a4,a4,a5
    2d4e:	c258                	sw	a4,4(a2)
    2d50:	c6c8                	sw	a0,12(a3)
    2d52:	c68c                	sw	a1,8(a3)
    2d54:	c514                	sw	a3,8(a0)
    2d56:	c5d4                	sw	a3,12(a1)
    2d58:	b715                	j	2c7c <_free_r+0x66>
    2d5a:	4751                	li	a4,20
    2d5c:	00b76563          	bltu	a4,a1,2d66 <_free_r+0x150>
    2d60:	05b58713          	addi	a4,a1,91
    2d64:	b7f1                	j	2d30 <_free_r+0x11a>
    2d66:	05400713          	li	a4,84
    2d6a:	00b76763          	bltu	a4,a1,2d78 <_free_r+0x162>
    2d6e:	00c7d713          	srli	a4,a5,0xc
    2d72:	06e70713          	addi	a4,a4,110
    2d76:	bf6d                	j	2d30 <_free_r+0x11a>
    2d78:	15400713          	li	a4,340
    2d7c:	00b76763          	bltu	a4,a1,2d8a <_free_r+0x174>
    2d80:	00f7d713          	srli	a4,a5,0xf
    2d84:	07770713          	addi	a4,a4,119
    2d88:	b765                	j	2d30 <_free_r+0x11a>
    2d8a:	55400513          	li	a0,1364
    2d8e:	07e00713          	li	a4,126
    2d92:	f8b56fe3          	bltu	a0,a1,2d30 <_free_r+0x11a>
    2d96:	0127d713          	srli	a4,a5,0x12
    2d9a:	07c70713          	addi	a4,a4,124
    2d9e:	bf49                	j	2d30 <_free_r+0x11a>
    2da0:	458c                	lw	a1,8(a1)
    2da2:	00b50663          	beq	a0,a1,2dae <_free_r+0x198>
    2da6:	41d8                	lw	a4,4(a1)
    2da8:	9b71                	andi	a4,a4,-4
    2daa:	fee7ebe3          	bltu	a5,a4,2da0 <_free_r+0x18a>
    2dae:	45c8                	lw	a0,12(a1)
    2db0:	b745                	j	2d50 <_free_r+0x13a>
    2db2:	8082                	ret

00002db4 <__sfvwrite_r>:
    2db4:	461c                	lw	a5,8(a2)
    2db6:	e781                	bnez	a5,2dbe <__sfvwrite_r+0xa>
    2db8:	4781                	li	a5,0
    2dba:	853e                	mv	a0,a5
    2dbc:	8082                	ret
    2dbe:	00c5d783          	lhu	a5,12(a1)
    2dc2:	715d                	addi	sp,sp,-80
    2dc4:	c4a2                	sw	s0,72(sp)
    2dc6:	c0ca                	sw	s2,64(sp)
    2dc8:	da56                	sw	s5,52(sp)
    2dca:	c686                	sw	ra,76(sp)
    2dcc:	c2a6                	sw	s1,68(sp)
    2dce:	de4e                	sw	s3,60(sp)
    2dd0:	dc52                	sw	s4,56(sp)
    2dd2:	d85a                	sw	s6,48(sp)
    2dd4:	d65e                	sw	s7,44(sp)
    2dd6:	d462                	sw	s8,40(sp)
    2dd8:	d266                	sw	s9,36(sp)
    2dda:	d06a                	sw	s10,32(sp)
    2ddc:	ce6e                	sw	s11,28(sp)
    2dde:	8ba1                	andi	a5,a5,8
    2de0:	8ab2                	mv	s5,a2
    2de2:	842e                	mv	s0,a1
    2de4:	892a                	mv	s2,a0
    2de6:	cfd9                	beqz	a5,2e84 <__sfvwrite_r+0xd0>
    2de8:	499c                	lw	a5,16(a1)
    2dea:	cfc9                	beqz	a5,2e84 <__sfvwrite_r+0xd0>
    2dec:	00c45783          	lhu	a5,12(s0)
    2df0:	000aaa03          	lw	s4,0(s5)
    2df4:	0027f713          	andi	a4,a5,2
    2df8:	0e071863          	bnez	a4,2ee8 <__sfvwrite_r+0x134>
    2dfc:	8b85                	andi	a5,a5,1
    2dfe:	16078163          	beqz	a5,2f60 <__sfvwrite_r+0x1ac>
    2e02:	4b81                	li	s7,0
    2e04:	4501                	li	a0,0
    2e06:	4b01                	li	s6,0
    2e08:	4981                	li	s3,0
    2e0a:	24098963          	beqz	s3,305c <__sfvwrite_r+0x2a8>
    2e0e:	ed01                	bnez	a0,2e26 <__sfvwrite_r+0x72>
    2e10:	864e                	mv	a2,s3
    2e12:	45a9                	li	a1,10
    2e14:	855a                	mv	a0,s6
    2e16:	050020ef          	jal	ra,4e66 <memchr>
    2e1a:	00198b93          	addi	s7,s3,1
    2e1e:	c501                	beqz	a0,2e26 <__sfvwrite_r+0x72>
    2e20:	0505                	addi	a0,a0,1
    2e22:	41650bb3          	sub	s7,a0,s6
    2e26:	8c5e                	mv	s8,s7
    2e28:	0179f363          	bleu	s7,s3,2e2e <__sfvwrite_r+0x7a>
    2e2c:	8c4e                	mv	s8,s3
    2e2e:	4008                	lw	a0,0(s0)
    2e30:	481c                	lw	a5,16(s0)
    2e32:	4854                	lw	a3,20(s0)
    2e34:	22a7fb63          	bleu	a0,a5,306a <__sfvwrite_r+0x2b6>
    2e38:	4404                	lw	s1,8(s0)
    2e3a:	94b6                	add	s1,s1,a3
    2e3c:	2384d763          	ble	s8,s1,306a <__sfvwrite_r+0x2b6>
    2e40:	85da                	mv	a1,s6
    2e42:	8626                	mv	a2,s1
    2e44:	0fa020ef          	jal	ra,4f3e <memmove>
    2e48:	401c                	lw	a5,0(s0)
    2e4a:	85a2                	mv	a1,s0
    2e4c:	97a6                	add	a5,a5,s1
    2e4e:	c01c                	sw	a5,0(s0)
    2e50:	854a                	mv	a0,s2
    2e52:	aedff0ef          	jal	ra,293e <_fflush_r>
    2e56:	0e051d63          	bnez	a0,2f50 <__sfvwrite_r+0x19c>
    2e5a:	409b8bb3          	sub	s7,s7,s1
    2e5e:	4505                	li	a0,1
    2e60:	000b9763          	bnez	s7,2e6e <__sfvwrite_r+0xba>
    2e64:	85a2                	mv	a1,s0
    2e66:	854a                	mv	a0,s2
    2e68:	ad7ff0ef          	jal	ra,293e <_fflush_r>
    2e6c:	e175                	bnez	a0,2f50 <__sfvwrite_r+0x19c>
    2e6e:	008aa783          	lw	a5,8(s5)
    2e72:	9b26                	add	s6,s6,s1
    2e74:	409989b3          	sub	s3,s3,s1
    2e78:	409784b3          	sub	s1,a5,s1
    2e7c:	009aa423          	sw	s1,8(s5)
    2e80:	f4c9                	bnez	s1,2e0a <__sfvwrite_r+0x56>
    2e82:	a091                	j	2ec6 <__sfvwrite_r+0x112>
    2e84:	85a2                	mv	a1,s0
    2e86:	854a                	mv	a0,s2
    2e88:	f7cff0ef          	jal	ra,2604 <__swsetup_r>
    2e8c:	57fd                	li	a5,-1
    2e8e:	dd39                	beqz	a0,2dec <__sfvwrite_r+0x38>
    2e90:	a825                	j	2ec8 <__sfvwrite_r+0x114>
    2e92:	000a2983          	lw	s3,0(s4)
    2e96:	004a2483          	lw	s1,4(s4)
    2e9a:	0a21                	addi	s4,s4,8
    2e9c:	d8fd                	beqz	s1,2e92 <__sfvwrite_r+0xde>
    2e9e:	86a6                	mv	a3,s1
    2ea0:	009b7363          	bleu	s1,s6,2ea6 <__sfvwrite_r+0xf2>
    2ea4:	86da                	mv	a3,s6
    2ea6:	505c                	lw	a5,36(s0)
    2ea8:	4c4c                	lw	a1,28(s0)
    2eaa:	864e                	mv	a2,s3
    2eac:	854a                	mv	a0,s2
    2eae:	9782                	jalr	a5
    2eb0:	0aa05063          	blez	a0,2f50 <__sfvwrite_r+0x19c>
    2eb4:	008aa783          	lw	a5,8(s5)
    2eb8:	99aa                	add	s3,s3,a0
    2eba:	8c89                	sub	s1,s1,a0
    2ebc:	40a78533          	sub	a0,a5,a0
    2ec0:	00aaa423          	sw	a0,8(s5)
    2ec4:	fd61                	bnez	a0,2e9c <__sfvwrite_r+0xe8>
    2ec6:	4781                	li	a5,0
    2ec8:	40b6                	lw	ra,76(sp)
    2eca:	4426                	lw	s0,72(sp)
    2ecc:	4496                	lw	s1,68(sp)
    2ece:	4906                	lw	s2,64(sp)
    2ed0:	59f2                	lw	s3,60(sp)
    2ed2:	5a62                	lw	s4,56(sp)
    2ed4:	5ad2                	lw	s5,52(sp)
    2ed6:	5b42                	lw	s6,48(sp)
    2ed8:	5bb2                	lw	s7,44(sp)
    2eda:	5c22                	lw	s8,40(sp)
    2edc:	5c92                	lw	s9,36(sp)
    2ede:	5d02                	lw	s10,32(sp)
    2ee0:	4df2                	lw	s11,28(sp)
    2ee2:	853e                	mv	a0,a5
    2ee4:	6161                	addi	sp,sp,80
    2ee6:	8082                	ret
    2ee8:	80000b37          	lui	s6,0x80000
    2eec:	4981                	li	s3,0
    2eee:	4481                	li	s1,0
    2ef0:	c00b4b13          	xori	s6,s6,-1024
    2ef4:	b765                	j	2e9c <__sfvwrite_r+0xe8>
    2ef6:	000a2b03          	lw	s6,0(s4)
    2efa:	004a2483          	lw	s1,4(s4)
    2efe:	0a21                	addi	s4,s4,8
    2f00:	d8fd                	beqz	s1,2ef6 <__sfvwrite_r+0x142>
    2f02:	00c45703          	lhu	a4,12(s0)
    2f06:	441c                	lw	a5,8(s0)
    2f08:	20077693          	andi	a3,a4,512
    2f0c:	4008                	lw	a0,0(s0)
    2f0e:	0e068a63          	beqz	a3,3002 <__sfvwrite_r+0x24e>
    2f12:	08f4ea63          	bltu	s1,a5,2fa6 <__sfvwrite_r+0x1f2>
    2f16:	48077693          	andi	a3,a4,1152
    2f1a:	c6d1                	beqz	a3,2fa6 <__sfvwrite_r+0x1f2>
    2f1c:	01442d83          	lw	s11,20(s0)
    2f20:	480c                	lw	a1,16(s0)
    2f22:	03bc8db3          	mul	s11,s9,s11
    2f26:	40b509b3          	sub	s3,a0,a1
    2f2a:	03adcdb3          	div	s11,s11,s10
    2f2e:	00198793          	addi	a5,s3,1
    2f32:	97a6                	add	a5,a5,s1
    2f34:	00fdf363          	bleu	a5,s11,2f3a <__sfvwrite_r+0x186>
    2f38:	8dbe                	mv	s11,a5
    2f3a:	40077713          	andi	a4,a4,1024
    2f3e:	c34d                	beqz	a4,2fe0 <__sfvwrite_r+0x22c>
    2f40:	85ee                	mv	a1,s11
    2f42:	854a                	mv	a0,s2
    2f44:	247010ef          	jal	ra,498a <_malloc_r>
    2f48:	e51d                	bnez	a0,2f76 <__sfvwrite_r+0x1c2>
    2f4a:	47b1                	li	a5,12
    2f4c:	00f92023          	sw	a5,0(s2)
    2f50:	00c45783          	lhu	a5,12(s0)
    2f54:	0407e793          	ori	a5,a5,64
    2f58:	00f41623          	sh	a5,12(s0)
    2f5c:	57fd                	li	a5,-1
    2f5e:	b7ad                	j	2ec8 <__sfvwrite_r+0x114>
    2f60:	80000bb7          	lui	s7,0x80000
    2f64:	ffebcc13          	xori	s8,s7,-2
    2f68:	4b01                	li	s6,0
    2f6a:	4481                	li	s1,0
    2f6c:	fffbcb93          	not	s7,s7
    2f70:	4c8d                	li	s9,3
    2f72:	4d09                	li	s10,2
    2f74:	b771                	j	2f00 <__sfvwrite_r+0x14c>
    2f76:	480c                	lw	a1,16(s0)
    2f78:	864e                	mv	a2,s3
    2f7a:	c62a                	sw	a0,12(sp)
    2f7c:	705010ef          	jal	ra,4e80 <memcpy>
    2f80:	00c45703          	lhu	a4,12(s0)
    2f84:	47b2                	lw	a5,12(sp)
    2f86:	b7f77713          	andi	a4,a4,-1153
    2f8a:	08076713          	ori	a4,a4,128
    2f8e:	00e41623          	sh	a4,12(s0)
    2f92:	c81c                	sw	a5,16(s0)
    2f94:	01b42a23          	sw	s11,20(s0)
    2f98:	97ce                	add	a5,a5,s3
    2f9a:	413d8db3          	sub	s11,s11,s3
    2f9e:	c01c                	sw	a5,0(s0)
    2fa0:	01b42423          	sw	s11,8(s0)
    2fa4:	87a6                	mv	a5,s1
    2fa6:	89a6                	mv	s3,s1
    2fa8:	00f4f363          	bleu	a5,s1,2fae <__sfvwrite_r+0x1fa>
    2fac:	87a6                	mv	a5,s1
    2fae:	4008                	lw	a0,0(s0)
    2fb0:	863e                	mv	a2,a5
    2fb2:	85da                	mv	a1,s6
    2fb4:	c63e                	sw	a5,12(sp)
    2fb6:	789010ef          	jal	ra,4f3e <memmove>
    2fba:	47b2                	lw	a5,12(sp)
    2fbc:	4418                	lw	a4,8(s0)
    2fbe:	8f1d                	sub	a4,a4,a5
    2fc0:	c418                	sw	a4,8(s0)
    2fc2:	4018                	lw	a4,0(s0)
    2fc4:	97ba                	add	a5,a5,a4
    2fc6:	c01c                	sw	a5,0(s0)
    2fc8:	008aa783          	lw	a5,8(s5)
    2fcc:	9b4e                	add	s6,s6,s3
    2fce:	413484b3          	sub	s1,s1,s3
    2fd2:	413789b3          	sub	s3,a5,s3
    2fd6:	013aa423          	sw	s3,8(s5)
    2fda:	f20993e3          	bnez	s3,2f00 <__sfvwrite_r+0x14c>
    2fde:	b5e5                	j	2ec6 <__sfvwrite_r+0x112>
    2fe0:	866e                	mv	a2,s11
    2fe2:	854a                	mv	a0,s2
    2fe4:	0d5020ef          	jal	ra,58b8 <_realloc_r>
    2fe8:	87aa                	mv	a5,a0
    2fea:	f545                	bnez	a0,2f92 <__sfvwrite_r+0x1de>
    2fec:	480c                	lw	a1,16(s0)
    2fee:	854a                	mv	a0,s2
    2ff0:	c27ff0ef          	jal	ra,2c16 <_free_r>
    2ff4:	00c45783          	lhu	a5,12(s0)
    2ff8:	f7f7f793          	andi	a5,a5,-129
    2ffc:	00f41623          	sh	a5,12(s0)
    3000:	b7a9                	j	2f4a <__sfvwrite_r+0x196>
    3002:	4818                	lw	a4,16(s0)
    3004:	00a76563          	bltu	a4,a0,300e <__sfvwrite_r+0x25a>
    3008:	4854                	lw	a3,20(s0)
    300a:	02d4f863          	bleu	a3,s1,303a <__sfvwrite_r+0x286>
    300e:	89be                	mv	s3,a5
    3010:	00f4f363          	bleu	a5,s1,3016 <__sfvwrite_r+0x262>
    3014:	89a6                	mv	s3,s1
    3016:	864e                	mv	a2,s3
    3018:	85da                	mv	a1,s6
    301a:	725010ef          	jal	ra,4f3e <memmove>
    301e:	441c                	lw	a5,8(s0)
    3020:	4018                	lw	a4,0(s0)
    3022:	413787b3          	sub	a5,a5,s3
    3026:	974e                	add	a4,a4,s3
    3028:	c41c                	sw	a5,8(s0)
    302a:	c018                	sw	a4,0(s0)
    302c:	ffd1                	bnez	a5,2fc8 <__sfvwrite_r+0x214>
    302e:	85a2                	mv	a1,s0
    3030:	854a                	mv	a0,s2
    3032:	90dff0ef          	jal	ra,293e <_fflush_r>
    3036:	d949                	beqz	a0,2fc8 <__sfvwrite_r+0x214>
    3038:	bf21                	j	2f50 <__sfvwrite_r+0x19c>
    303a:	87de                	mv	a5,s7
    303c:	009c6363          	bltu	s8,s1,3042 <__sfvwrite_r+0x28e>
    3040:	87a6                	mv	a5,s1
    3042:	02d7c7b3          	div	a5,a5,a3
    3046:	5058                	lw	a4,36(s0)
    3048:	4c4c                	lw	a1,28(s0)
    304a:	02d786b3          	mul	a3,a5,a3
    304e:	865a                	mv	a2,s6
    3050:	854a                	mv	a0,s2
    3052:	9702                	jalr	a4
    3054:	89aa                	mv	s3,a0
    3056:	f6a049e3          	bgtz	a0,2fc8 <__sfvwrite_r+0x214>
    305a:	bddd                	j	2f50 <__sfvwrite_r+0x19c>
    305c:	000a2b03          	lw	s6,0(s4)
    3060:	004a2983          	lw	s3,4(s4)
    3064:	4501                	li	a0,0
    3066:	0a21                	addi	s4,s4,8
    3068:	b34d                	j	2e0a <__sfvwrite_r+0x56>
    306a:	00dc4b63          	blt	s8,a3,3080 <__sfvwrite_r+0x2cc>
    306e:	505c                	lw	a5,36(s0)
    3070:	4c4c                	lw	a1,28(s0)
    3072:	865a                	mv	a2,s6
    3074:	854a                	mv	a0,s2
    3076:	9782                	jalr	a5
    3078:	84aa                	mv	s1,a0
    307a:	dea040e3          	bgtz	a0,2e5a <__sfvwrite_r+0xa6>
    307e:	bdc9                	j	2f50 <__sfvwrite_r+0x19c>
    3080:	8662                	mv	a2,s8
    3082:	85da                	mv	a1,s6
    3084:	6bb010ef          	jal	ra,4f3e <memmove>
    3088:	441c                	lw	a5,8(s0)
    308a:	84e2                	mv	s1,s8
    308c:	418787b3          	sub	a5,a5,s8
    3090:	c41c                	sw	a5,8(s0)
    3092:	401c                	lw	a5,0(s0)
    3094:	97e2                	add	a5,a5,s8
    3096:	c01c                	sw	a5,0(s0)
    3098:	b3c9                	j	2e5a <__sfvwrite_r+0xa6>

0000309a <_fwalk>:
    309a:	7179                	addi	sp,sp,-48
    309c:	d422                	sw	s0,40(sp)
    309e:	d04a                	sw	s2,32(sp)
    30a0:	cc52                	sw	s4,24(sp)
    30a2:	ca56                	sw	s5,20(sp)
    30a4:	d606                	sw	ra,44(sp)
    30a6:	d226                	sw	s1,36(sp)
    30a8:	ce4e                	sw	s3,28(sp)
    30aa:	2e050413          	addi	s0,a0,736
    30ae:	4901                	li	s2,0
    30b0:	4a05                	li	s4,1
    30b2:	5afd                	li	s5,-1
    30b4:	e819                	bnez	s0,30ca <_fwalk+0x30>
    30b6:	50b2                	lw	ra,44(sp)
    30b8:	5422                	lw	s0,40(sp)
    30ba:	854a                	mv	a0,s2
    30bc:	5492                	lw	s1,36(sp)
    30be:	5902                	lw	s2,32(sp)
    30c0:	49f2                	lw	s3,28(sp)
    30c2:	4a62                	lw	s4,24(sp)
    30c4:	4ad2                	lw	s5,20(sp)
    30c6:	6145                	addi	sp,sp,48
    30c8:	8082                	ret
    30ca:	4404                	lw	s1,8(s0)
    30cc:	00442983          	lw	s3,4(s0)
    30d0:	19fd                	addi	s3,s3,-1
    30d2:	0009d463          	bgez	s3,30da <_fwalk+0x40>
    30d6:	4000                	lw	s0,0(s0)
    30d8:	bff1                	j	30b4 <_fwalk+0x1a>
    30da:	00c4d783          	lhu	a5,12(s1)
    30de:	00fa7c63          	bleu	a5,s4,30f6 <_fwalk+0x5c>
    30e2:	00e49783          	lh	a5,14(s1)
    30e6:	01578863          	beq	a5,s5,30f6 <_fwalk+0x5c>
    30ea:	c62e                	sw	a1,12(sp)
    30ec:	8526                	mv	a0,s1
    30ee:	9582                	jalr	a1
    30f0:	45b2                	lw	a1,12(sp)
    30f2:	00a96933          	or	s2,s2,a0
    30f6:	06848493          	addi	s1,s1,104
    30fa:	bfd9                	j	30d0 <_fwalk+0x36>

000030fc <_fwalk_reent>:
    30fc:	7179                	addi	sp,sp,-48
    30fe:	d422                	sw	s0,40(sp)
    3100:	d04a                	sw	s2,32(sp)
    3102:	cc52                	sw	s4,24(sp)
    3104:	ca56                	sw	s5,20(sp)
    3106:	c85a                	sw	s6,16(sp)
    3108:	c65e                	sw	s7,12(sp)
    310a:	d606                	sw	ra,44(sp)
    310c:	d226                	sw	s1,36(sp)
    310e:	ce4e                	sw	s3,28(sp)
    3110:	8a2a                	mv	s4,a0
    3112:	8aae                	mv	s5,a1
    3114:	2e050413          	addi	s0,a0,736
    3118:	4901                	li	s2,0
    311a:	4b05                	li	s6,1
    311c:	5bfd                	li	s7,-1
    311e:	ec09                	bnez	s0,3138 <_fwalk_reent+0x3c>
    3120:	50b2                	lw	ra,44(sp)
    3122:	5422                	lw	s0,40(sp)
    3124:	854a                	mv	a0,s2
    3126:	5492                	lw	s1,36(sp)
    3128:	5902                	lw	s2,32(sp)
    312a:	49f2                	lw	s3,28(sp)
    312c:	4a62                	lw	s4,24(sp)
    312e:	4ad2                	lw	s5,20(sp)
    3130:	4b42                	lw	s6,16(sp)
    3132:	4bb2                	lw	s7,12(sp)
    3134:	6145                	addi	sp,sp,48
    3136:	8082                	ret
    3138:	4404                	lw	s1,8(s0)
    313a:	00442983          	lw	s3,4(s0)
    313e:	19fd                	addi	s3,s3,-1
    3140:	0009d463          	bgez	s3,3148 <_fwalk_reent+0x4c>
    3144:	4000                	lw	s0,0(s0)
    3146:	bfe1                	j	311e <_fwalk_reent+0x22>
    3148:	00c4d783          	lhu	a5,12(s1)
    314c:	00fb7b63          	bleu	a5,s6,3162 <_fwalk_reent+0x66>
    3150:	00e49783          	lh	a5,14(s1)
    3154:	01778763          	beq	a5,s7,3162 <_fwalk_reent+0x66>
    3158:	85a6                	mv	a1,s1
    315a:	8552                	mv	a0,s4
    315c:	9a82                	jalr	s5
    315e:	00a96933          	or	s2,s2,a0
    3162:	06848493          	addi	s1,s1,104
    3166:	bfe1                	j	313e <_fwalk_reent+0x42>

00003168 <eclear>:
    3168:	01450793          	addi	a5,a0,20
    316c:	0509                	addi	a0,a0,2
    316e:	fe051f23          	sh	zero,-2(a0)
    3172:	fef51de3          	bne	a0,a5,316c <eclear+0x4>
    3176:	8082                	ret

00003178 <emov>:
    3178:	01450793          	addi	a5,a0,20
    317c:	0509                	addi	a0,a0,2
    317e:	ffe55703          	lhu	a4,-2(a0)
    3182:	0589                	addi	a1,a1,2
    3184:	fee59f23          	sh	a4,-2(a1)
    3188:	fea79ae3          	bne	a5,a0,317c <emov+0x4>
    318c:	8082                	ret

0000318e <ecleaz>:
    318e:	01a50793          	addi	a5,a0,26
    3192:	0509                	addi	a0,a0,2
    3194:	fe051f23          	sh	zero,-2(a0)
    3198:	fef51de3          	bne	a0,a5,3192 <ecleaz+0x4>
    319c:	8082                	ret

0000319e <emovz>:
    319e:	01850713          	addi	a4,a0,24
    31a2:	87ae                	mv	a5,a1
    31a4:	0509                	addi	a0,a0,2
    31a6:	ffe55683          	lhu	a3,-2(a0)
    31aa:	0789                	addi	a5,a5,2
    31ac:	fed79f23          	sh	a3,-2(a5)
    31b0:	fea71ae3          	bne	a4,a0,31a4 <emovz+0x6>
    31b4:	00059c23          	sh	zero,24(a1)
    31b8:	8082                	ret

000031ba <ecmpm>:
    31ba:	00450793          	addi	a5,a0,4
    31be:	0591                	addi	a1,a1,4
    31c0:	0569                	addi	a0,a0,26
    31c2:	0789                	addi	a5,a5,2
    31c4:	0589                	addi	a1,a1,2
    31c6:	ffe7d683          	lhu	a3,-2(a5)
    31ca:	ffe5d703          	lhu	a4,-2(a1)
    31ce:	00e69663          	bne	a3,a4,31da <ecmpm+0x20>
    31d2:	fef518e3          	bne	a0,a5,31c2 <ecmpm+0x8>
    31d6:	4501                	li	a0,0
    31d8:	8082                	ret
    31da:	4505                	li	a0,1
    31dc:	00d76363          	bltu	a4,a3,31e2 <ecmpm+0x28>
    31e0:	557d                	li	a0,-1
    31e2:	8082                	ret

000031e4 <eshdn1>:
    31e4:	00450693          	addi	a3,a0,4
    31e8:	4781                	li	a5,0
    31ea:	0569                	addi	a0,a0,26
    31ec:	7661                	lui	a2,0xffff8
    31ee:	0006d703          	lhu	a4,0(a3)
    31f2:	00177593          	andi	a1,a4,1
    31f6:	c199                	beqz	a1,31fc <eshdn1+0x18>
    31f8:	0017e793          	ori	a5,a5,1
    31fc:	0027f593          	andi	a1,a5,2
    3200:	8305                	srli	a4,a4,0x1
    3202:	e991                	bnez	a1,3216 <eshdn1+0x32>
    3204:	0786                	slli	a5,a5,0x1
    3206:	00e69023          	sh	a4,0(a3)
    320a:	07c2                	slli	a5,a5,0x10
    320c:	0689                	addi	a3,a3,2
    320e:	83c1                	srli	a5,a5,0x10
    3210:	fcd51fe3          	bne	a0,a3,31ee <eshdn1+0xa>
    3214:	8082                	ret
    3216:	8f51                	or	a4,a4,a2
    3218:	b7f5                	j	3204 <eshdn1+0x20>

0000321a <eshup1>:
    321a:	01650693          	addi	a3,a0,22
    321e:	4701                	li	a4,0
    3220:	0026d783          	lhu	a5,2(a3)
    3224:	01079613          	slli	a2,a5,0x10
    3228:	8641                	srai	a2,a2,0x10
    322a:	00065463          	bgez	a2,3232 <eshup1+0x18>
    322e:	00176713          	ori	a4,a4,1
    3232:	0786                	slli	a5,a5,0x1
    3234:	07c2                	slli	a5,a5,0x10
    3236:	00277613          	andi	a2,a4,2
    323a:	83c1                	srli	a5,a5,0x10
    323c:	ea11                	bnez	a2,3250 <eshup1+0x36>
    323e:	0706                	slli	a4,a4,0x1
    3240:	00f69123          	sh	a5,2(a3)
    3244:	0742                	slli	a4,a4,0x10
    3246:	16f9                	addi	a3,a3,-2
    3248:	8341                	srli	a4,a4,0x10
    324a:	fcd51be3          	bne	a0,a3,3220 <eshup1+0x6>
    324e:	8082                	ret
    3250:	0017e793          	ori	a5,a5,1
    3254:	b7ed                	j	323e <eshup1+0x24>

00003256 <eshdn8>:
    3256:	00450793          	addi	a5,a0,4
    325a:	4701                	li	a4,0
    325c:	0569                	addi	a0,a0,26
    325e:	0007d683          	lhu	a3,0(a5)
    3262:	0789                	addi	a5,a5,2
    3264:	0086d613          	srli	a2,a3,0x8
    3268:	8f51                	or	a4,a4,a2
    326a:	fee79f23          	sh	a4,-2(a5)
    326e:	00869713          	slli	a4,a3,0x8
    3272:	0742                	slli	a4,a4,0x10
    3274:	8341                	srli	a4,a4,0x10
    3276:	fef514e3          	bne	a0,a5,325e <eshdn8+0x8>
    327a:	8082                	ret

0000327c <eshup8>:
    327c:	01650793          	addi	a5,a0,22
    3280:	4701                	li	a4,0
    3282:	0027d683          	lhu	a3,2(a5)
    3286:	17f9                	addi	a5,a5,-2
    3288:	00869613          	slli	a2,a3,0x8
    328c:	8f51                	or	a4,a4,a2
    328e:	00e79223          	sh	a4,4(a5)
    3292:	0086d713          	srli	a4,a3,0x8
    3296:	fef516e3          	bne	a0,a5,3282 <eshup8+0x6>
    329a:	8082                	ret

0000329c <eshup6>:
    329c:	00450793          	addi	a5,a0,4
    32a0:	01850713          	addi	a4,a0,24
    32a4:	0789                	addi	a5,a5,2
    32a6:	0007d683          	lhu	a3,0(a5)
    32aa:	fed79f23          	sh	a3,-2(a5)
    32ae:	fef71be3          	bne	a4,a5,32a4 <eshup6+0x8>
    32b2:	00051c23          	sh	zero,24(a0)
    32b6:	8082                	ret

000032b8 <eshdn6>:
    32b8:	01850793          	addi	a5,a0,24
    32bc:	01a50713          	addi	a4,a0,26
    32c0:	00450693          	addi	a3,a0,4
    32c4:	17f9                	addi	a5,a5,-2
    32c6:	0007d603          	lhu	a2,0(a5)
    32ca:	1779                	addi	a4,a4,-2
    32cc:	00c71023          	sh	a2,0(a4)
    32d0:	fef69ae3          	bne	a3,a5,32c4 <eshdn6+0xc>
    32d4:	00051223          	sh	zero,4(a0)
    32d8:	8082                	ret

000032da <eaddm>:
    32da:	05e1                	addi	a1,a1,24
    32dc:	01650713          	addi	a4,a0,22
    32e0:	4681                	li	a3,0
    32e2:	00275783          	lhu	a5,2(a4)
    32e6:	0005d603          	lhu	a2,0(a1)
    32ea:	1779                	addi	a4,a4,-2
    32ec:	97b2                	add	a5,a5,a2
    32ee:	97b6                	add	a5,a5,a3
    32f0:	86be                	mv	a3,a5
    32f2:	00d59023          	sh	a3,0(a1)
    32f6:	83c1                	srli	a5,a5,0x10
    32f8:	15f9                	addi	a1,a1,-2
    32fa:	0017f693          	andi	a3,a5,1
    32fe:	fee512e3          	bne	a0,a4,32e2 <eaddm+0x8>
    3302:	8082                	ret

00003304 <esubm>:
    3304:	05e1                	addi	a1,a1,24
    3306:	01650713          	addi	a4,a0,22
    330a:	4681                	li	a3,0
    330c:	0005d783          	lhu	a5,0(a1)
    3310:	00275603          	lhu	a2,2(a4)
    3314:	1779                	addi	a4,a4,-2
    3316:	8f91                	sub	a5,a5,a2
    3318:	8f95                	sub	a5,a5,a3
    331a:	86be                	mv	a3,a5
    331c:	00d59023          	sh	a3,0(a1)
    3320:	83c1                	srli	a5,a5,0x10
    3322:	15f9                	addi	a1,a1,-2
    3324:	0017f693          	andi	a3,a5,1
    3328:	fee512e3          	bne	a0,a4,330c <esubm+0x8>
    332c:	8082                	ret

0000332e <m16m>:
    332e:	1101                	addi	sp,sp,-32
    3330:	6341                	lui	t1,0x10
    3332:	01858893          	addi	a7,a1,24
    3336:	00012d23          	sw	zero,26(sp)
    333a:	0591                	addi	a1,a1,4
    333c:	0874                	addi	a3,sp,28
    333e:	137d                	addi	t1,t1,-1
    3340:	0008d703          	lhu	a4,0(a7)
    3344:	16f9                	addi	a3,a3,-2
    3346:	18f9                	addi	a7,a7,-2
    3348:	e70d                	bnez	a4,3372 <m16m+0x44>
    334a:	fe069f23          	sh	zero,-2(a3)
    334e:	ff1599e3          	bne	a1,a7,3340 <m16m+0x12>
    3352:	4791                	li	a5,4
    3354:	4769                	li	a4,26
    3356:	0048                	addi	a0,sp,4
    3358:	00f505b3          	add	a1,a0,a5
    335c:	0005d583          	lhu	a1,0(a1)
    3360:	00f606b3          	add	a3,a2,a5
    3364:	00b69023          	sh	a1,0(a3)
    3368:	0789                	addi	a5,a5,2
    336a:	fee796e3          	bne	a5,a4,3356 <m16m+0x28>
    336e:	6105                	addi	sp,sp,32
    3370:	8082                	ret
    3372:	02a70733          	mul	a4,a4,a0
    3376:	0026d803          	lhu	a6,2(a3)
    337a:	006777b3          	and	a5,a4,t1
    337e:	97c2                	add	a5,a5,a6
    3380:	883e                	mv	a6,a5
    3382:	01069123          	sh	a6,2(a3)
    3386:	0107d813          	srli	a6,a5,0x10
    338a:	01075793          	srli	a5,a4,0x10
    338e:	0006d703          	lhu	a4,0(a3)
    3392:	97ba                	add	a5,a5,a4
    3394:	97c2                	add	a5,a5,a6
    3396:	873e                	mv	a4,a5
    3398:	83c1                	srli	a5,a5,0x10
    339a:	00e69023          	sh	a4,0(a3)
    339e:	fef69f23          	sh	a5,-2(a3)
    33a2:	b775                	j	334e <m16m+0x20>

000033a4 <eisnan>:
    33a4:	01255783          	lhu	a5,18(a0)
    33a8:	fff7c793          	not	a5,a5
    33ac:	01179713          	slli	a4,a5,0x11
    33b0:	eb09                	bnez	a4,33c2 <eisnan+0x1e>
    33b2:	01250793          	addi	a5,a0,18
    33b6:	0509                	addi	a0,a0,2
    33b8:	ffe55703          	lhu	a4,-2(a0)
    33bc:	e709                	bnez	a4,33c6 <eisnan+0x22>
    33be:	fea79ce3          	bne	a5,a0,33b6 <eisnan+0x12>
    33c2:	4501                	li	a0,0
    33c4:	8082                	ret
    33c6:	4505                	li	a0,1
    33c8:	8082                	ret

000033ca <eisneg>:
    33ca:	1141                	addi	sp,sp,-16
    33cc:	c422                	sw	s0,8(sp)
    33ce:	c606                	sw	ra,12(sp)
    33d0:	842a                	mv	s0,a0
    33d2:	3fc9                	jal	33a4 <eisnan>
    33d4:	e901                	bnez	a0,33e4 <eisneg+0x1a>
    33d6:	01241503          	lh	a0,18(s0)
    33da:	817d                	srli	a0,a0,0x1f
    33dc:	40b2                	lw	ra,12(sp)
    33de:	4422                	lw	s0,8(sp)
    33e0:	0141                	addi	sp,sp,16
    33e2:	8082                	ret
    33e4:	4501                	li	a0,0
    33e6:	bfdd                	j	33dc <eisneg+0x12>

000033e8 <emovi>:
    33e8:	1141                	addi	sp,sp,-16
    33ea:	01251783          	lh	a5,18(a0)
    33ee:	c606                	sw	ra,12(sp)
    33f0:	c422                	sw	s0,8(sp)
    33f2:	c226                	sw	s1,4(sp)
    33f4:	c04a                	sw	s2,0(sp)
    33f6:	0407d863          	bgez	a5,3446 <emovi+0x5e>
    33fa:	57fd                	li	a5,-1
    33fc:	00f59023          	sh	a5,0(a1)
    3400:	01255703          	lhu	a4,18(a0)
    3404:	67a1                	lui	a5,0x8
    3406:	17fd                	addi	a5,a5,-1
    3408:	8f7d                	and	a4,a4,a5
    340a:	00e59123          	sh	a4,2(a1)
    340e:	01050913          	addi	s2,a0,16
    3412:	04f71763          	bne	a4,a5,3460 <emovi+0x78>
    3416:	842e                	mv	s0,a1
    3418:	84aa                	mv	s1,a0
    341a:	3769                	jal	33a4 <eisnan>
    341c:	c905                	beqz	a0,344c <emovi+0x64>
    341e:	00640793          	addi	a5,s0,6
    3422:	00041223          	sh	zero,4(s0)
    3426:	ffc48513          	addi	a0,s1,-4
    342a:	1979                	addi	s2,s2,-2
    342c:	00295703          	lhu	a4,2(s2)
    3430:	0789                	addi	a5,a5,2
    3432:	fee79f23          	sh	a4,-2(a5) # 7ffe <__ascii_wctomb+0x1a>
    3436:	fea91ae3          	bne	s2,a0,342a <emovi+0x42>
    343a:	40b2                	lw	ra,12(sp)
    343c:	4422                	lw	s0,8(sp)
    343e:	4492                	lw	s1,4(sp)
    3440:	4902                	lw	s2,0(sp)
    3442:	0141                	addi	sp,sp,16
    3444:	8082                	ret
    3446:	00059023          	sh	zero,0(a1)
    344a:	bf5d                	j	3400 <emovi+0x18>
    344c:	00440793          	addi	a5,s0,4
    3450:	01a40593          	addi	a1,s0,26
    3454:	0789                	addi	a5,a5,2
    3456:	fe079f23          	sh	zero,-2(a5)
    345a:	feb79de3          	bne	a5,a1,3454 <emovi+0x6c>
    345e:	bff1                	j	343a <emovi+0x52>
    3460:	00658793          	addi	a5,a1,6
    3464:	00059223          	sh	zero,4(a1)
    3468:	1579                	addi	a0,a0,-2
    346a:	1979                	addi	s2,s2,-2
    346c:	00295703          	lhu	a4,2(s2)
    3470:	0789                	addi	a5,a5,2
    3472:	fee79f23          	sh	a4,-2(a5)
    3476:	fea91ae3          	bne	s2,a0,346a <emovi+0x82>
    347a:	00059c23          	sh	zero,24(a1)
    347e:	bf75                	j	343a <emovi+0x52>

00003480 <ecmp>:
    3480:	715d                	addi	sp,sp,-80
    3482:	c2a6                	sw	s1,68(sp)
    3484:	c0ca                	sw	s2,64(sp)
    3486:	c686                	sw	ra,76(sp)
    3488:	c4a2                	sw	s0,72(sp)
    348a:	892a                	mv	s2,a0
    348c:	84ae                	mv	s1,a1
    348e:	3f19                	jal	33a4 <eisnan>
    3490:	e941                	bnez	a0,3520 <ecmp+0xa0>
    3492:	8526                	mv	a0,s1
    3494:	3f01                	jal	33a4 <eisnan>
    3496:	842a                	mv	s0,a0
    3498:	e541                	bnez	a0,3520 <ecmp+0xa0>
    349a:	002c                	addi	a1,sp,8
    349c:	854a                	mv	a0,s2
    349e:	37a9                	jal	33e8 <emovi>
    34a0:	104c                	addi	a1,sp,36
    34a2:	8526                	mv	a0,s1
    34a4:	3791                	jal	33e8 <emovi>
    34a6:	00815703          	lhu	a4,8(sp)
    34aa:	02415783          	lhu	a5,36(sp)
    34ae:	02e78e63          	beq	a5,a4,34ea <ecmp+0x6a>
    34b2:	4789                	li	a5,2
    34b4:	46e1                	li	a3,24
    34b6:	0028                	addi	a0,sp,8
    34b8:	00f50633          	add	a2,a0,a5
    34bc:	00065603          	lhu	a2,0(a2) # ffff8000 <pulp__FC+0xffff8001>
    34c0:	e20d                	bnez	a2,34e2 <ecmp+0x62>
    34c2:	104c                	addi	a1,sp,36
    34c4:	00f58633          	add	a2,a1,a5
    34c8:	00065603          	lhu	a2,0(a2)
    34cc:	ea19                	bnez	a2,34e2 <ecmp+0x62>
    34ce:	0789                	addi	a5,a5,2
    34d0:	fed793e3          	bne	a5,a3,34b6 <ecmp+0x36>
    34d4:	8522                	mv	a0,s0
    34d6:	40b6                	lw	ra,76(sp)
    34d8:	4426                	lw	s0,72(sp)
    34da:	4496                	lw	s1,68(sp)
    34dc:	4906                	lw	s2,64(sp)
    34de:	6161                	addi	sp,sp,80
    34e0:	8082                	ret
    34e2:	4405                	li	s0,1
    34e4:	db65                	beqz	a4,34d4 <ecmp+0x54>
    34e6:	547d                	li	s0,-1
    34e8:	b7f5                	j	34d4 <ecmp+0x54>
    34ea:	4605                	li	a2,1
    34ec:	c391                	beqz	a5,34f0 <ecmp+0x70>
    34ee:	567d                	li	a2,-1
    34f0:	4781                	li	a5,0
    34f2:	45e1                	li	a1,24
    34f4:	0034                	addi	a3,sp,8
    34f6:	00f68733          	add	a4,a3,a5
    34fa:	1048                	addi	a0,sp,36
    34fc:	00075683          	lhu	a3,0(a4)
    3500:	00f50733          	add	a4,a0,a5
    3504:	00075703          	lhu	a4,0(a4)
    3508:	00e69663          	bne	a3,a4,3514 <ecmp+0x94>
    350c:	0789                	addi	a5,a5,2
    350e:	feb793e3          	bne	a5,a1,34f4 <ecmp+0x74>
    3512:	b7c9                	j	34d4 <ecmp+0x54>
    3514:	8432                	mv	s0,a2
    3516:	fad76fe3          	bltu	a4,a3,34d4 <ecmp+0x54>
    351a:	40c00433          	neg	s0,a2
    351e:	bf5d                	j	34d4 <ecmp+0x54>
    3520:	5479                	li	s0,-2
    3522:	bf4d                	j	34d4 <ecmp+0x54>

00003524 <eisinf>:
    3524:	01255783          	lhu	a5,18(a0)
    3528:	fff7c793          	not	a5,a5
    352c:	01179713          	slli	a4,a5,0x11
    3530:	eb09                	bnez	a4,3542 <eisinf+0x1e>
    3532:	1141                	addi	sp,sp,-16
    3534:	c606                	sw	ra,12(sp)
    3536:	35bd                	jal	33a4 <eisnan>
    3538:	40b2                	lw	ra,12(sp)
    353a:	00153513          	seqz	a0,a0
    353e:	0141                	addi	sp,sp,16
    3540:	8082                	ret
    3542:	4501                	li	a0,0
    3544:	8082                	ret

00003546 <einfin.isra.2>:
    3546:	01250793          	addi	a5,a0,18
    354a:	0509                	addi	a0,a0,2
    354c:	fe051f23          	sh	zero,-2(a0)
    3550:	fef51de3          	bne	a0,a5,354a <einfin.isra.2+0x4>
    3554:	00055783          	lhu	a5,0(a0)
    3558:	6721                	lui	a4,0x8
    355a:	177d                	addi	a4,a4,-1
    355c:	8fd9                	or	a5,a5,a4
    355e:	00f51023          	sh	a5,0(a0)
    3562:	8082                	ret

00003564 <eshift.part.3>:
    3564:	1101                	addi	sp,sp,-32
    3566:	ca26                	sw	s1,20(sp)
    3568:	c64e                	sw	s3,12(sp)
    356a:	ce06                	sw	ra,28(sp)
    356c:	cc22                	sw	s0,24(sp)
    356e:	c84a                	sw	s2,16(sp)
    3570:	c452                	sw	s4,8(sp)
    3572:	c256                	sw	s5,4(sp)
    3574:	89aa                	mv	s3,a0
    3576:	84ae                	mv	s1,a1
    3578:	0a05d863          	bgez	a1,3628 <eshift.part.3+0xc4>
    357c:	40b00933          	neg	s2,a1
    3580:	8a4a                	mv	s4,s2
    3582:	4401                	li	s0,0
    3584:	4abd                	li	s5,15
    3586:	034acb63          	blt	s5,s4,35bc <eshift.part.3+0x58>
    358a:	00495913          	srli	s2,s2,0x4
    358e:	55c1                	li	a1,-16
    3590:	02b905b3          	mul	a1,s2,a1
    3594:	409584b3          	sub	s1,a1,s1
    3598:	8926                	mv	s2,s1
    359a:	4a1d                	li	s4,7
    359c:	032a4763          	blt	s4,s2,35ca <eshift.part.3+0x66>
    35a0:	0034d593          	srli	a1,s1,0x3
    35a4:	57e1                	li	a5,-8
    35a6:	02f585b3          	mul	a1,a1,a5
    35aa:	94ae                	add	s1,s1,a1
    35ac:	e495                	bnez	s1,35d8 <eshift.part.3+0x74>
    35ae:	00803533          	snez	a0,s0
    35b2:	842a                	mv	s0,a0
    35b4:	01041513          	slli	a0,s0,0x10
    35b8:	8141                	srli	a0,a0,0x10
    35ba:	a8b1                	j	3616 <eshift.part.3+0xb2>
    35bc:	0189d783          	lhu	a5,24(s3)
    35c0:	854e                	mv	a0,s3
    35c2:	8c5d                	or	s0,s0,a5
    35c4:	1a41                	addi	s4,s4,-16
    35c6:	39cd                	jal	32b8 <eshdn6>
    35c8:	bf7d                	j	3586 <eshift.part.3+0x22>
    35ca:	0189c783          	lbu	a5,24(s3)
    35ce:	854e                	mv	a0,s3
    35d0:	8c5d                	or	s0,s0,a5
    35d2:	1961                	addi	s2,s2,-8
    35d4:	3149                	jal	3256 <eshdn8>
    35d6:	b7d9                	j	359c <eshift.part.3+0x38>
    35d8:	0189d783          	lhu	a5,24(s3)
    35dc:	854e                	mv	a0,s3
    35de:	8b85                	andi	a5,a5,1
    35e0:	8c5d                	or	s0,s0,a5
    35e2:	14fd                	addi	s1,s1,-1
    35e4:	3101                	jal	31e4 <eshdn1>
    35e6:	b7d9                	j	35ac <eshift.part.3+0x48>
    35e8:	854e                	mv	a0,s3
    35ea:	394d                	jal	329c <eshup6>
    35ec:	1441                	addi	s0,s0,-16
    35ee:	fe894de3          	blt	s2,s0,35e8 <eshift.part.3+0x84>
    35f2:	0044d593          	srli	a1,s1,0x4
    35f6:	57c1                	li	a5,-16
    35f8:	02f585b3          	mul	a1,a1,a5
    35fc:	94ae                	add	s1,s1,a1
    35fe:	8426                	mv	s0,s1
    3600:	491d                	li	s2,7
    3602:	02894663          	blt	s2,s0,362e <eshift.part.3+0xca>
    3606:	0034d593          	srli	a1,s1,0x3
    360a:	57e1                	li	a5,-8
    360c:	02f585b3          	mul	a1,a1,a5
    3610:	94ae                	add	s1,s1,a1
    3612:	e095                	bnez	s1,3636 <eshift.part.3+0xd2>
    3614:	4501                	li	a0,0
    3616:	40f2                	lw	ra,28(sp)
    3618:	4462                	lw	s0,24(sp)
    361a:	44d2                	lw	s1,20(sp)
    361c:	4942                	lw	s2,16(sp)
    361e:	49b2                	lw	s3,12(sp)
    3620:	4a22                	lw	s4,8(sp)
    3622:	4a92                	lw	s5,4(sp)
    3624:	6105                	addi	sp,sp,32
    3626:	8082                	ret
    3628:	842e                	mv	s0,a1
    362a:	493d                	li	s2,15
    362c:	b7c9                	j	35ee <eshift.part.3+0x8a>
    362e:	854e                	mv	a0,s3
    3630:	31b1                	jal	327c <eshup8>
    3632:	1461                	addi	s0,s0,-8
    3634:	b7f9                	j	3602 <eshift.part.3+0x9e>
    3636:	854e                	mv	a0,s3
    3638:	36cd                	jal	321a <eshup1>
    363a:	14fd                	addi	s1,s1,-1
    363c:	bfd9                	j	3612 <eshift.part.3+0xae>

0000363e <enormlz>:
    363e:	1141                	addi	sp,sp,-16
    3640:	00455783          	lhu	a5,4(a0)
    3644:	c226                	sw	s1,4(sp)
    3646:	c606                	sw	ra,12(sp)
    3648:	c422                	sw	s0,8(sp)
    364a:	c04a                	sw	s2,0(sp)
    364c:	84aa                	mv	s1,a0
    364e:	efa1                	bnez	a5,36a6 <enormlz+0x68>
    3650:	00651783          	lh	a5,6(a0)
    3654:	4401                	li	s0,0
    3656:	0a000913          	li	s2,160
    365a:	0007de63          	bgez	a5,3676 <enormlz+0x38>
    365e:	8522                	mv	a0,s0
    3660:	40b2                	lw	ra,12(sp)
    3662:	4422                	lw	s0,8(sp)
    3664:	4492                	lw	s1,4(sp)
    3666:	4902                	lw	s2,0(sp)
    3668:	0141                	addi	sp,sp,16
    366a:	8082                	ret
    366c:	8526                	mv	a0,s1
    366e:	0441                	addi	s0,s0,16
    3670:	3135                	jal	329c <eshup6>
    3672:	ff2406e3          	beq	s0,s2,365e <enormlz+0x20>
    3676:	0064d783          	lhu	a5,6(s1)
    367a:	dbed                	beqz	a5,366c <enormlz+0x2e>
    367c:	0064d783          	lhu	a5,6(s1)
    3680:	f007f793          	andi	a5,a5,-256
    3684:	cf89                	beqz	a5,369e <enormlz+0x60>
    3686:	0a000913          	li	s2,160
    368a:	00649783          	lh	a5,6(s1)
    368e:	fc07c8e3          	bltz	a5,365e <enormlz+0x20>
    3692:	8526                	mv	a0,s1
    3694:	0405                	addi	s0,s0,1
    3696:	3651                	jal	321a <eshup1>
    3698:	fe8959e3          	ble	s0,s2,368a <enormlz+0x4c>
    369c:	b7c9                	j	365e <enormlz+0x20>
    369e:	8526                	mv	a0,s1
    36a0:	3ef1                	jal	327c <eshup8>
    36a2:	0421                	addi	s0,s0,8
    36a4:	bfe1                	j	367c <enormlz+0x3e>
    36a6:	f007f793          	andi	a5,a5,-256
    36aa:	4401                	li	s0,0
    36ac:	c399                	beqz	a5,36b2 <enormlz+0x74>
    36ae:	3665                	jal	3256 <eshdn8>
    36b0:	5461                	li	s0,-8
    36b2:	f7000913          	li	s2,-144
    36b6:	a031                	j	36c2 <enormlz+0x84>
    36b8:	8526                	mv	a0,s1
    36ba:	147d                	addi	s0,s0,-1
    36bc:	3625                	jal	31e4 <eshdn1>
    36be:	fb2440e3          	blt	s0,s2,365e <enormlz+0x20>
    36c2:	0044d783          	lhu	a5,4(s1)
    36c6:	fbed                	bnez	a5,36b8 <enormlz+0x7a>
    36c8:	bf59                	j	365e <enormlz+0x20>

000036ca <enan.constprop.12>:
    36ca:	01050793          	addi	a5,a0,16
    36ce:	0509                	addi	a0,a0,2
    36d0:	fe051f23          	sh	zero,-2(a0)
    36d4:	fef51de3          	bne	a0,a5,36ce <enan.constprop.12+0x4>
    36d8:	7fffc7b7          	lui	a5,0x7fffc
    36dc:	c11c                	sw	a5,0(a0)
    36de:	8082                	ret

000036e0 <emovo.isra.6>:
    36e0:	872a                	mv	a4,a0
    36e2:	00075683          	lhu	a3,0(a4) # 8000 <__ascii_wctomb+0x1c>
    36e6:	852e                	mv	a0,a1
    36e8:	00275783          	lhu	a5,2(a4)
    36ec:	c299                	beqz	a3,36f2 <emovo.isra.6+0x12>
    36ee:	76e1                	lui	a3,0xffff8
    36f0:	8fd5                	or	a5,a5,a3
    36f2:	00f51923          	sh	a5,18(a0)
    36f6:	66a1                	lui	a3,0x8
    36f8:	00275603          	lhu	a2,2(a4)
    36fc:	16fd                	addi	a3,a3,-1
    36fe:	00670793          	addi	a5,a4,6
    3702:	00d61a63          	bne	a2,a3,3716 <emovo.isra.6+0x36>
    3706:	0769                	addi	a4,a4,26
    3708:	0007d683          	lhu	a3,0(a5) # 7fffc000 <__heap_end+0x7fbfc000>
    370c:	e285                	bnez	a3,372c <emovo.isra.6+0x4c>
    370e:	0789                	addi	a5,a5,2
    3710:	fee79ce3          	bne	a5,a4,3708 <emovo.isra.6+0x28>
    3714:	bd0d                	j	3546 <einfin.isra.2>
    3716:	0541                	addi	a0,a0,16
    3718:	0761                	addi	a4,a4,24
    371a:	0789                	addi	a5,a5,2
    371c:	ffe7d683          	lhu	a3,-2(a5)
    3720:	1579                	addi	a0,a0,-2
    3722:	00d51123          	sh	a3,2(a0)
    3726:	fee79ae3          	bne	a5,a4,371a <emovo.isra.6+0x3a>
    372a:	8082                	ret
    372c:	bf79                	j	36ca <enan.constprop.12>

0000372e <e113toe.isra.8>:
    372e:	7179                	addi	sp,sp,-48
    3730:	d226                	sw	s1,36(sp)
    3732:	84aa                	mv	s1,a0
    3734:	0048                	addi	a0,sp,4
    3736:	d422                	sw	s0,40(sp)
    3738:	d606                	sw	ra,44(sp)
    373a:	842e                	mv	s0,a1
    373c:	3c89                	jal	318e <ecleaz>
    373e:	00e4d703          	lhu	a4,14(s1)
    3742:	01071793          	slli	a5,a4,0x10
    3746:	87c1                	srai	a5,a5,0x10
    3748:	0207c663          	bltz	a5,3774 <e113toe.isra.8+0x46>
    374c:	00011223          	sh	zero,4(sp)
    3750:	66a1                	lui	a3,0x8
    3752:	16fd                	addi	a3,a3,-1
    3754:	8f75                	and	a4,a4,a3
    3756:	00e48793          	addi	a5,s1,14
    375a:	04d71663          	bne	a4,a3,37a6 <e113toe.isra.8+0x78>
    375e:	8726                	mv	a4,s1
    3760:	00075683          	lhu	a3,0(a4)
    3764:	ce81                	beqz	a3,377c <e113toe.isra.8+0x4e>
    3766:	8522                	mv	a0,s0
    3768:	378d                	jal	36ca <enan.constprop.12>
    376a:	50b2                	lw	ra,44(sp)
    376c:	5422                	lw	s0,40(sp)
    376e:	5492                	lw	s1,36(sp)
    3770:	6145                	addi	sp,sp,48
    3772:	8082                	ret
    3774:	57fd                	li	a5,-1
    3776:	00f11223          	sh	a5,4(sp)
    377a:	bfd9                	j	3750 <e113toe.isra.8+0x22>
    377c:	0709                	addi	a4,a4,2
    377e:	fee791e3          	bne	a5,a4,3760 <e113toe.isra.8+0x32>
    3782:	8522                	mv	a0,s0
    3784:	32d5                	jal	3168 <eclear>
    3786:	8522                	mv	a0,s0
    3788:	3b7d                	jal	3546 <einfin.isra.2>
    378a:	00e49783          	lh	a5,14(s1)
    378e:	fc07dee3          	bgez	a5,376a <e113toe.isra.8+0x3c>
    3792:	8522                	mv	a0,s0
    3794:	3901                	jal	33a4 <eisnan>
    3796:	f971                	bnez	a0,376a <e113toe.isra.8+0x3c>
    3798:	01245783          	lhu	a5,18(s0)
    379c:	7761                	lui	a4,0xffff8
    379e:	8fb9                	xor	a5,a5,a4
    37a0:	00f41923          	sh	a5,18(s0)
    37a4:	b7d9                	j	376a <e113toe.isra.8+0x3c>
    37a6:	00e11323          	sh	a4,6(sp)
    37aa:	0054                	addi	a3,sp,4
    37ac:	17f9                	addi	a5,a5,-2
    37ae:	0007d603          	lhu	a2,0(a5)
    37b2:	0689                	addi	a3,a3,2
    37b4:	00c69223          	sh	a2,4(a3) # 8004 <_write_r>
    37b8:	fef49ae3          	bne	s1,a5,37ac <e113toe.isra.8+0x7e>
    37bc:	e719                	bnez	a4,37ca <e113toe.isra.8+0x9c>
    37be:	00011423          	sh	zero,8(sp)
    37c2:	85a2                	mv	a1,s0
    37c4:	0048                	addi	a0,sp,4
    37c6:	3f29                	jal	36e0 <emovo.isra.6>
    37c8:	b74d                	j	376a <e113toe.isra.8+0x3c>
    37ca:	4785                	li	a5,1
    37cc:	55fd                	li	a1,-1
    37ce:	0048                	addi	a0,sp,4
    37d0:	00f11423          	sh	a5,8(sp)
    37d4:	3b41                	jal	3564 <eshift.part.3>
    37d6:	b7f5                	j	37c2 <e113toe.isra.8+0x94>

000037d8 <emdnorm>:
    37d8:	1101                	addi	sp,sp,-32
    37da:	cc22                	sw	s0,24(sp)
    37dc:	ca26                	sw	s1,20(sp)
    37de:	c84a                	sw	s2,16(sp)
    37e0:	c64e                	sw	s3,12(sp)
    37e2:	c452                	sw	s4,8(sp)
    37e4:	c256                	sw	s5,4(sp)
    37e6:	8936                	mv	s2,a3
    37e8:	843e                	mv	s0,a5
    37ea:	ce06                	sw	ra,28(sp)
    37ec:	84aa                	mv	s1,a0
    37ee:	89ae                	mv	s3,a1
    37f0:	8a32                	mv	s4,a2
    37f2:	8aba                	mv	s5,a4
    37f4:	35a9                	jal	363e <enormlz>
    37f6:	09000793          	li	a5,144
    37fa:	40a90933          	sub	s2,s2,a0
    37fe:	02a7d763          	ble	a0,a5,382c <emdnorm+0x54>
    3802:	67a1                	lui	a5,0x8
    3804:	17f9                	addi	a5,a5,-2
    3806:	2127c163          	blt	a5,s2,3a08 <emdnorm+0x230>
    380a:	00248793          	addi	a5,s1,2
    380e:	04e9                	addi	s1,s1,26
    3810:	0789                	addi	a5,a5,2
    3812:	fe079f23          	sh	zero,-2(a5) # 7ffe <__ascii_wctomb+0x1a>
    3816:	fe979de3          	bne	a5,s1,3810 <emdnorm+0x38>
    381a:	40f2                	lw	ra,28(sp)
    381c:	4462                	lw	s0,24(sp)
    381e:	44d2                	lw	s1,20(sp)
    3820:	4942                	lw	s2,16(sp)
    3822:	49b2                	lw	s3,12(sp)
    3824:	4a22                	lw	s4,8(sp)
    3826:	4a92                	lw	s5,4(sp)
    3828:	6105                	addi	sp,sp,32
    382a:	8082                	ret
    382c:	00095b63          	bgez	s2,3842 <emdnorm+0x6a>
    3830:	f7000793          	li	a5,-144
    3834:	0ef94363          	blt	s2,a5,391a <emdnorm+0x142>
    3838:	85ca                	mv	a1,s2
    383a:	8526                	mv	a0,s1
    383c:	3325                	jal	3564 <eshift.part.3>
    383e:	0e051763          	bnez	a0,392c <emdnorm+0x154>
    3842:	180a8763          	beqz	s5,39d0 <emdnorm+0x1f8>
    3846:	4058                	lw	a4,4(s0)
    3848:	401c                	lw	a5,0(s0)
    384a:	04f70763          	beq	a4,a5,3898 <emdnorm+0xc0>
    384e:	01a40513          	addi	a0,s0,26
    3852:	3a35                	jal	318e <ecleaz>
    3854:	405c                	lw	a5,4(s0)
    3856:	03800713          	li	a4,56
    385a:	10e78963          	beq	a5,a4,396c <emdnorm+0x194>
    385e:	0cf74963          	blt	a4,a5,3930 <emdnorm+0x158>
    3862:	4761                	li	a4,24
    3864:	12e78963          	beq	a5,a4,3996 <emdnorm+0x1be>
    3868:	03500713          	li	a4,53
    386c:	10e78a63          	beq	a5,a4,3980 <emdnorm+0x1a8>
    3870:	4731                	li	a4,12
    3872:	c418                	sw	a4,8(s0)
    3874:	80010737          	lui	a4,0x80010
    3878:	177d                	addi	a4,a4,-1
    387a:	c858                	sw	a4,20(s0)
    387c:	4705                	li	a4,1
    387e:	00e41c23          	sh	a4,24(s0)
    3882:	472d                	li	a4,11
    3884:	c458                	sw	a4,12(s0)
    3886:	4458                	lw	a4,12(s0)
    3888:	01845683          	lhu	a3,24(s0)
    388c:	0721                	addi	a4,a4,8
    388e:	0706                	slli	a4,a4,0x1
    3890:	9722                	add	a4,a4,s0
    3892:	00d71523          	sh	a3,10(a4) # 8001000a <pulp__FC+0x8001000b>
    3896:	c01c                	sw	a5,0(s0)
    3898:	01204e63          	bgtz	s2,38b4 <emdnorm+0xdc>
    389c:	4058                	lw	a4,4(s0)
    389e:	09000793          	li	a5,144
    38a2:	00f70963          	beq	a4,a5,38b4 <emdnorm+0xdc>
    38a6:	0184d783          	lhu	a5,24(s1)
    38aa:	8526                	mv	a0,s1
    38ac:	8b85                	andi	a5,a5,1
    38ae:	00f9e9b3          	or	s3,s3,a5
    38b2:	3a0d                	jal	31e4 <eshdn1>
    38b4:	4414                	lw	a3,8(s0)
    38b6:	01445603          	lhu	a2,20(s0)
    38ba:	00169713          	slli	a4,a3,0x1
    38be:	9726                	add	a4,a4,s1
    38c0:	00075783          	lhu	a5,0(a4)
    38c4:	404c                	lw	a1,4(s0)
    38c6:	8ff1                	and	a5,a5,a2
    38c8:	08f00613          	li	a2,143
    38cc:	00b64763          	blt	a2,a1,38da <emdnorm+0x102>
    38d0:	0685                	addi	a3,a3,1
    38d2:	863a                	mv	a2,a4
    38d4:	45b1                	li	a1,12
    38d6:	0cd5d263          	ble	a3,a1,399a <emdnorm+0x1c2>
    38da:	01445683          	lhu	a3,20(s0)
    38de:	00075603          	lhu	a2,0(a4)
    38e2:	fff6c693          	not	a3,a3
    38e6:	8ef1                	and	a3,a3,a2
    38e8:	00d71023          	sh	a3,0(a4)
    38ec:	01645703          	lhu	a4,22(s0)
    38f0:	00f776b3          	and	a3,a4,a5
    38f4:	cedd                	beqz	a3,39b2 <emdnorm+0x1da>
    38f6:	00f71d63          	bne	a4,a5,3910 <emdnorm+0x138>
    38fa:	0a099a63          	bnez	s3,39ae <emdnorm+0x1d6>
    38fe:	445c                	lw	a5,12(s0)
    3900:	01845703          	lhu	a4,24(s0)
    3904:	0786                	slli	a5,a5,0x1
    3906:	97a6                	add	a5,a5,s1
    3908:	0007d783          	lhu	a5,0(a5)
    390c:	8ff9                	and	a5,a5,a4
    390e:	c3d5                	beqz	a5,39b2 <emdnorm+0x1da>
    3910:	85a6                	mv	a1,s1
    3912:	01a40513          	addi	a0,s0,26
    3916:	32d1                	jal	32da <eaddm>
    3918:	a869                	j	39b2 <emdnorm+0x1da>
    391a:	00248793          	addi	a5,s1,2
    391e:	04e9                	addi	s1,s1,26
    3920:	0789                	addi	a5,a5,2
    3922:	fe079f23          	sh	zero,-2(a5)
    3926:	fe979de3          	bne	a5,s1,3920 <emdnorm+0x148>
    392a:	bdc5                	j	381a <emdnorm+0x42>
    392c:	4985                	li	s3,1
    392e:	bf11                	j	3842 <emdnorm+0x6a>
    3930:	04000713          	li	a4,64
    3934:	02e78163          	beq	a5,a4,3956 <emdnorm+0x17e>
    3938:	07100713          	li	a4,113
    393c:	f2e79ae3          	bne	a5,a4,3870 <emdnorm+0x98>
    3940:	40008737          	lui	a4,0x40008
    3944:	177d                	addi	a4,a4,-1
    3946:	46a9                	li	a3,10
    3948:	c858                	sw	a4,20(s0)
    394a:	c414                	sw	a3,8(s0)
    394c:	7761                	lui	a4,0xffff8
    394e:	00e41c23          	sh	a4,24(s0)
    3952:	c454                	sw	a3,12(s0)
    3954:	bf0d                	j	3886 <emdnorm+0xae>
    3956:	471d                	li	a4,7
    3958:	c418                	sw	a4,8(s0)
    395a:	80010737          	lui	a4,0x80010
    395e:	177d                	addi	a4,a4,-1
    3960:	c858                	sw	a4,20(s0)
    3962:	4705                	li	a4,1
    3964:	00e41c23          	sh	a4,24(s0)
    3968:	4719                	li	a4,6
    396a:	bf29                	j	3884 <emdnorm+0xac>
    396c:	4699                	li	a3,6
    396e:	00800737          	lui	a4,0x800
    3972:	0ff70713          	addi	a4,a4,255 # 8000ff <__heap_end+0x4000ff>
    3976:	c858                	sw	a4,20(s0)
    3978:	c414                	sw	a3,8(s0)
    397a:	10000713          	li	a4,256
    397e:	bfc1                	j	394e <emdnorm+0x176>
    3980:	04000737          	lui	a4,0x4000
    3984:	7ff70713          	addi	a4,a4,2047 # 40007ff <__heap_end+0x3c007ff>
    3988:	4699                	li	a3,6
    398a:	c858                	sw	a4,20(s0)
    398c:	6705                	lui	a4,0x1
    398e:	c414                	sw	a3,8(s0)
    3990:	80070713          	addi	a4,a4,-2048 # 800 <main+0x72a>
    3994:	bf6d                	j	394e <emdnorm+0x176>
    3996:	4691                	li	a3,4
    3998:	bfd9                	j	396e <emdnorm+0x196>
    399a:	00265503          	lhu	a0,2(a2)
    399e:	c119                	beqz	a0,39a4 <emdnorm+0x1cc>
    39a0:	0017e793          	ori	a5,a5,1
    39a4:	00061123          	sh	zero,2(a2)
    39a8:	0685                	addi	a3,a3,1
    39aa:	0609                	addi	a2,a2,2
    39ac:	b72d                	j	38d6 <emdnorm+0xfe>
    39ae:	f60a01e3          	beqz	s4,3910 <emdnorm+0x138>
    39b2:	01204963          	bgtz	s2,39c4 <emdnorm+0x1ec>
    39b6:	4058                	lw	a4,4(s0)
    39b8:	09000793          	li	a5,144
    39bc:	00f70463          	beq	a4,a5,39c4 <emdnorm+0x1ec>
    39c0:	8526                	mv	a0,s1
    39c2:	38a1                	jal	321a <eshup1>
    39c4:	0044d783          	lhu	a5,4(s1)
    39c8:	c781                	beqz	a5,39d0 <emdnorm+0x1f8>
    39ca:	8526                	mv	a0,s1
    39cc:	3821                	jal	31e4 <eshdn1>
    39ce:	0905                	addi	s2,s2,1
    39d0:	67a1                	lui	a5,0x8
    39d2:	00049c23          	sh	zero,24(s1)
    39d6:	17f9                	addi	a5,a5,-2
    39d8:	0327d063          	ble	s2,a5,39f8 <emdnorm+0x220>
    39dc:	77e1                	lui	a5,0xffff8
    39de:	fff7c793          	not	a5,a5
    39e2:	00f49123          	sh	a5,2(s1)
    39e6:	00448793          	addi	a5,s1,4
    39ea:	04e1                	addi	s1,s1,24
    39ec:	00079023          	sh	zero,0(a5) # ffff8000 <pulp__FC+0xffff8001>
    39f0:	0789                	addi	a5,a5,2
    39f2:	fef49de3          	bne	s1,a5,39ec <emdnorm+0x214>
    39f6:	b515                	j	381a <emdnorm+0x42>
    39f8:	00095563          	bgez	s2,3a02 <emdnorm+0x22a>
    39fc:	00049123          	sh	zero,2(s1)
    3a00:	bd29                	j	381a <emdnorm+0x42>
    3a02:	01249123          	sh	s2,2(s1)
    3a06:	bd11                	j	381a <emdnorm+0x42>
    3a08:	e20a9fe3          	bnez	s5,3846 <emdnorm+0x6e>
    3a0c:	00049c23          	sh	zero,24(s1)
    3a10:	b7f1                	j	39dc <emdnorm+0x204>

00003a12 <eiremain>:
    3a12:	1101                	addi	sp,sp,-32
    3a14:	c452                	sw	s4,8(sp)
    3a16:	00255a03          	lhu	s4,2(a0)
    3a1a:	ce06                	sw	ra,28(sp)
    3a1c:	cc22                	sw	s0,24(sp)
    3a1e:	ca26                	sw	s1,20(sp)
    3a20:	842e                	mv	s0,a1
    3a22:	c84a                	sw	s2,16(sp)
    3a24:	c256                	sw	s5,4(sp)
    3a26:	c05a                	sw	s6,0(sp)
    3a28:	8932                	mv	s2,a2
    3a2a:	03460b13          	addi	s6,a2,52
    3a2e:	c64e                	sw	s3,12(sp)
    3a30:	8aaa                	mv	s5,a0
    3a32:	3131                	jal	363e <enormlz>
    3a34:	40aa0a33          	sub	s4,s4,a0
    3a38:	00245483          	lhu	s1,2(s0)
    3a3c:	8522                	mv	a0,s0
    3a3e:	3101                	jal	363e <enormlz>
    3a40:	8c89                	sub	s1,s1,a0
    3a42:	855a                	mv	a0,s6
    3a44:	f4aff0ef          	jal	ra,318e <ecleaz>
    3a48:	0344d263          	ble	s4,s1,3a6c <eiremain+0x5a>
    3a4c:	8522                	mv	a0,s0
    3a4e:	4462                	lw	s0,24(sp)
    3a50:	40f2                	lw	ra,28(sp)
    3a52:	49b2                	lw	s3,12(sp)
    3a54:	4a22                	lw	s4,8(sp)
    3a56:	4a92                	lw	s5,4(sp)
    3a58:	4b02                	lw	s6,0(sp)
    3a5a:	87ca                	mv	a5,s2
    3a5c:	86a6                	mv	a3,s1
    3a5e:	4942                	lw	s2,16(sp)
    3a60:	44d2                	lw	s1,20(sp)
    3a62:	4701                	li	a4,0
    3a64:	4601                	li	a2,0
    3a66:	4581                	li	a1,0
    3a68:	6105                	addi	sp,sp,32
    3a6a:	b3bd                	j	37d8 <emdnorm>
    3a6c:	85a2                	mv	a1,s0
    3a6e:	8556                	mv	a0,s5
    3a70:	f4aff0ef          	jal	ra,31ba <ecmpm>
    3a74:	4981                	li	s3,0
    3a76:	00a04663          	bgtz	a0,3a82 <eiremain+0x70>
    3a7a:	85a2                	mv	a1,s0
    3a7c:	8556                	mv	a0,s5
    3a7e:	3059                	jal	3304 <esubm>
    3a80:	4985                	li	s3,1
    3a82:	855a                	mv	a0,s6
    3a84:	f96ff0ef          	jal	ra,321a <eshup1>
    3a88:	04c95783          	lhu	a5,76(s2)
    3a8c:	8522                	mv	a0,s0
    3a8e:	00f9e9b3          	or	s3,s3,a5
    3a92:	05391623          	sh	s3,76(s2)
    3a96:	f84ff0ef          	jal	ra,321a <eshup1>
    3a9a:	14fd                	addi	s1,s1,-1
    3a9c:	b775                	j	3a48 <eiremain+0x36>

00003a9e <emul>:
    3a9e:	7175                	addi	sp,sp,-144
    3aa0:	c522                	sw	s0,136(sp)
    3aa2:	c326                	sw	s1,132(sp)
    3aa4:	c14a                	sw	s2,128(sp)
    3aa6:	dece                	sw	s3,124(sp)
    3aa8:	c706                	sw	ra,140(sp)
    3aaa:	dcd2                	sw	s4,120(sp)
    3aac:	dad6                	sw	s5,116(sp)
    3aae:	d8da                	sw	s6,112(sp)
    3ab0:	d6de                	sw	s7,108(sp)
    3ab2:	d4e2                	sw	s8,104(sp)
    3ab4:	d2e6                	sw	s9,100(sp)
    3ab6:	84aa                	mv	s1,a0
    3ab8:	842e                	mv	s0,a1
    3aba:	8932                	mv	s2,a2
    3abc:	89b6                	mv	s3,a3
    3abe:	30dd                	jal	33a4 <eisnan>
    3ac0:	c115                	beqz	a0,3ae4 <emul+0x46>
    3ac2:	85ca                	mv	a1,s2
    3ac4:	8526                	mv	a0,s1
    3ac6:	eb2ff0ef          	jal	ra,3178 <emov>
    3aca:	40ba                	lw	ra,140(sp)
    3acc:	442a                	lw	s0,136(sp)
    3ace:	449a                	lw	s1,132(sp)
    3ad0:	490a                	lw	s2,128(sp)
    3ad2:	59f6                	lw	s3,124(sp)
    3ad4:	5a66                	lw	s4,120(sp)
    3ad6:	5ad6                	lw	s5,116(sp)
    3ad8:	5b46                	lw	s6,112(sp)
    3ada:	5bb6                	lw	s7,108(sp)
    3adc:	5c26                	lw	s8,104(sp)
    3ade:	5c96                	lw	s9,100(sp)
    3ae0:	6149                	addi	sp,sp,144
    3ae2:	8082                	ret
    3ae4:	8522                	mv	a0,s0
    3ae6:	387d                	jal	33a4 <eisnan>
    3ae8:	c501                	beqz	a0,3af0 <emul+0x52>
    3aea:	85ca                	mv	a1,s2
    3aec:	8522                	mv	a0,s0
    3aee:	bfe1                	j	3ac6 <emul+0x28>
    3af0:	8526                	mv	a0,s1
    3af2:	3c0d                	jal	3524 <eisinf>
    3af4:	ed0d                	bnez	a0,3b2e <emul+0x90>
    3af6:	8522                	mv	a0,s0
    3af8:	3435                	jal	3524 <eisinf>
    3afa:	c519                	beqz	a0,3b08 <emul+0x6a>
    3afc:	65b5                	lui	a1,0xd
    3afe:	b2c58593          	addi	a1,a1,-1236 # cb2c <ezero>
    3b02:	8526                	mv	a0,s1
    3b04:	3ab5                	jal	3480 <ecmp>
    3b06:	c915                	beqz	a0,3b3a <emul+0x9c>
    3b08:	8526                	mv	a0,s1
    3b0a:	3c29                	jal	3524 <eisinf>
    3b0c:	e501                	bnez	a0,3b14 <emul+0x76>
    3b0e:	8522                	mv	a0,s0
    3b10:	3c11                	jal	3524 <eisinf>
    3b12:	c915                	beqz	a0,3b46 <emul+0xa8>
    3b14:	8526                	mv	a0,s1
    3b16:	3855                	jal	33ca <eisneg>
    3b18:	84aa                	mv	s1,a0
    3b1a:	8522                	mv	a0,s0
    3b1c:	307d                	jal	33ca <eisneg>
    3b1e:	02a48163          	beq	s1,a0,3b40 <emul+0xa2>
    3b22:	77e1                	lui	a5,0xffff8
    3b24:	00f91923          	sh	a5,18(s2)
    3b28:	854a                	mv	a0,s2
    3b2a:	3c31                	jal	3546 <einfin.isra.2>
    3b2c:	bf79                	j	3aca <emul+0x2c>
    3b2e:	65b5                	lui	a1,0xd
    3b30:	b2c58593          	addi	a1,a1,-1236 # cb2c <ezero>
    3b34:	8522                	mv	a0,s0
    3b36:	32a9                	jal	3480 <ecmp>
    3b38:	fd5d                	bnez	a0,3af6 <emul+0x58>
    3b3a:	854a                	mv	a0,s2
    3b3c:	3679                	jal	36ca <enan.constprop.12>
    3b3e:	b771                	j	3aca <emul+0x2c>
    3b40:	00091923          	sh	zero,18(s2)
    3b44:	b7d5                	j	3b28 <emul+0x8a>
    3b46:	8526                	mv	a0,s1
    3b48:	006c                	addi	a1,sp,12
    3b4a:	3879                	jal	33e8 <emovi>
    3b4c:	8522                	mv	a0,s0
    3b4e:	102c                	addi	a1,sp,40
    3b50:	3861                	jal	33e8 <emovi>
    3b52:	00e15403          	lhu	s0,14(sp)
    3b56:	02a15483          	lhu	s1,42(sp)
    3b5a:	ec09                	bnez	s0,3b74 <emul+0xd6>
    3b5c:	4781                	li	a5,0
    3b5e:	4759                	li	a4,22
    3b60:	0070                	addi	a2,sp,12
    3b62:	00f606b3          	add	a3,a2,a5
    3b66:	0026d683          	lhu	a3,2(a3)
    3b6a:	c2f9                	beqz	a3,3c30 <emul+0x192>
    3b6c:	8532                	mv	a0,a2
    3b6e:	3cc1                	jal	363e <enormlz>
    3b70:	40a00433          	neg	s0,a0
    3b74:	02a15783          	lhu	a5,42(sp)
    3b78:	8c26                	mv	s8,s1
    3b7a:	ef81                	bnez	a5,3b92 <emul+0xf4>
    3b7c:	4759                	li	a4,22
    3b7e:	1030                	addi	a2,sp,40
    3b80:	00f606b3          	add	a3,a2,a5
    3b84:	0026d683          	lhu	a3,2(a3)
    3b88:	cadd                	beqz	a3,3c3e <emul+0x1a0>
    3b8a:	8532                	mv	a0,a2
    3b8c:	3c4d                	jal	363e <enormlz>
    3b8e:	40a48c33          	sub	s8,s1,a0
    3b92:	02815783          	lhu	a5,40(sp)
    3b96:	03498b93          	addi	s7,s3,52
    3b9a:	02f99a23          	sh	a5,52(s3)
    3b9e:	02a15783          	lhu	a5,42(sp)
    3ba2:	03898493          	addi	s1,s3,56
    3ba6:	02f99b23          	sh	a5,54(s3)
    3baa:	8a5e                	mv	s4,s7
    3bac:	04e98793          	addi	a5,s3,78
    3bb0:	00049023          	sh	zero,0(s1)
    3bb4:	0489                	addi	s1,s1,2
    3bb6:	fe979de3          	bne	a5,s1,3bb0 <emul+0x112>
    3bba:	4a81                	li	s5,0
    3bbc:	4b01                	li	s6,0
    3bbe:	5cb1                	li	s9,-20
    3bc0:	0078                	addi	a4,sp,12
    3bc2:	015707b3          	add	a5,a4,s5
    3bc6:	0187d503          	lhu	a0,24(a5) # ffff8018 <pulp__FC+0xffff8019>
    3bca:	c909                	beqz	a0,3bdc <emul+0x13e>
    3bcc:	102c                	addi	a1,sp,40
    3bce:	00d0                	addi	a2,sp,68
    3bd0:	f5eff0ef          	jal	ra,332e <m16m>
    3bd4:	85de                	mv	a1,s7
    3bd6:	00c8                	addi	a0,sp,68
    3bd8:	f02ff0ef          	jal	ra,32da <eaddm>
    3bdc:	04c9d783          	lhu	a5,76(s3)
    3be0:	855e                	mv	a0,s7
    3be2:	1af9                	addi	s5,s5,-2
    3be4:	00fb6b33          	or	s6,s6,a5
    3be8:	ed0ff0ef          	jal	ra,32b8 <eshdn6>
    3bec:	fd9a9ae3          	bne	s5,s9,3bc0 <emul+0x122>
    3bf0:	103c                	addi	a5,sp,40
    3bf2:	000a5703          	lhu	a4,0(s4)
    3bf6:	0a09                	addi	s4,s4,2
    3bf8:	00e79023          	sh	a4,0(a5)
    3bfc:	0789                	addi	a5,a5,2
    3bfe:	fe9a1ae3          	bne	s4,s1,3bf2 <emul+0x154>
    3c02:	76f1                	lui	a3,0xffffc
    3c04:	9462                	add	s0,s0,s8
    3c06:	0689                	addi	a3,a3,2
    3c08:	87ce                	mv	a5,s3
    3c0a:	04000713          	li	a4,64
    3c0e:	96a2                	add	a3,a3,s0
    3c10:	4601                	li	a2,0
    3c12:	85da                	mv	a1,s6
    3c14:	1028                	addi	a0,sp,40
    3c16:	36c9                	jal	37d8 <emdnorm>
    3c18:	00c15703          	lhu	a4,12(sp)
    3c1c:	02815783          	lhu	a5,40(sp)
    3c20:	02f71363          	bne	a4,a5,3c46 <emul+0x1a8>
    3c24:	02011423          	sh	zero,40(sp)
    3c28:	85ca                	mv	a1,s2
    3c2a:	1028                	addi	a0,sp,40
    3c2c:	3c55                	jal	36e0 <emovo.isra.6>
    3c2e:	bd71                	j	3aca <emul+0x2c>
    3c30:	0789                	addi	a5,a5,2
    3c32:	f2e797e3          	bne	a5,a4,3b60 <emul+0xc2>
    3c36:	854a                	mv	a0,s2
    3c38:	d30ff0ef          	jal	ra,3168 <eclear>
    3c3c:	b579                	j	3aca <emul+0x2c>
    3c3e:	0789                	addi	a5,a5,2
    3c40:	f2e79fe3          	bne	a5,a4,3b7e <emul+0xe0>
    3c44:	bfcd                	j	3c36 <emul+0x198>
    3c46:	57fd                	li	a5,-1
    3c48:	02f11423          	sh	a5,40(sp)
    3c4c:	bff1                	j	3c28 <emul+0x18a>

00003c4e <ediv>:
    3c4e:	7175                	addi	sp,sp,-144
    3c50:	c522                	sw	s0,136(sp)
    3c52:	c326                	sw	s1,132(sp)
    3c54:	c14a                	sw	s2,128(sp)
    3c56:	dad6                	sw	s5,116(sp)
    3c58:	c706                	sw	ra,140(sp)
    3c5a:	dece                	sw	s3,124(sp)
    3c5c:	dcd2                	sw	s4,120(sp)
    3c5e:	d8da                	sw	s6,112(sp)
    3c60:	d6de                	sw	s7,108(sp)
    3c62:	d4e2                	sw	s8,104(sp)
    3c64:	d2e6                	sw	s9,100(sp)
    3c66:	d0ea                	sw	s10,96(sp)
    3c68:	84aa                	mv	s1,a0
    3c6a:	842e                	mv	s0,a1
    3c6c:	8932                	mv	s2,a2
    3c6e:	8ab6                	mv	s5,a3
    3c70:	f34ff0ef          	jal	ra,33a4 <eisnan>
    3c74:	c11d                	beqz	a0,3c9a <ediv+0x4c>
    3c76:	85ca                	mv	a1,s2
    3c78:	8526                	mv	a0,s1
    3c7a:	cfeff0ef          	jal	ra,3178 <emov>
    3c7e:	40ba                	lw	ra,140(sp)
    3c80:	442a                	lw	s0,136(sp)
    3c82:	449a                	lw	s1,132(sp)
    3c84:	490a                	lw	s2,128(sp)
    3c86:	59f6                	lw	s3,124(sp)
    3c88:	5a66                	lw	s4,120(sp)
    3c8a:	5ad6                	lw	s5,116(sp)
    3c8c:	5b46                	lw	s6,112(sp)
    3c8e:	5bb6                	lw	s7,108(sp)
    3c90:	5c26                	lw	s8,104(sp)
    3c92:	5c96                	lw	s9,100(sp)
    3c94:	5d06                	lw	s10,96(sp)
    3c96:	6149                	addi	sp,sp,144
    3c98:	8082                	ret
    3c9a:	8522                	mv	a0,s0
    3c9c:	f08ff0ef          	jal	ra,33a4 <eisnan>
    3ca0:	c501                	beqz	a0,3ca8 <ediv+0x5a>
    3ca2:	85ca                	mv	a1,s2
    3ca4:	8522                	mv	a0,s0
    3ca6:	bfd1                	j	3c7a <ediv+0x2c>
    3ca8:	69b5                	lui	s3,0xd
    3caa:	b2c98593          	addi	a1,s3,-1236 # cb2c <ezero>
    3cae:	8526                	mv	a0,s1
    3cb0:	fd0ff0ef          	jal	ra,3480 <ecmp>
    3cb4:	16050563          	beqz	a0,3e1e <ediv+0x1d0>
    3cb8:	8526                	mv	a0,s1
    3cba:	30ad                	jal	3524 <eisinf>
    3cbc:	89aa                	mv	s3,a0
    3cbe:	8522                	mv	a0,s0
    3cc0:	3095                	jal	3524 <eisinf>
    3cc2:	16099863          	bnez	s3,3e32 <ediv+0x1e4>
    3cc6:	16051b63          	bnez	a0,3e3c <ediv+0x1ee>
    3cca:	8526                	mv	a0,s1
    3ccc:	006c                	addi	a1,sp,12
    3cce:	f1aff0ef          	jal	ra,33e8 <emovi>
    3cd2:	8522                	mv	a0,s0
    3cd4:	102c                	addi	a1,sp,40
    3cd6:	f12ff0ef          	jal	ra,33e8 <emovi>
    3cda:	02a15483          	lhu	s1,42(sp)
    3cde:	00e15403          	lhu	s0,14(sp)
    3ce2:	ec91                	bnez	s1,3cfe <ediv+0xb0>
    3ce4:	4781                	li	a5,0
    3ce6:	4759                	li	a4,22
    3ce8:	1030                	addi	a2,sp,40
    3cea:	00f606b3          	add	a3,a2,a5
    3cee:	0026d683          	lhu	a3,2(a3) # ffffc002 <pulp__FC+0xffffc003>
    3cf2:	16068563          	beqz	a3,3e5c <ediv+0x20e>
    3cf6:	8532                	mv	a0,a2
    3cf8:	3299                	jal	363e <enormlz>
    3cfa:	40a004b3          	neg	s1,a0
    3cfe:	00e15783          	lhu	a5,14(sp)
    3d02:	8ba2                	mv	s7,s0
    3d04:	ef89                	bnez	a5,3d1e <ediv+0xd0>
    3d06:	4759                	li	a4,22
    3d08:	0070                	addi	a2,sp,12
    3d0a:	00f606b3          	add	a3,a2,a5
    3d0e:	0026d683          	lhu	a3,2(a3)
    3d12:	14068963          	beqz	a3,3e64 <ediv+0x216>
    3d16:	8532                	mv	a0,a2
    3d18:	321d                	jal	363e <enormlz>
    3d1a:	40a40bb3          	sub	s7,s0,a0
    3d1e:	02815783          	lhu	a5,40(sp)
    3d22:	02a15703          	lhu	a4,42(sp)
    3d26:	02fa9a23          	sh	a5,52(s5)
    3d2a:	038a8793          	addi	a5,s5,56
    3d2e:	02ea9b23          	sh	a4,54(s5)
    3d32:	034a8993          	addi	s3,s5,52
    3d36:	04ea8713          	addi	a4,s5,78
    3d3a:	8a3e                	mv	s4,a5
    3d3c:	0789                	addi	a5,a5,2
    3d3e:	fe079f23          	sh	zero,-2(a5)
    3d42:	fee79de3          	bne	a5,a4,3d3c <ediv+0xee>
    3d46:	1028                	addi	a0,sp,40
    3d48:	c9cff0ef          	jal	ra,31e4 <eshdn1>
    3d4c:	6b41                	lui	s6,0x10
    3d4e:	01215c03          	lhu	s8,18(sp)
    3d52:	1b7d                	addi	s6,s6,-1
    3d54:	036c0d33          	mul	s10,s8,s6
    3d58:	01a98c93          	addi	s9,s3,26
    3d5c:	02c15783          	lhu	a5,44(sp)
    3d60:	02e15403          	lhu	s0,46(sp)
    3d64:	07c2                	slli	a5,a5,0x10
    3d66:	97a2                	add	a5,a5,s0
    3d68:	845a                	mv	s0,s6
    3d6a:	00fd6663          	bltu	s10,a5,3d76 <ediv+0x128>
    3d6e:	0387d433          	divu	s0,a5,s8
    3d72:	0442                	slli	s0,s0,0x10
    3d74:	8041                	srli	s0,s0,0x10
    3d76:	006c                	addi	a1,sp,12
    3d78:	8522                	mv	a0,s0
    3d7a:	00d0                	addi	a2,sp,68
    3d7c:	db2ff0ef          	jal	ra,332e <m16m>
    3d80:	102c                	addi	a1,sp,40
    3d82:	00c8                	addi	a0,sp,68
    3d84:	c36ff0ef          	jal	ra,31ba <ecmpm>
    3d88:	00a05f63          	blez	a0,3da6 <ediv+0x158>
    3d8c:	00cc                	addi	a1,sp,68
    3d8e:	0068                	addi	a0,sp,12
    3d90:	d74ff0ef          	jal	ra,3304 <esubm>
    3d94:	102c                	addi	a1,sp,40
    3d96:	00c8                	addi	a0,sp,68
    3d98:	c22ff0ef          	jal	ra,31ba <ecmpm>
    3d9c:	0ea04063          	bgtz	a0,3e7c <ediv+0x22e>
    3da0:	147d                	addi	s0,s0,-1
    3da2:	0442                	slli	s0,s0,0x10
    3da4:	8041                	srli	s0,s0,0x10
    3da6:	102c                	addi	a1,sp,40
    3da8:	00c8                	addi	a0,sp,68
    3daa:	d5aff0ef          	jal	ra,3304 <esubm>
    3dae:	1028                	addi	a0,sp,40
    3db0:	008a1023          	sh	s0,0(s4)
    3db4:	0a09                	addi	s4,s4,2
    3db6:	ce6ff0ef          	jal	ra,329c <eshup6>
    3dba:	fb9a11e3          	bne	s4,s9,3d5c <ediv+0x10e>
    3dbe:	4781                	li	a5,0
    3dc0:	4581                	li	a1,0
    3dc2:	4759                	li	a4,22
    3dc4:	1030                	addi	a2,sp,40
    3dc6:	00f606b3          	add	a3,a2,a5
    3dca:	0046d683          	lhu	a3,4(a3)
    3dce:	0789                	addi	a5,a5,2
    3dd0:	8dd5                	or	a1,a1,a3
    3dd2:	fee799e3          	bne	a5,a4,3dc4 <ediv+0x176>
    3dd6:	00b035b3          	snez	a1,a1
    3dda:	0ff5f593          	andi	a1,a1,255
    3dde:	87b2                	mv	a5,a2
    3de0:	0009d703          	lhu	a4,0(s3)
    3de4:	0989                	addi	s3,s3,2
    3de6:	00e79023          	sh	a4,0(a5)
    3dea:	0789                	addi	a5,a5,2
    3dec:	ff3a1ae3          	bne	s4,s3,3de0 <ediv+0x192>
    3df0:	6691                	lui	a3,0x4
    3df2:	417484b3          	sub	s1,s1,s7
    3df6:	16fd                	addi	a3,a3,-1
    3df8:	87d6                	mv	a5,s5
    3dfa:	04000713          	li	a4,64
    3dfe:	96a6                	add	a3,a3,s1
    3e00:	4601                	li	a2,0
    3e02:	1028                	addi	a0,sp,40
    3e04:	3ad1                	jal	37d8 <emdnorm>
    3e06:	00c15703          	lhu	a4,12(sp)
    3e0a:	02815783          	lhu	a5,40(sp)
    3e0e:	06f71f63          	bne	a4,a5,3e8c <ediv+0x23e>
    3e12:	02011423          	sh	zero,40(sp)
    3e16:	85ca                	mv	a1,s2
    3e18:	1028                	addi	a0,sp,40
    3e1a:	30d9                	jal	36e0 <emovo.isra.6>
    3e1c:	b58d                	j	3c7e <ediv+0x30>
    3e1e:	b2c98593          	addi	a1,s3,-1236
    3e22:	8522                	mv	a0,s0
    3e24:	e5cff0ef          	jal	ra,3480 <ecmp>
    3e28:	e80518e3          	bnez	a0,3cb8 <ediv+0x6a>
    3e2c:	854a                	mv	a0,s2
    3e2e:	3871                	jal	36ca <enan.constprop.12>
    3e30:	b5b9                	j	3c7e <ediv+0x30>
    3e32:	fd6d                	bnez	a0,3e2c <ediv+0x1de>
    3e34:	854a                	mv	a0,s2
    3e36:	b32ff0ef          	jal	ra,3168 <eclear>
    3e3a:	b591                	j	3c7e <ediv+0x30>
    3e3c:	8526                	mv	a0,s1
    3e3e:	d8cff0ef          	jal	ra,33ca <eisneg>
    3e42:	84aa                	mv	s1,a0
    3e44:	8522                	mv	a0,s0
    3e46:	d84ff0ef          	jal	ra,33ca <eisneg>
    3e4a:	02a48663          	beq	s1,a0,3e76 <ediv+0x228>
    3e4e:	77e1                	lui	a5,0xffff8
    3e50:	00f91923          	sh	a5,18(s2)
    3e54:	854a                	mv	a0,s2
    3e56:	ef0ff0ef          	jal	ra,3546 <einfin.isra.2>
    3e5a:	b515                	j	3c7e <ediv+0x30>
    3e5c:	0789                	addi	a5,a5,2
    3e5e:	e8e795e3          	bne	a5,a4,3ce8 <ediv+0x9a>
    3e62:	bfc9                	j	3e34 <ediv+0x1e6>
    3e64:	0789                	addi	a5,a5,2
    3e66:	eae791e3          	bne	a5,a4,3d08 <ediv+0xba>
    3e6a:	00c15703          	lhu	a4,12(sp)
    3e6e:	02815783          	lhu	a5,40(sp)
    3e72:	fcf71ee3          	bne	a4,a5,3e4e <ediv+0x200>
    3e76:	00091923          	sh	zero,18(s2)
    3e7a:	bfe9                	j	3e54 <ediv+0x206>
    3e7c:	1479                	addi	s0,s0,-2
    3e7e:	0442                	slli	s0,s0,0x10
    3e80:	00cc                	addi	a1,sp,68
    3e82:	0068                	addi	a0,sp,12
    3e84:	8041                	srli	s0,s0,0x10
    3e86:	c7eff0ef          	jal	ra,3304 <esubm>
    3e8a:	bf31                	j	3da6 <ediv+0x158>
    3e8c:	57fd                	li	a5,-1
    3e8e:	02f11423          	sh	a5,40(sp)
    3e92:	b751                	j	3e16 <ediv+0x1c8>

00003e94 <_ldtoa_r>:
    3e94:	7105                	addi	sp,sp,-480
    3e96:	0005ae03          	lw	t3,0(a1)
    3e9a:	0045a303          	lw	t1,4(a1)
    3e9e:	0085a883          	lw	a7,8(a1)
    3ea2:	45cc                	lw	a1,12(a1)
    3ea4:	1c812c23          	sw	s0,472(sp)
    3ea8:	843e                	mv	s0,a5
    3eaa:	57fd                	li	a5,-1
    3eac:	d62e                	sw	a1,44(sp)
    3eae:	14f12823          	sw	a5,336(sp)
    3eb2:	412c                	lw	a1,64(a0)
    3eb4:	09000793          	li	a5,144
    3eb8:	1d412423          	sw	s4,456(sp)
    3ebc:	1d512223          	sw	s5,452(sp)
    3ec0:	1b712e23          	sw	s7,444(sp)
    3ec4:	1b912a23          	sw	s9,436(sp)
    3ec8:	1c112e23          	sw	ra,476(sp)
    3ecc:	1c912a23          	sw	s1,468(sp)
    3ed0:	1d212823          	sw	s2,464(sp)
    3ed4:	1d312623          	sw	s3,460(sp)
    3ed8:	1d612023          	sw	s6,448(sp)
    3edc:	1b812c23          	sw	s8,440(sp)
    3ee0:	1ba12823          	sw	s10,432(sp)
    3ee4:	1bb12623          	sw	s11,428(sp)
    3ee8:	cc42                	sw	a6,24(sp)
    3eea:	d072                	sw	t3,32(sp)
    3eec:	d21a                	sw	t1,36(sp)
    3eee:	d446                	sw	a7,40(sp)
    3ef0:	14f12a23          	sw	a5,340(sp)
    3ef4:	8a2a                	mv	s4,a0
    3ef6:	8bb2                	mv	s7,a2
    3ef8:	8ab6                	mv	s5,a3
    3efa:	8cba                	mv	s9,a4
    3efc:	c999                	beqz	a1,3f12 <_ldtoa_r+0x7e>
    3efe:	417c                	lw	a5,68(a0)
    3f00:	4705                	li	a4,1
    3f02:	00f71733          	sll	a4,a4,a5
    3f06:	c1dc                	sw	a5,4(a1)
    3f08:	c598                	sw	a4,8(a1)
    3f0a:	0dc010ef          	jal	ra,4fe6 <_Bfree>
    3f0e:	040a2023          	sw	zero,64(s4)
    3f12:	1008                	addi	a0,sp,32
    3f14:	088c                	addi	a1,sp,80
    3f16:	3821                	jal	372e <e113toe.isra.8>
    3f18:	0888                	addi	a0,sp,80
    3f1a:	cb0ff0ef          	jal	ra,33ca <eisneg>
    3f1e:	14050b63          	beqz	a0,4074 <_ldtoa_r+0x1e0>
    3f22:	4785                	li	a5,1
    3f24:	c01c                	sw	a5,0(s0)
    3f26:	478d                	li	a5,3
    3f28:	14fb8963          	beq	s7,a5,407a <_ldtoa_r+0x1e6>
    3f2c:	4951                	li	s2,20
    3f2e:	000b8a63          	beqz	s7,3f42 <_ldtoa_r+0xae>
    3f32:	fffa8913          	addi	s2,s5,-1
    3f36:	02a00793          	li	a5,42
    3f3a:	0127d463          	ble	s2,a5,3f42 <_ldtoa_r+0xae>
    3f3e:	02a00913          	li	s2,42
    3f42:	15412603          	lw	a2,340(sp)
    3f46:	0888                	addi	a0,sp,80
    3f48:	ce32                	sw	a2,28(sp)
    3f4a:	c5aff0ef          	jal	ra,33a4 <eisnan>
    3f4e:	842a                	mv	s0,a0
    3f50:	12050763          	beqz	a0,407e <_ldtoa_r+0x1ea>
    3f54:	0000d5b7          	lui	a1,0xd
    3f58:	d8058593          	addi	a1,a1,-640 # cd80 <emtens+0x104>
    3f5c:	0a48                	addi	a0,sp,276
    3f5e:	6409                	lui	s0,0x2
    3f60:	5d9010ef          	jal	ra,5d38 <sprintf>
    3f64:	70f40413          	addi	s0,s0,1807 # 270f <__register_exitproc+0x35>
    3f68:	46f2                	lw	a3,28(sp)
    3f6a:	0888                	addi	a0,sp,80
    3f6c:	14d12a23          	sw	a3,340(sp)
    3f70:	16812023          	sw	s0,352(sp)
    3f74:	db0ff0ef          	jal	ra,3524 <eisinf>
    3f78:	11410993          	addi	s3,sp,276
    3f7c:	e511                	bnez	a0,3f88 <_ldtoa_r+0xf4>
    3f7e:	0888                	addi	a0,sp,80
    3f80:	c24ff0ef          	jal	ra,33a4 <eisnan>
    3f84:	76050d63          	beqz	a0,46fe <_ldtoa_r+0x86a>
    3f88:	6789                	lui	a5,0x2
    3f8a:	70f78793          	addi	a5,a5,1807 # 270f <__register_exitproc+0x35>
    3f8e:	00fca023          	sw	a5,0(s9)
    3f92:	87ce                	mv	a5,s3
    3f94:	02000613          	li	a2,32
    3f98:	02d00693          	li	a3,45
    3f9c:	0007c703          	lbu	a4,0(a5)
    3fa0:	7ac70363          	beq	a4,a2,4746 <_ldtoa_r+0x8b2>
    3fa4:	7ad70163          	beq	a4,a3,4746 <_ldtoa_r+0x8b2>
    3fa8:	844e                	mv	s0,s3
    3faa:	0785                	addi	a5,a5,1
    3fac:	fff7c703          	lbu	a4,-1(a5)
    3fb0:	00140693          	addi	a3,s0,1
    3fb4:	fee68fa3          	sb	a4,-1(a3) # 3fff <_ldtoa_r+0x16b>
    3fb8:	78071a63          	bnez	a4,474c <_ldtoa_r+0x8b8>
    3fbc:	4709                	li	a4,2
    3fbe:	4785                	li	a5,1
    3fc0:	00eb8763          	beq	s7,a4,3fce <_ldtoa_r+0x13a>
    3fc4:	16012783          	lw	a5,352(sp)
    3fc8:	0127d363          	ble	s2,a5,3fce <_ldtoa_r+0x13a>
    3fcc:	87ca                	mv	a5,s2
    3fce:	03000693          	li	a3,48
    3fd2:	fff44703          	lbu	a4,-1(s0)
    3fd6:	00d71663          	bne	a4,a3,3fe2 <_ldtoa_r+0x14e>
    3fda:	41340733          	sub	a4,s0,s3
    3fde:	76e7ca63          	blt	a5,a4,4752 <_ldtoa_r+0x8be>
    3fe2:	478d                	li	a5,3
    3fe4:	009a8713          	addi	a4,s5,9
    3fe8:	02fb9163          	bne	s7,a5,400a <_ldtoa_r+0x176>
    3fec:	16012783          	lw	a5,352(sp)
    3ff0:	993e                	add	s2,s2,a5
    3ff2:	00095763          	bgez	s2,4000 <_ldtoa_r+0x16c>
    3ff6:	10010a23          	sb	zero,276(sp)
    3ffa:	000ca023          	sw	zero,0(s9)
    3ffe:	844e                	mv	s0,s3
    4000:	000ca783          	lw	a5,0(s9)
    4004:	9abe                	add	s5,s5,a5
    4006:	003a8713          	addi	a4,s5,3
    400a:	040a2223          	sw	zero,68(s4)
    400e:	4791                	li	a5,4
    4010:	01478693          	addi	a3,a5,20
    4014:	044a2583          	lw	a1,68(s4)
    4018:	74d77263          	bleu	a3,a4,475c <_ldtoa_r+0x8c8>
    401c:	8552                	mv	a0,s4
    401e:	763000ef          	jal	ra,4f80 <_Balloc>
    4022:	04aa2023          	sw	a0,64(s4)
    4026:	85ce                	mv	a1,s3
    4028:	84aa                	mv	s1,a0
    402a:	737010ef          	jal	ra,5f60 <strcpy>
    402e:	4762                	lw	a4,24(sp)
    4030:	c709                	beqz	a4,403a <_ldtoa_r+0x1a6>
    4032:	41340433          	sub	s0,s0,s3
    4036:	9426                	add	s0,s0,s1
    4038:	c300                	sw	s0,0(a4)
    403a:	1dc12083          	lw	ra,476(sp)
    403e:	1d812403          	lw	s0,472(sp)
    4042:	8526                	mv	a0,s1
    4044:	1d012903          	lw	s2,464(sp)
    4048:	1d412483          	lw	s1,468(sp)
    404c:	1cc12983          	lw	s3,460(sp)
    4050:	1c812a03          	lw	s4,456(sp)
    4054:	1c412a83          	lw	s5,452(sp)
    4058:	1c012b03          	lw	s6,448(sp)
    405c:	1bc12b83          	lw	s7,444(sp)
    4060:	1b812c03          	lw	s8,440(sp)
    4064:	1b412c83          	lw	s9,436(sp)
    4068:	1b012d03          	lw	s10,432(sp)
    406c:	1ac12d83          	lw	s11,428(sp)
    4070:	613d                	addi	sp,sp,480
    4072:	8082                	ret
    4074:	00042023          	sw	zero,0(s0)
    4078:	b57d                	j	3f26 <_ldtoa_r+0x92>
    407a:	8956                	mv	s2,s5
    407c:	bd6d                	j	3f36 <_ldtoa_r+0xa2>
    407e:	09000793          	li	a5,144
    4082:	10ec                	addi	a1,sp,108
    4084:	0888                	addi	a0,sp,80
    4086:	14f12a23          	sw	a5,340(sp)
    408a:	8eeff0ef          	jal	ra,3178 <emov>
    408e:	07e15783          	lhu	a5,126(sp)
    4092:	c802                	sw	zero,16(sp)
    4094:	01079713          	slli	a4,a5,0x10
    4098:	8741                	srai	a4,a4,0x10
    409a:	00075a63          	bgez	a4,40ae <_ldtoa_r+0x21a>
    409e:	6721                	lui	a4,0x8
    40a0:	177d                	addi	a4,a4,-1
    40a2:	8ff9                	and	a5,a5,a4
    40a4:	06f11f23          	sh	a5,126(sp)
    40a8:	67c1                	lui	a5,0x10
    40aa:	17fd                	addi	a5,a5,-1
    40ac:	c83e                	sw	a5,16(sp)
    40ae:	6b35                	lui	s6,0xd
    40b0:	b2cb0513          	addi	a0,s6,-1236 # cb2c <ezero>
    40b4:	012c                	addi	a1,sp,136
    40b6:	0551                	addi	a0,a0,20
    40b8:	8c0ff0ef          	jal	ra,3178 <emov>
    40bc:	07e15703          	lhu	a4,126(sp)
    40c0:	64b5                	lui	s1,0xd
    40c2:	b2cb0993          	addi	s3,s6,-1236
    40c6:	b4048493          	addi	s1,s1,-1216 # cb40 <eone>
    40ca:	68071f63          	bnez	a4,4768 <_ldtoa_r+0x8d4>
    40ce:	10f8                	addi	a4,sp,108
    40d0:	4781                	li	a5,0
    40d2:	46a5                	li	a3,9
    40d4:	00075603          	lhu	a2,0(a4) # 8000 <__ascii_wctomb+0x1c>
    40d8:	e271                	bnez	a2,419c <_ldtoa_r+0x308>
    40da:	0785                	addi	a5,a5,1
    40dc:	0709                	addi	a4,a4,2
    40de:	fed79be3          	bne	a5,a3,40d4 <_ldtoa_r+0x240>
    40e2:	018c                	addi	a1,sp,192
    40e4:	0128                	addi	a0,sp,136
    40e6:	b02ff0ef          	jal	ra,33e8 <emovi>
    40ea:	012c                	addi	a1,sp,136
    40ec:	0188                	addi	a0,sp,192
    40ee:	8b0ff0ef          	jal	ra,319e <emovz>
    40f2:	018c                	addi	a1,sp,192
    40f4:	10e8                	addi	a0,sp,108
    40f6:	af2ff0ef          	jal	ra,33e8 <emovi>
    40fa:	10ec                	addi	a1,sp,108
    40fc:	0188                	addi	a0,sp,192
    40fe:	8a0ff0ef          	jal	ra,319e <emovz>
    4102:	0a90                	addi	a2,sp,336
    4104:	10ec                	addi	a1,sp,108
    4106:	0128                	addi	a0,sp,136
    4108:	3229                	jal	3a12 <eiremain>
    410a:	19c15483          	lhu	s1,412(sp)
    410e:	e881                	bnez	s1,411e <_ldtoa_r+0x28a>
    4110:	b2cb0593          	addi	a1,s6,-1236
    4114:	10e8                	addi	a0,sp,108
    4116:	b6aff0ef          	jal	ra,3480 <ecmp>
    411a:	4a051963          	bnez	a0,45cc <_ldtoa_r+0x738>
    411e:	4642                	lw	a2,16(sp)
    4120:	02d00793          	li	a5,45
    4124:	e219                	bnez	a2,412a <_ldtoa_r+0x296>
    4126:	02000793          	li	a5,32
    412a:	10f10a23          	sb	a5,276(sp)
    412e:	478d                	li	a5,3
    4130:	89ca                	mv	s3,s2
    4132:	00fb9863          	bne	s7,a5,4142 <_ldtoa_r+0x2ae>
    4136:	008909b3          	add	s3,s2,s0
    413a:	02a00793          	li	a5,42
    413e:	6537c263          	blt	a5,s3,4782 <_ldtoa_r+0x8ee>
    4142:	47a9                	li	a5,10
    4144:	4af49e63          	bne	s1,a5,4600 <_ldtoa_r+0x76c>
    4148:	678d                	lui	a5,0x3
    414a:	e3178793          	addi	a5,a5,-463 # 2e31 <__sfvwrite_r+0x7d>
    414e:	10f11aa3          	sh	a5,277(sp)
    4152:	11710c13          	addi	s8,sp,279
    4156:	01305963          	blez	s3,4168 <_ldtoa_r+0x2d4>
    415a:	03000793          	li	a5,48
    415e:	10f10ba3          	sb	a5,279(sp)
    4162:	19fd                	addi	s3,s3,-1
    4164:	11810c13          	addi	s8,sp,280
    4168:	0405                	addi	s0,s0,1
    416a:	4a09d563          	bgez	s3,4614 <_ldtoa_r+0x780>
    416e:	0000d5b7          	lui	a1,0xd
    4172:	8622                	mv	a2,s0
    4174:	da458593          	addi	a1,a1,-604 # cda4 <emtens+0x128>
    4178:	8562                	mv	a0,s8
    417a:	3bf010ef          	jal	ra,5d38 <sprintf>
    417e:	b3ed                	j	3f68 <_ldtoa_r+0xd4>
    4180:	0000d5b7          	lui	a1,0xd
    4184:	d9458593          	addi	a1,a1,-620 # cd94 <emtens+0x118>
    4188:	bbd1                	j	3f5c <_ldtoa_r+0xc8>
    418a:	07c11783          	lh	a5,124(sp)
    418e:	0007c763          	bltz	a5,419c <_ldtoa_r+0x308>
    4192:	0000d5b7          	lui	a1,0xd
    4196:	da058593          	addi	a1,a1,-608 # cda0 <emtens+0x124>
    419a:	b3c9                	j	3f5c <_ldtoa_r+0xc8>
    419c:	10ec                	addi	a1,sp,108
    419e:	8526                	mv	a0,s1
    41a0:	ae0ff0ef          	jal	ra,3480 <ecmp>
    41a4:	dd1d                	beqz	a0,40e2 <_ldtoa_r+0x24e>
    41a6:	30055963          	bgez	a0,44b8 <_ldtoa_r+0x624>
    41aa:	114c                	addi	a1,sp,164
    41ac:	10e8                	addi	a0,sp,108
    41ae:	fcbfe0ef          	jal	ra,3178 <emov>
    41b2:	6791                	lui	a5,0x4
    41b4:	08e78793          	addi	a5,a5,142 # 408e <_ldtoa_r+0x1fa>
    41b8:	4741                	li	a4,16
    41ba:	0af11b23          	sh	a5,182(sp)
    41be:	4d01                	li	s10,0
    41c0:	ca3a                	sw	a4,20(sp)
    41c2:	67b5                	lui	a5,0xd
    41c4:	bf478793          	addi	a5,a5,-1036 # cbf4 <etens+0xa0>
    41c8:	0a94                	addi	a3,sp,336
    41ca:	0130                	addi	a2,sp,136
    41cc:	01a78533          	add	a0,a5,s10
    41d0:	114c                	addi	a1,sp,164
    41d2:	3cb5                	jal	3c4e <ediv>
    41d4:	186c                	addi	a1,sp,60
    41d6:	0128                	addi	a0,sp,136
    41d8:	fa1fe0ef          	jal	ra,3178 <emov>
    41dc:	6621                	lui	a2,0x8
    41de:	04e15c03          	lhu	s8,78(sp)
    41e2:	167d                	addi	a2,a2,-1
    41e4:	76f1                	lui	a3,0xffffc
    41e6:	00cc7733          	and	a4,s8,a2
    41ea:	0689                	addi	a3,a3,2
    41ec:	9736                	add	a4,a4,a3
    41ee:	04e04063          	bgtz	a4,422e <_ldtoa_r+0x39a>
    41f2:	0188                	addi	a0,sp,192
    41f4:	f75fe0ef          	jal	ra,3168 <eclear>
    41f8:	0c42                	slli	s8,s8,0x10
    41fa:	410c5c13          	srai	s8,s8,0x10
    41fe:	0a0c5e63          	bgez	s8,42ba <_ldtoa_r+0x426>
    4202:	4781                	li	a5,0
    4204:	1870                	addi	a2,sp,60
    4206:	00f60733          	add	a4,a2,a5
    420a:	0190                	addi	a2,sp,192
    420c:	00075683          	lhu	a3,0(a4)
    4210:	00f60733          	add	a4,a2,a5
    4214:	00075703          	lhu	a4,0(a4)
    4218:	28e68b63          	beq	a3,a4,44ae <_ldtoa_r+0x61a>
    421c:	8526                	mv	a0,s1
    421e:	986ff0ef          	jal	ra,33a4 <eisnan>
    4222:	cd31                	beqz	a0,427e <_ldtoa_r+0x3ea>
    4224:	018c                	addi	a1,sp,192
    4226:	8526                	mv	a0,s1
    4228:	f51fe0ef          	jal	ra,3178 <emov>
    422c:	a079                	j	42ba <_ldtoa_r+0x426>
    422e:	09000793          	li	a5,144
    4232:	40e78db3          	sub	s11,a5,a4
    4236:	018c                	addi	a1,sp,192
    4238:	1868                	addi	a0,sp,60
    423a:	f3ffe0ef          	jal	ra,3178 <emov>
    423e:	07b05e63          	blez	s11,42ba <_ldtoa_r+0x426>
    4242:	0194                	addi	a3,sp,192
    4244:	87ee                	mv	a5,s11
    4246:	463d                	li	a2,15
    4248:	02f64663          	blt	a2,a5,4274 <_ldtoa_r+0x3e0>
    424c:	004dd793          	srli	a5,s11,0x4
    4250:	5641                	li	a2,-16
    4252:	00179693          	slli	a3,a5,0x1
    4256:	02c787b3          	mul	a5,a5,a2
    425a:	97ee                	add	a5,a5,s11
    425c:	0198                	addi	a4,sp,192
    425e:	0786                	slli	a5,a5,0x1
    4260:	96ba                	add	a3,a3,a4
    4262:	97ce                	add	a5,a5,s3
    4264:	0006d703          	lhu	a4,0(a3) # ffffc000 <pulp__FC+0xffffc001>
    4268:	12c7d783          	lhu	a5,300(a5)
    426c:	8ff9                	and	a5,a5,a4
    426e:	00f69023          	sh	a5,0(a3)
    4272:	b759                	j	41f8 <_ldtoa_r+0x364>
    4274:	00069023          	sh	zero,0(a3)
    4278:	17c1                	addi	a5,a5,-16
    427a:	0689                	addi	a3,a3,2
    427c:	b7f1                	j	4248 <_ldtoa_r+0x3b4>
    427e:	0188                	addi	a0,sp,192
    4280:	924ff0ef          	jal	ra,33a4 <eisnan>
    4284:	c501                	beqz	a0,428c <_ldtoa_r+0x3f8>
    4286:	018c                	addi	a1,sp,192
    4288:	852e                	mv	a0,a1
    428a:	bf79                	j	4228 <_ldtoa_r+0x394>
    428c:	8526                	mv	a0,s1
    428e:	a96ff0ef          	jal	ra,3524 <eisinf>
    4292:	8daa                	mv	s11,a0
    4294:	0188                	addi	a0,sp,192
    4296:	a8eff0ef          	jal	ra,3524 <eisinf>
    429a:	8c2a                	mv	s8,a0
    429c:	0e0d8963          	beqz	s11,438e <_ldtoa_r+0x4fa>
    42a0:	c961                	beqz	a0,4370 <_ldtoa_r+0x4dc>
    42a2:	8526                	mv	a0,s1
    42a4:	926ff0ef          	jal	ra,33ca <eisneg>
    42a8:	8c2a                	mv	s8,a0
    42aa:	0188                	addi	a0,sp,192
    42ac:	91eff0ef          	jal	ra,33ca <eisneg>
    42b0:	0cac1063          	bne	s8,a0,4370 <_ldtoa_r+0x4dc>
    42b4:	0188                	addi	a0,sp,192
    42b6:	c14ff0ef          	jal	ra,36ca <enan.constprop.12>
    42ba:	4781                	li	a5,0
    42bc:	0130                	addi	a2,sp,136
    42be:	00f60733          	add	a4,a2,a5
    42c2:	0190                	addi	a2,sp,192
    42c4:	00075683          	lhu	a3,0(a4)
    42c8:	00f60733          	add	a4,a2,a5
    42cc:	00075703          	lhu	a4,0(a4)
    42d0:	00e69c63          	bne	a3,a4,42e8 <_ldtoa_r+0x454>
    42d4:	0789                	addi	a5,a5,2
    42d6:	46c9                	li	a3,18
    42d8:	fed792e3          	bne	a5,a3,42bc <_ldtoa_r+0x428>
    42dc:	114c                	addi	a1,sp,164
    42de:	0128                	addi	a0,sp,136
    42e0:	e99fe0ef          	jal	ra,3178 <emov>
    42e4:	4752                	lw	a4,20(sp)
    42e6:	943a                	add	s0,s0,a4
    42e8:	47d2                	lw	a5,20(sp)
    42ea:	0d51                	addi	s10,s10,20
    42ec:	8385                	srli	a5,a5,0x1
    42ee:	ca3e                	sw	a5,20(sp)
    42f0:	06400793          	li	a5,100
    42f4:	ecfd17e3          	bne	s10,a5,41c2 <_ldtoa_r+0x32e>
    42f8:	0b615783          	lhu	a5,182(sp)
    42fc:	07e15703          	lhu	a4,126(sp)
    4300:	10ec                	addi	a1,sp,108
    4302:	97ba                	add	a5,a5,a4
    4304:	7771                	lui	a4,0xffffc
    4306:	f7270713          	addi	a4,a4,-142 # ffffbf72 <pulp__FC+0xffffbf73>
    430a:	97ba                	add	a5,a5,a4
    430c:	1148                	addi	a0,sp,164
    430e:	0af11b23          	sh	a5,182(sp)
    4312:	e67fe0ef          	jal	ra,3178 <emov>
    4316:	8526                	mv	a0,s1
    4318:	012c                	addi	a1,sp,136
    431a:	e5ffe0ef          	jal	ra,3178 <emov>
    431e:	4481                	li	s1,0
    4320:	6d05                	lui	s10,0x1
    4322:	11898993          	addi	s3,s3,280
    4326:	10400d93          	li	s11,260
    432a:	6635                	lui	a2,0xd
    432c:	b5460613          	addi	a2,a2,-1196 # cb54 <etens>
    4330:	114c                	addi	a1,sp,164
    4332:	854e                	mv	a0,s3
    4334:	00c48c33          	add	s8,s1,a2
    4338:	948ff0ef          	jal	ra,3480 <ecmp>
    433c:	daa043e3          	bgtz	a0,40e2 <_ldtoa_r+0x24e>
    4340:	114c                	addi	a1,sp,164
    4342:	8562                	mv	a0,s8
    4344:	93cff0ef          	jal	ra,3480 <ecmp>
    4348:	00a04e63          	bgtz	a0,4364 <_ldtoa_r+0x4d0>
    434c:	1150                	addi	a2,sp,164
    434e:	85b2                	mv	a1,a2
    4350:	0a94                	addi	a3,sp,336
    4352:	8562                	mv	a0,s8
    4354:	38ed                	jal	3c4e <ediv>
    4356:	0130                	addi	a2,sp,136
    4358:	0a94                	addi	a3,sp,336
    435a:	85b2                	mv	a1,a2
    435c:	8562                	mv	a0,s8
    435e:	f40ff0ef          	jal	ra,3a9e <emul>
    4362:	946a                	add	s0,s0,s10
    4364:	04d1                	addi	s1,s1,20
    4366:	001d5d13          	srli	s10,s10,0x1
    436a:	fdb490e3          	bne	s1,s11,432a <_ldtoa_r+0x496>
    436e:	bb95                	j	40e2 <_ldtoa_r+0x24e>
    4370:	8526                	mv	a0,s1
    4372:	018c                	addi	a1,sp,192
    4374:	e05fe0ef          	jal	ra,3178 <emov>
    4378:	0188                	addi	a0,sp,192
    437a:	82aff0ef          	jal	ra,33a4 <eisnan>
    437e:	fd15                	bnez	a0,42ba <_ldtoa_r+0x426>
    4380:	0d215783          	lhu	a5,210(sp)
    4384:	7761                	lui	a4,0xffff8
    4386:	8fb9                	xor	a5,a5,a4
    4388:	0cf11923          	sh	a5,210(sp)
    438c:	b73d                	j	42ba <_ldtoa_r+0x426>
    438e:	ee051ce3          	bnez	a0,4286 <_ldtoa_r+0x3f2>
    4392:	09ec                	addi	a1,sp,220
    4394:	8526                	mv	a0,s1
    4396:	852ff0ef          	jal	ra,33e8 <emovi>
    439a:	19ac                	addi	a1,sp,248
    439c:	0188                	addi	a0,sp,192
    439e:	84aff0ef          	jal	ra,33e8 <emovi>
    43a2:	0dc15703          	lhu	a4,220(sp)
    43a6:	0fa15d83          	lhu	s11,250(sp)
    43aa:	fff74713          	not	a4,a4
    43ae:	0742                	slli	a4,a4,0x10
    43b0:	0de15783          	lhu	a5,222(sp)
    43b4:	8341                	srli	a4,a4,0x10
    43b6:	0ce11e23          	sh	a4,220(sp)
    43ba:	41b787b3          	sub	a5,a5,s11
    43be:	06f05363          	blez	a5,4424 <_ldtoa_r+0x590>
    43c2:	0a4c                	addi	a1,sp,276
    43c4:	19a8                	addi	a0,sp,248
    43c6:	c63e                	sw	a5,12(sp)
    43c8:	dd7fe0ef          	jal	ra,319e <emovz>
    43cc:	19ac                	addi	a1,sp,248
    43ce:	09e8                	addi	a0,sp,220
    43d0:	dcffe0ef          	jal	ra,319e <emovz>
    43d4:	09ec                	addi	a1,sp,220
    43d6:	0a48                	addi	a0,sp,276
    43d8:	dc7fe0ef          	jal	ra,319e <emovz>
    43dc:	47b2                	lw	a5,12(sp)
    43de:	0fa15d83          	lhu	s11,250(sp)
    43e2:	40f007b3          	neg	a5,a5
    43e6:	f6f00713          	li	a4,-145
    43ea:	06e7c763          	blt	a5,a4,4458 <_ldtoa_r+0x5c4>
    43ee:	85be                	mv	a1,a5
    43f0:	09e8                	addi	a0,sp,220
    43f2:	972ff0ef          	jal	ra,3564 <eshift.part.3>
    43f6:	882a                	mv	a6,a0
    43f8:	0dc15703          	lhu	a4,220(sp)
    43fc:	0f815783          	lhu	a5,248(sp)
    4400:	c642                	sw	a6,12(sp)
    4402:	19ac                	addi	a1,sp,248
    4404:	09e8                	addi	a0,sp,220
    4406:	0af71063          	bne	a4,a5,44a6 <_ldtoa_r+0x612>
    440a:	ed1fe0ef          	jal	ra,32da <eaddm>
    440e:	4832                	lw	a6,12(sp)
    4410:	0a9c                	addi	a5,sp,336
    4412:	04000713          	li	a4,64
    4416:	86ee                	mv	a3,s11
    4418:	8662                	mv	a2,s8
    441a:	85c2                	mv	a1,a6
    441c:	19a8                	addi	a0,sp,248
    441e:	bbaff0ef          	jal	ra,37d8 <emdnorm>
    4422:	a81d                	j	4458 <_ldtoa_r+0x5c4>
    4424:	f3e9                	bnez	a5,43e6 <_ldtoa_r+0x552>
    4426:	19ac                	addi	a1,sp,248
    4428:	09e8                	addi	a0,sp,220
    442a:	c63a                	sw	a4,12(sp)
    442c:	d8ffe0ef          	jal	ra,31ba <ecmpm>
    4430:	4732                	lw	a4,12(sp)
    4432:	e929                	bnez	a0,4484 <_ldtoa_r+0x5f0>
    4434:	0f815783          	lhu	a5,248(sp)
    4438:	00e78663          	beq	a5,a4,4444 <_ldtoa_r+0x5b0>
    443c:	0188                	addi	a0,sp,192
    443e:	d2bfe0ef          	jal	ra,3168 <eclear>
    4442:	bda5                	j	42ba <_ldtoa_r+0x426>
    4444:	000d9f63          	bnez	s11,4462 <_ldtoa_r+0x5ce>
    4448:	0fe11703          	lh	a4,254(sp)
    444c:	4781                	li	a5,0
    444e:	00074b63          	bltz	a4,4464 <_ldtoa_r+0x5d0>
    4452:	19a8                	addi	a0,sp,248
    4454:	dc7fe0ef          	jal	ra,321a <eshup1>
    4458:	018c                	addi	a1,sp,192
    445a:	19a8                	addi	a0,sp,248
    445c:	a84ff0ef          	jal	ra,36e0 <emovo.isra.6>
    4460:	bda9                	j	42ba <_ldtoa_r+0x426>
    4462:	4781                	li	a5,0
    4464:	4759                	li	a4,22
    4466:	19b4                	addi	a3,sp,248
    4468:	00f68633          	add	a2,a3,a5
    446c:	00265603          	lhu	a2,2(a2)
    4470:	c611                	beqz	a2,447c <_ldtoa_r+0x5e8>
    4472:	0d85                	addi	s11,s11,1
    4474:	86ee                	mv	a3,s11
    4476:	0ed11d23          	sh	a3,250(sp)
    447a:	bff9                	j	4458 <_ldtoa_r+0x5c4>
    447c:	0789                	addi	a5,a5,2
    447e:	fee794e3          	bne	a5,a4,4466 <_ldtoa_r+0x5d2>
    4482:	bfcd                	j	4474 <_ldtoa_r+0x5e0>
    4484:	4801                	li	a6,0
    4486:	f6a059e3          	blez	a0,43f8 <_ldtoa_r+0x564>
    448a:	0a4c                	addi	a1,sp,276
    448c:	19a8                	addi	a0,sp,248
    448e:	d11fe0ef          	jal	ra,319e <emovz>
    4492:	19ac                	addi	a1,sp,248
    4494:	09e8                	addi	a0,sp,220
    4496:	d09fe0ef          	jal	ra,319e <emovz>
    449a:	09ec                	addi	a1,sp,220
    449c:	0a48                	addi	a0,sp,276
    449e:	d01fe0ef          	jal	ra,319e <emovz>
    44a2:	8862                	mv	a6,s8
    44a4:	bf91                	j	43f8 <_ldtoa_r+0x564>
    44a6:	e5ffe0ef          	jal	ra,3304 <esubm>
    44aa:	4c05                	li	s8,1
    44ac:	b78d                	j	440e <_ldtoa_r+0x57a>
    44ae:	0789                	addi	a5,a5,2
    44b0:	4749                	li	a4,18
    44b2:	d4e799e3          	bne	a5,a4,4204 <_ldtoa_r+0x370>
    44b6:	b511                	j	42ba <_ldtoa_r+0x426>
    44b8:	07e15783          	lhu	a5,126(sp)
    44bc:	11898c13          	addi	s8,s3,280
    44c0:	cfad                	beqz	a5,453a <_ldtoa_r+0x6a6>
    44c2:	018c                	addi	a1,sp,192
    44c4:	10e8                	addi	a0,sp,108
    44c6:	6c11                	lui	s8,0x4
    44c8:	f21fe0ef          	jal	ra,33e8 <emovi>
    44cc:	1c79                	addi	s8,s8,-2
    44ce:	fd500d13          	li	s10,-43
    44d2:	0d815783          	lhu	a5,216(sp)
    44d6:	8b9d                	andi	a5,a5,7
    44d8:	e7a9                	bnez	a5,4522 <_ldtoa_r+0x68e>
    44da:	114c                	addi	a1,sp,164
    44dc:	0188                	addi	a0,sp,192
    44de:	cc1fe0ef          	jal	ra,319e <emovz>
    44e2:	1148                	addi	a0,sp,164
    44e4:	d01fe0ef          	jal	ra,31e4 <eshdn1>
    44e8:	1148                	addi	a0,sp,164
    44ea:	cfbfe0ef          	jal	ra,31e4 <eshdn1>
    44ee:	114c                	addi	a1,sp,164
    44f0:	0188                	addi	a0,sp,192
    44f2:	de9fe0ef          	jal	ra,32da <eaddm>
    44f6:	0a615783          	lhu	a5,166(sp)
    44fa:	078d                	addi	a5,a5,3
    44fc:	0af11323          	sh	a5,166(sp)
    4500:	0a815783          	lhu	a5,168(sp)
    4504:	efcd                	bnez	a5,45be <_ldtoa_r+0x72a>
    4506:	0bc15783          	lhu	a5,188(sp)
    450a:	ef81                	bnez	a5,4522 <_ldtoa_r+0x68e>
    450c:	0a615783          	lhu	a5,166(sp)
    4510:	00fc6963          	bltu	s8,a5,4522 <_ldtoa_r+0x68e>
    4514:	018c                	addi	a1,sp,192
    4516:	1148                	addi	a0,sp,164
    4518:	147d                	addi	s0,s0,-1
    451a:	c85fe0ef          	jal	ra,319e <emovz>
    451e:	fba41ae3          	bne	s0,s10,44d2 <_ldtoa_r+0x63e>
    4522:	10ec                	addi	a1,sp,108
    4524:	0188                	addi	a0,sp,192
    4526:	9baff0ef          	jal	ra,36e0 <emovo.isra.6>
    452a:	a821                	j	4542 <_ldtoa_r+0x6ae>
    452c:	10f0                	addi	a2,sp,108
    452e:	0a94                	addi	a3,sp,336
    4530:	85b2                	mv	a1,a2
    4532:	8562                	mv	a0,s8
    4534:	d6aff0ef          	jal	ra,3a9e <emul>
    4538:	147d                	addi	s0,s0,-1
    453a:	07c11783          	lh	a5,124(sp)
    453e:	fe07d7e3          	bgez	a5,452c <_ldtoa_r+0x698>
    4542:	018c                	addi	a1,sp,192
    4544:	10e8                	addi	a0,sp,108
    4546:	c33fe0ef          	jal	ra,3178 <emov>
    454a:	012c                	addi	a1,sp,136
    454c:	8526                	mv	a0,s1
    454e:	c2bfe0ef          	jal	ra,3178 <emov>
    4552:	4d01                	li	s10,0
    4554:	7c7d                	lui	s8,0xfffff
    4556:	4d89                	li	s11,2
    4558:	6735                	lui	a4,0xd
    455a:	67b5                	lui	a5,0xd
    455c:	b5470713          	addi	a4,a4,-1196 # cb54 <etens>
    4560:	c7c78793          	addi	a5,a5,-900 # cc7c <emtens>
    4564:	01a709b3          	add	s3,a4,s10
    4568:	018c                	addi	a1,sp,192
    456a:	01a78733          	add	a4,a5,s10
    456e:	8526                	mv	a0,s1
    4570:	c63a                	sw	a4,12(sp)
    4572:	f0ffe0ef          	jal	ra,3480 <ecmp>
    4576:	4732                	lw	a4,12(sp)
    4578:	02a05c63          	blez	a0,45b0 <_ldtoa_r+0x71c>
    457c:	018c                	addi	a1,sp,192
    457e:	853a                	mv	a0,a4
    4580:	f01fe0ef          	jal	ra,3480 <ecmp>
    4584:	00054f63          	bltz	a0,45a2 <_ldtoa_r+0x70e>
    4588:	0190                	addi	a2,sp,192
    458a:	85b2                	mv	a1,a2
    458c:	0a94                	addi	a3,sp,336
    458e:	854e                	mv	a0,s3
    4590:	d0eff0ef          	jal	ra,3a9e <emul>
    4594:	0130                	addi	a2,sp,136
    4596:	0a94                	addi	a3,sp,336
    4598:	85b2                	mv	a1,a2
    459a:	854e                	mv	a0,s3
    459c:	d02ff0ef          	jal	ra,3a9e <emul>
    45a0:	9462                	add	s0,s0,s8
    45a2:	0d51                	addi	s10,s10,20
    45a4:	10400693          	li	a3,260
    45a8:	03bc4c33          	div	s8,s8,s11
    45ac:	fadd16e3          	bne	s10,a3,4558 <_ldtoa_r+0x6c4>
    45b0:	0130                	addi	a2,sp,136
    45b2:	0a94                	addi	a3,sp,336
    45b4:	85a6                	mv	a1,s1
    45b6:	8532                	mv	a0,a2
    45b8:	e96ff0ef          	jal	ra,3c4e <ediv>
    45bc:	b61d                	j	40e2 <_ldtoa_r+0x24e>
    45be:	1148                	addi	a0,sp,164
    45c0:	c25fe0ef          	jal	ra,31e4 <eshdn1>
    45c4:	0a615783          	lhu	a5,166(sp)
    45c8:	0785                	addi	a5,a5,1
    45ca:	bf0d                	j	44fc <_ldtoa_r+0x668>
    45cc:	10e8                	addi	a0,sp,108
    45ce:	c4dfe0ef          	jal	ra,321a <eshup1>
    45d2:	114c                	addi	a1,sp,164
    45d4:	10e8                	addi	a0,sp,108
    45d6:	bc9fe0ef          	jal	ra,319e <emovz>
    45da:	1148                	addi	a0,sp,164
    45dc:	c3ffe0ef          	jal	ra,321a <eshup1>
    45e0:	1148                	addi	a0,sp,164
    45e2:	c39fe0ef          	jal	ra,321a <eshup1>
    45e6:	10ec                	addi	a1,sp,108
    45e8:	1148                	addi	a0,sp,164
    45ea:	cf1fe0ef          	jal	ra,32da <eaddm>
    45ee:	0a90                	addi	a2,sp,336
    45f0:	10ec                	addi	a1,sp,108
    45f2:	0128                	addi	a0,sp,136
    45f4:	c1eff0ef          	jal	ra,3a12 <eiremain>
    45f8:	147d                	addi	s0,s0,-1
    45fa:	19c15483          	lhu	s1,412(sp)
    45fe:	be01                	j	410e <_ldtoa_r+0x27a>
    4600:	03048493          	addi	s1,s1,48
    4604:	02e00793          	li	a5,46
    4608:	10910aa3          	sb	s1,277(sp)
    460c:	10f10b23          	sb	a5,278(sp)
    4610:	11710c13          	addi	s8,sp,279
    4614:	84e2                	mv	s1,s8
    4616:	418487b3          	sub	a5,s1,s8
    461a:	04f9d063          	ble	a5,s3,465a <_ldtoa_r+0x7c6>
    461e:	19c15783          	lhu	a5,412(sp)
    4622:	4711                	li	a4,4
    4624:	fff48c13          	addi	s8,s1,-1
    4628:	b4f753e3          	ble	a5,a4,416e <_ldtoa_r+0x2da>
    462c:	4715                	li	a4,5
    462e:	06e78463          	beq	a5,a4,4696 <_ldtoa_r+0x802>
    4632:	87e2                	mv	a5,s8
    4634:	02e00613          	li	a2,46
    4638:	03800593          	li	a1,56
    463c:	03000693          	li	a3,48
    4640:	17fd                	addi	a5,a5,-1
    4642:	0007c703          	lbu	a4,0(a5)
    4646:	07f77713          	andi	a4,a4,127
    464a:	0809d163          	bgez	s3,46cc <_ldtoa_r+0x838>
    464e:	03100713          	li	a4,49
    4652:	00e78023          	sb	a4,0(a5)
    4656:	0405                	addi	s0,s0,1
    4658:	be19                	j	416e <_ldtoa_r+0x2da>
    465a:	10e8                	addi	a0,sp,108
    465c:	bbffe0ef          	jal	ra,321a <eshup1>
    4660:	114c                	addi	a1,sp,164
    4662:	10e8                	addi	a0,sp,108
    4664:	b3bfe0ef          	jal	ra,319e <emovz>
    4668:	1148                	addi	a0,sp,164
    466a:	bb1fe0ef          	jal	ra,321a <eshup1>
    466e:	1148                	addi	a0,sp,164
    4670:	babfe0ef          	jal	ra,321a <eshup1>
    4674:	10ec                	addi	a1,sp,108
    4676:	1148                	addi	a0,sp,164
    4678:	c63fe0ef          	jal	ra,32da <eaddm>
    467c:	0a90                	addi	a2,sp,336
    467e:	10ec                	addi	a1,sp,108
    4680:	0128                	addi	a0,sp,136
    4682:	b90ff0ef          	jal	ra,3a12 <eiremain>
    4686:	19c14783          	lbu	a5,412(sp)
    468a:	0485                	addi	s1,s1,1
    468c:	03078793          	addi	a5,a5,48
    4690:	fef48fa3          	sb	a5,-1(s1)
    4694:	b749                	j	4616 <_ldtoa_r+0x782>
    4696:	012c                	addi	a1,sp,136
    4698:	10e8                	addi	a0,sp,108
    469a:	846ff0ef          	jal	ra,36e0 <emovo.isra.6>
    469e:	b2cb0593          	addi	a1,s6,-1236
    46a2:	0128                	addi	a0,sp,136
    46a4:	dddfe0ef          	jal	ra,3480 <ecmp>
    46a8:	f549                	bnez	a0,4632 <_ldtoa_r+0x79e>
    46aa:	ac09c2e3          	bltz	s3,416e <_ldtoa_r+0x2da>
    46ae:	ffe4c783          	lbu	a5,-2(s1)
    46b2:	fd278793          	addi	a5,a5,-46
    46b6:	0017b793          	seqz	a5,a5
    46ba:	fff7c793          	not	a5,a5
    46be:	97e2                	add	a5,a5,s8
    46c0:	0007c783          	lbu	a5,0(a5)
    46c4:	8b85                	andi	a5,a5,1
    46c6:	aa0784e3          	beqz	a5,416e <_ldtoa_r+0x2da>
    46ca:	b7a5                	j	4632 <_ldtoa_r+0x79e>
    46cc:	02c71063          	bne	a4,a2,46ec <_ldtoa_r+0x858>
    46d0:	fff7c703          	lbu	a4,-1(a5)
    46d4:	03800693          	li	a3,56
    46d8:	00e6e663          	bltu	a3,a4,46e4 <_ldtoa_r+0x850>
    46dc:	0705                	addi	a4,a4,1
    46de:	fee78fa3          	sb	a4,-1(a5)
    46e2:	b471                	j	416e <_ldtoa_r+0x2da>
    46e4:	0405                	addi	s0,s0,1
    46e6:	03100713          	li	a4,49
    46ea:	bfd5                	j	46de <_ldtoa_r+0x84a>
    46ec:	00e5e663          	bltu	a1,a4,46f8 <_ldtoa_r+0x864>
    46f0:	0705                	addi	a4,a4,1
    46f2:	00e78023          	sb	a4,0(a5)
    46f6:	bca5                	j	416e <_ldtoa_r+0x2da>
    46f8:	00d78023          	sb	a3,0(a5)
    46fc:	b791                	j	4640 <_ldtoa_r+0x7ac>
    46fe:	0405                	addi	s0,s0,1
    4700:	008ca023          	sw	s0,0(s9)
    4704:	87ce                	mv	a5,s3
    4706:	02e00693          	li	a3,46
    470a:	0007c703          	lbu	a4,0(a5)
    470e:	ef09                	bnez	a4,4728 <_ldtoa_r+0x894>
    4710:	04500713          	li	a4,69
    4714:	0007c683          	lbu	a3,0(a5)
    4718:	00e68463          	beq	a3,a4,4720 <_ldtoa_r+0x88c>
    471c:	02f9e363          	bltu	s3,a5,4742 <_ldtoa_r+0x8ae>
    4720:	00078023          	sb	zero,0(a5)
    4724:	86fff06f          	j	3f92 <_ldtoa_r+0xfe>
    4728:	00d70963          	beq	a4,a3,473a <_ldtoa_r+0x8a6>
    472c:	0785                	addi	a5,a5,1
    472e:	bff1                	j	470a <_ldtoa_r+0x876>
    4730:	0017c703          	lbu	a4,1(a5)
    4734:	0785                	addi	a5,a5,1
    4736:	fee78fa3          	sb	a4,-1(a5)
    473a:	0007c703          	lbu	a4,0(a5)
    473e:	fb6d                	bnez	a4,4730 <_ldtoa_r+0x89c>
    4740:	bfc1                	j	4710 <_ldtoa_r+0x87c>
    4742:	17fd                	addi	a5,a5,-1
    4744:	bfc1                	j	4714 <_ldtoa_r+0x880>
    4746:	0785                	addi	a5,a5,1
    4748:	855ff06f          	j	3f9c <_ldtoa_r+0x108>
    474c:	8436                	mv	s0,a3
    474e:	85dff06f          	j	3faa <_ldtoa_r+0x116>
    4752:	147d                	addi	s0,s0,-1
    4754:	00040023          	sb	zero,0(s0)
    4758:	87bff06f          	j	3fd2 <_ldtoa_r+0x13e>
    475c:	0585                	addi	a1,a1,1
    475e:	04ba2223          	sw	a1,68(s4)
    4762:	0786                	slli	a5,a5,0x1
    4764:	8adff06f          	j	4010 <_ldtoa_r+0x17c>
    4768:	67a1                	lui	a5,0x8
    476a:	17fd                	addi	a5,a5,-1
    476c:	a0f71fe3          	bne	a4,a5,418a <_ldtoa_r+0x2f6>
    4770:	46c2                	lw	a3,16(sp)
    4772:	a00687e3          	beqz	a3,4180 <_ldtoa_r+0x2ec>
    4776:	0000d5b7          	lui	a1,0xd
    477a:	d8858593          	addi	a1,a1,-632 # cd88 <emtens+0x10c>
    477e:	fdeff06f          	j	3f5c <_ldtoa_r+0xc8>
    4782:	47a9                	li	a5,10
    4784:	02a00993          	li	s3,42
    4788:	e6f49ce3          	bne	s1,a5,4600 <_ldtoa_r+0x76c>
    478c:	678d                	lui	a5,0x3
    478e:	e3178793          	addi	a5,a5,-463 # 2e31 <__sfvwrite_r+0x7d>
    4792:	10f11aa3          	sh	a5,277(sp)
    4796:	02a00993          	li	s3,42
    479a:	b2c1                	j	415a <_ldtoa_r+0x2c6>

0000479c <_ldcheck>:
    479c:	411c                	lw	a5,0(a0)
    479e:	7139                	addi	sp,sp,-64
    47a0:	c03e                	sw	a5,0(sp)
    47a2:	415c                	lw	a5,4(a0)
    47a4:	084c                	addi	a1,sp,20
    47a6:	c23e                	sw	a5,4(sp)
    47a8:	451c                	lw	a5,8(a0)
    47aa:	de06                	sw	ra,60(sp)
    47ac:	c43e                	sw	a5,8(sp)
    47ae:	455c                	lw	a5,12(a0)
    47b0:	850a                	mv	a0,sp
    47b2:	c63e                	sw	a5,12(sp)
    47b4:	f7bfe0ef          	jal	ra,372e <e113toe.isra.8>
    47b8:	02615783          	lhu	a5,38(sp)
    47bc:	4501                	li	a0,0
    47be:	fff7c793          	not	a5,a5
    47c2:	01179713          	slli	a4,a5,0x11
    47c6:	e719                	bnez	a4,47d4 <_ldcheck+0x38>
    47c8:	0848                	addi	a0,sp,20
    47ca:	bdbfe0ef          	jal	ra,33a4 <eisnan>
    47ce:	00153513          	seqz	a0,a0
    47d2:	0505                	addi	a0,a0,1
    47d4:	50f2                	lw	ra,60(sp)
    47d6:	6121                	addi	sp,sp,64
    47d8:	8082                	ret

000047da <__localeconv_l>:
    47da:	0f050513          	addi	a0,a0,240
    47de:	8082                	ret

000047e0 <_localeconv_r>:
    47e0:	1c01a783          	lw	a5,448(gp) # e038 <_impure_ptr>
    47e4:	5bc8                	lw	a0,52(a5)
    47e6:	e119                	bnez	a0,47ec <_localeconv_r+0xc>
    47e8:	c2818513          	addi	a0,gp,-984 # daa0 <__global_locale>
    47ec:	0f050513          	addi	a0,a0,240
    47f0:	8082                	ret

000047f2 <localeconv>:
    47f2:	1c01a783          	lw	a5,448(gp) # e038 <_impure_ptr>
    47f6:	5bc8                	lw	a0,52(a5)
    47f8:	e119                	bnez	a0,47fe <localeconv+0xc>
    47fa:	c2818513          	addi	a0,gp,-984 # daa0 <__global_locale>
    47fe:	0f050513          	addi	a0,a0,240
    4802:	8082                	ret

00004804 <_setlocale_r>:
    4804:	1141                	addi	sp,sp,-16
    4806:	c226                	sw	s1,4(sp)
    4808:	c606                	sw	ra,12(sp)
    480a:	c422                	sw	s0,8(sp)
    480c:	0000d4b7          	lui	s1,0xd
    4810:	ca0d                	beqz	a2,4842 <_setlocale_r+0x3e>
    4812:	0000d5b7          	lui	a1,0xd
    4816:	dac58593          	addi	a1,a1,-596 # cdac <emtens+0x130>
    481a:	8532                	mv	a0,a2
    481c:	8432                	mv	s0,a2
    481e:	624010ef          	jal	ra,5e42 <strcmp>
    4822:	c105                	beqz	a0,4842 <_setlocale_r+0x3e>
    4824:	da848593          	addi	a1,s1,-600 # cda8 <emtens+0x12c>
    4828:	8522                	mv	a0,s0
    482a:	618010ef          	jal	ra,5e42 <strcmp>
    482e:	c911                	beqz	a0,4842 <_setlocale_r+0x3e>
    4830:	0000c5b7          	lui	a1,0xc
    4834:	1a458593          	addi	a1,a1,420 # c1a4 <__clzsi2+0x92>
    4838:	8522                	mv	a0,s0
    483a:	608010ef          	jal	ra,5e42 <strcmp>
    483e:	4781                	li	a5,0
    4840:	e119                	bnez	a0,4846 <_setlocale_r+0x42>
    4842:	da848793          	addi	a5,s1,-600
    4846:	40b2                	lw	ra,12(sp)
    4848:	4422                	lw	s0,8(sp)
    484a:	4492                	lw	s1,4(sp)
    484c:	853e                	mv	a0,a5
    484e:	0141                	addi	sp,sp,16
    4850:	8082                	ret

00004852 <__locale_mb_cur_max>:
    4852:	1c01a783          	lw	a5,448(gp) # e038 <_impure_ptr>
    4856:	5bdc                	lw	a5,52(a5)
    4858:	e399                	bnez	a5,485e <__locale_mb_cur_max+0xc>
    485a:	c2818793          	addi	a5,gp,-984 # daa0 <__global_locale>
    485e:	1287c503          	lbu	a0,296(a5)
    4862:	8082                	ret

00004864 <__locale_ctype_ptr_l>:
    4864:	0ec52503          	lw	a0,236(a0)
    4868:	8082                	ret

0000486a <__locale_ctype_ptr>:
    486a:	1c01a783          	lw	a5,448(gp) # e038 <_impure_ptr>
    486e:	5bdc                	lw	a5,52(a5)
    4870:	e399                	bnez	a5,4876 <__locale_ctype_ptr+0xc>
    4872:	c2818793          	addi	a5,gp,-984 # daa0 <__global_locale>
    4876:	0ec7a503          	lw	a0,236(a5)
    487a:	8082                	ret

0000487c <setlocale>:
    487c:	862e                	mv	a2,a1
    487e:	85aa                	mv	a1,a0
    4880:	1c01a503          	lw	a0,448(gp) # e038 <_impure_ptr>
    4884:	b741                	j	4804 <_setlocale_r>

00004886 <__swhatbuf_r>:
    4886:	711d                	addi	sp,sp,-96
    4888:	caa6                	sw	s1,84(sp)
    488a:	84ae                	mv	s1,a1
    488c:	00e59583          	lh	a1,14(a1)
    4890:	cca2                	sw	s0,88(sp)
    4892:	ce86                	sw	ra,92(sp)
    4894:	8432                	mv	s0,a2
    4896:	0005dc63          	bgez	a1,48ae <__swhatbuf_r+0x28>
    489a:	00c4d783          	lhu	a5,12(s1)
    489e:	0006a023          	sw	zero,0(a3)
    48a2:	0807f793          	andi	a5,a5,128
    48a6:	eb95                	bnez	a5,48da <__swhatbuf_r+0x54>
    48a8:	40000793          	li	a5,1024
    48ac:	a80d                	j	48de <__swhatbuf_r+0x58>
    48ae:	0850                	addi	a2,sp,20
    48b0:	c636                	sw	a3,12(sp)
    48b2:	1c1030ef          	jal	ra,8272 <_fstat_r>
    48b6:	46b2                	lw	a3,12(sp)
    48b8:	fe0541e3          	bltz	a0,489a <__swhatbuf_r+0x14>
    48bc:	4762                	lw	a4,24(sp)
    48be:	67bd                	lui	a5,0xf
    48c0:	8ff9                	and	a5,a5,a4
    48c2:	7779                	lui	a4,0xffffe
    48c4:	97ba                	add	a5,a5,a4
    48c6:	0017b793          	seqz	a5,a5
    48ca:	c29c                	sw	a5,0(a3)
    48cc:	6505                	lui	a0,0x1
    48ce:	40000793          	li	a5,1024
    48d2:	c01c                	sw	a5,0(s0)
    48d4:	80050513          	addi	a0,a0,-2048 # 800 <main+0x72a>
    48d8:	a029                	j	48e2 <__swhatbuf_r+0x5c>
    48da:	04000793          	li	a5,64
    48de:	c01c                	sw	a5,0(s0)
    48e0:	4501                	li	a0,0
    48e2:	40f6                	lw	ra,92(sp)
    48e4:	4466                	lw	s0,88(sp)
    48e6:	44d6                	lw	s1,84(sp)
    48e8:	6125                	addi	sp,sp,96
    48ea:	8082                	ret

000048ec <__smakebuf_r>:
    48ec:	00c5d783          	lhu	a5,12(a1)
    48f0:	1101                	addi	sp,sp,-32
    48f2:	cc22                	sw	s0,24(sp)
    48f4:	ce06                	sw	ra,28(sp)
    48f6:	ca26                	sw	s1,20(sp)
    48f8:	c84a                	sw	s2,16(sp)
    48fa:	8b89                	andi	a5,a5,2
    48fc:	842e                	mv	s0,a1
    48fe:	cf89                	beqz	a5,4918 <__smakebuf_r+0x2c>
    4900:	04340793          	addi	a5,s0,67
    4904:	c01c                	sw	a5,0(s0)
    4906:	c81c                	sw	a5,16(s0)
    4908:	4785                	li	a5,1
    490a:	c85c                	sw	a5,20(s0)
    490c:	40f2                	lw	ra,28(sp)
    490e:	4462                	lw	s0,24(sp)
    4910:	44d2                	lw	s1,20(sp)
    4912:	4942                	lw	s2,16(sp)
    4914:	6105                	addi	sp,sp,32
    4916:	8082                	ret
    4918:	0074                	addi	a3,sp,12
    491a:	0030                	addi	a2,sp,8
    491c:	84aa                	mv	s1,a0
    491e:	37a5                	jal	4886 <__swhatbuf_r>
    4920:	45a2                	lw	a1,8(sp)
    4922:	892a                	mv	s2,a0
    4924:	8526                	mv	a0,s1
    4926:	2095                	jal	498a <_malloc_r>
    4928:	ed01                	bnez	a0,4940 <__smakebuf_r+0x54>
    492a:	00c41783          	lh	a5,12(s0)
    492e:	2007f713          	andi	a4,a5,512
    4932:	ff69                	bnez	a4,490c <__smakebuf_r+0x20>
    4934:	9bf1                	andi	a5,a5,-4
    4936:	0027e793          	ori	a5,a5,2
    493a:	00f41623          	sh	a5,12(s0)
    493e:	b7c9                	j	4900 <__smakebuf_r+0x14>
    4940:	000037b7          	lui	a5,0x3
    4944:	98a78793          	addi	a5,a5,-1654 # 298a <_cleanup_r>
    4948:	dcdc                	sw	a5,60(s1)
    494a:	00c45783          	lhu	a5,12(s0)
    494e:	c008                	sw	a0,0(s0)
    4950:	0807e793          	ori	a5,a5,128
    4954:	00f41623          	sh	a5,12(s0)
    4958:	47a2                	lw	a5,8(sp)
    495a:	c808                	sw	a0,16(s0)
    495c:	c85c                	sw	a5,20(s0)
    495e:	47b2                	lw	a5,12(sp)
    4960:	cf91                	beqz	a5,497c <__smakebuf_r+0x90>
    4962:	00e41583          	lh	a1,14(s0)
    4966:	8526                	mv	a0,s1
    4968:	139030ef          	jal	ra,82a0 <_isatty_r>
    496c:	c901                	beqz	a0,497c <__smakebuf_r+0x90>
    496e:	00c45783          	lhu	a5,12(s0)
    4972:	9bf1                	andi	a5,a5,-4
    4974:	0017e793          	ori	a5,a5,1
    4978:	00f41623          	sh	a5,12(s0)
    497c:	00c45783          	lhu	a5,12(s0)
    4980:	00f96933          	or	s2,s2,a5
    4984:	01241623          	sh	s2,12(s0)
    4988:	b751                	j	490c <__smakebuf_r+0x20>

0000498a <_malloc_r>:
    498a:	7179                	addi	sp,sp,-48
    498c:	d606                	sw	ra,44(sp)
    498e:	d422                	sw	s0,40(sp)
    4990:	d226                	sw	s1,36(sp)
    4992:	d04a                	sw	s2,32(sp)
    4994:	ce4e                	sw	s3,28(sp)
    4996:	cc52                	sw	s4,24(sp)
    4998:	ca56                	sw	s5,20(sp)
    499a:	c85a                	sw	s6,16(sp)
    499c:	c65e                	sw	s7,12(sp)
    499e:	c462                	sw	s8,8(sp)
    49a0:	00b58793          	addi	a5,a1,11
    49a4:	4759                	li	a4,22
    49a6:	02f77563          	bleu	a5,a4,49d0 <_malloc_r+0x46>
    49aa:	ff87f493          	andi	s1,a5,-8
    49ae:	0204d263          	bgez	s1,49d2 <_malloc_r+0x48>
    49b2:	47b1                	li	a5,12
    49b4:	c11c                	sw	a5,0(a0)
    49b6:	4501                	li	a0,0
    49b8:	50b2                	lw	ra,44(sp)
    49ba:	5422                	lw	s0,40(sp)
    49bc:	5492                	lw	s1,36(sp)
    49be:	5902                	lw	s2,32(sp)
    49c0:	49f2                	lw	s3,28(sp)
    49c2:	4a62                	lw	s4,24(sp)
    49c4:	4ad2                	lw	s5,20(sp)
    49c6:	4b42                	lw	s6,16(sp)
    49c8:	4bb2                	lw	s7,12(sp)
    49ca:	4c22                	lw	s8,8(sp)
    49cc:	6145                	addi	sp,sp,48
    49ce:	8082                	ret
    49d0:	44c1                	li	s1,16
    49d2:	feb4e0e3          	bltu	s1,a1,49b2 <_malloc_r+0x28>
    49d6:	89aa                	mv	s3,a0
    49d8:	2355                	jal	4f7c <__malloc_lock>
    49da:	1f700793          	li	a5,503
    49de:	d9418913          	addi	s2,gp,-620 # dc0c <__malloc_av_>
    49e2:	0297ec63          	bltu	a5,s1,4a1a <_malloc_r+0x90>
    49e6:	00848713          	addi	a4,s1,8
    49ea:	974a                	add	a4,a4,s2
    49ec:	4340                	lw	s0,4(a4)
    49ee:	ff870693          	addi	a3,a4,-8 # ffffdff8 <pulp__FC+0xffffdff9>
    49f2:	0034d793          	srli	a5,s1,0x3
    49f6:	00d41663          	bne	s0,a3,4a02 <_malloc_r+0x78>
    49fa:	4740                	lw	s0,12(a4)
    49fc:	0789                	addi	a5,a5,2
    49fe:	04870c63          	beq	a4,s0,4a56 <_malloc_r+0xcc>
    4a02:	405c                	lw	a5,4(s0)
    4a04:	4458                	lw	a4,12(s0)
    4a06:	4414                	lw	a3,8(s0)
    4a08:	9bf1                	andi	a5,a5,-4
    4a0a:	c6d8                	sw	a4,12(a3)
    4a0c:	c714                	sw	a3,8(a4)
    4a0e:	97a2                	add	a5,a5,s0
    4a10:	43d8                	lw	a4,4(a5)
    4a12:	00176713          	ori	a4,a4,1
    4a16:	c3d8                	sw	a4,4(a5)
    4a18:	a8b5                	j	4a94 <_malloc_r+0x10a>
    4a1a:	0094d713          	srli	a4,s1,0x9
    4a1e:	03f00793          	li	a5,63
    4a22:	cb01                	beqz	a4,4a32 <_malloc_r+0xa8>
    4a24:	4791                	li	a5,4
    4a26:	06e7ec63          	bltu	a5,a4,4a9e <_malloc_r+0x114>
    4a2a:	0064d793          	srli	a5,s1,0x6
    4a2e:	03878793          	addi	a5,a5,56
    4a32:	00178713          	addi	a4,a5,1
    4a36:	070e                	slli	a4,a4,0x3
    4a38:	974a                	add	a4,a4,s2
    4a3a:	4340                	lw	s0,4(a4)
    4a3c:	ff870593          	addi	a1,a4,-8
    4a40:	453d                	li	a0,15
    4a42:	00b40963          	beq	s0,a1,4a54 <_malloc_r+0xca>
    4a46:	4058                	lw	a4,4(s0)
    4a48:	9b71                	andi	a4,a4,-4
    4a4a:	40970633          	sub	a2,a4,s1
    4a4e:	08c55b63          	ble	a2,a0,4ae4 <_malloc_r+0x15a>
    4a52:	17fd                	addi	a5,a5,-1
    4a54:	0785                	addi	a5,a5,1
    4a56:	01092403          	lw	s0,16(s2)
    4a5a:	00890693          	addi	a3,s2,8
    4a5e:	d9c18593          	addi	a1,gp,-612 # dc14 <__malloc_av_+0x8>
    4a62:	0ed40263          	beq	s0,a3,4b46 <_malloc_r+0x1bc>
    4a66:	4058                	lw	a4,4(s0)
    4a68:	463d                	li	a2,15
    4a6a:	9b71                	andi	a4,a4,-4
    4a6c:	40970533          	sub	a0,a4,s1
    4a70:	08a65563          	ble	a0,a2,4afa <_malloc_r+0x170>
    4a74:	0014e793          	ori	a5,s1,1
    4a78:	c05c                	sw	a5,4(s0)
    4a7a:	00940633          	add	a2,s0,s1
    4a7e:	00c92a23          	sw	a2,20(s2)
    4a82:	00c92823          	sw	a2,16(s2)
    4a86:	00156793          	ori	a5,a0,1
    4a8a:	c654                	sw	a3,12(a2)
    4a8c:	c614                	sw	a3,8(a2)
    4a8e:	c25c                	sw	a5,4(a2)
    4a90:	9722                	add	a4,a4,s0
    4a92:	c308                	sw	a0,0(a4)
    4a94:	854e                	mv	a0,s3
    4a96:	21e5                	jal	4f7e <__malloc_unlock>
    4a98:	00840513          	addi	a0,s0,8
    4a9c:	bf31                	j	49b8 <_malloc_r+0x2e>
    4a9e:	47d1                	li	a5,20
    4aa0:	00e7e563          	bltu	a5,a4,4aaa <_malloc_r+0x120>
    4aa4:	05b70793          	addi	a5,a4,91
    4aa8:	b769                	j	4a32 <_malloc_r+0xa8>
    4aaa:	05400793          	li	a5,84
    4aae:	00e7e763          	bltu	a5,a4,4abc <_malloc_r+0x132>
    4ab2:	00c4d793          	srli	a5,s1,0xc
    4ab6:	06e78793          	addi	a5,a5,110
    4aba:	bfa5                	j	4a32 <_malloc_r+0xa8>
    4abc:	15400793          	li	a5,340
    4ac0:	00e7e763          	bltu	a5,a4,4ace <_malloc_r+0x144>
    4ac4:	00f4d793          	srli	a5,s1,0xf
    4ac8:	07778793          	addi	a5,a5,119
    4acc:	b79d                	j	4a32 <_malloc_r+0xa8>
    4ace:	55400693          	li	a3,1364
    4ad2:	07e00793          	li	a5,126
    4ad6:	f4e6eee3          	bltu	a3,a4,4a32 <_malloc_r+0xa8>
    4ada:	0124d793          	srli	a5,s1,0x12
    4ade:	07c78793          	addi	a5,a5,124
    4ae2:	bf81                	j	4a32 <_malloc_r+0xa8>
    4ae4:	4454                	lw	a3,12(s0)
    4ae6:	00064863          	bltz	a2,4af6 <_malloc_r+0x16c>
    4aea:	441c                	lw	a5,8(s0)
    4aec:	c7d4                	sw	a3,12(a5)
    4aee:	c69c                	sw	a5,8(a3)
    4af0:	00e407b3          	add	a5,s0,a4
    4af4:	bf31                	j	4a10 <_malloc_r+0x86>
    4af6:	8436                	mv	s0,a3
    4af8:	b7a9                	j	4a42 <_malloc_r+0xb8>
    4afa:	00d92a23          	sw	a3,20(s2)
    4afe:	00d92823          	sw	a3,16(s2)
    4b02:	00054863          	bltz	a0,4b12 <_malloc_r+0x188>
    4b06:	9722                	add	a4,a4,s0
    4b08:	435c                	lw	a5,4(a4)
    4b0a:	0017e793          	ori	a5,a5,1
    4b0e:	c35c                	sw	a5,4(a4)
    4b10:	b751                	j	4a94 <_malloc_r+0x10a>
    4b12:	1ff00693          	li	a3,511
    4b16:	00492803          	lw	a6,4(s2)
    4b1a:	10e6ef63          	bltu	a3,a4,4c38 <_malloc_r+0x2ae>
    4b1e:	830d                	srli	a4,a4,0x3
    4b20:	40275613          	srai	a2,a4,0x2
    4b24:	4685                	li	a3,1
    4b26:	0705                	addi	a4,a4,1
    4b28:	00c696b3          	sll	a3,a3,a2
    4b2c:	070e                	slli	a4,a4,0x3
    4b2e:	974a                	add	a4,a4,s2
    4b30:	0106e6b3          	or	a3,a3,a6
    4b34:	00d92223          	sw	a3,4(s2)
    4b38:	4314                	lw	a3,0(a4)
    4b3a:	ff870613          	addi	a2,a4,-8
    4b3e:	c450                	sw	a2,12(s0)
    4b40:	c414                	sw	a3,8(s0)
    4b42:	c300                	sw	s0,0(a4)
    4b44:	c6c0                	sw	s0,12(a3)
    4b46:	4027d713          	srai	a4,a5,0x2
    4b4a:	4305                	li	t1,1
    4b4c:	00e31333          	sll	t1,t1,a4
    4b50:	00492703          	lw	a4,4(s2)
    4b54:	04676c63          	bltu	a4,t1,4bac <_malloc_r+0x222>
    4b58:	006776b3          	and	a3,a4,t1
    4b5c:	e699                	bnez	a3,4b6a <_malloc_r+0x1e0>
    4b5e:	9bf1                	andi	a5,a5,-4
    4b60:	0306                	slli	t1,t1,0x1
    4b62:	006776b3          	and	a3,a4,t1
    4b66:	0791                	addi	a5,a5,4
    4b68:	dee5                	beqz	a3,4b60 <_malloc_r+0x1d6>
    4b6a:	4e3d                	li	t3,15
    4b6c:	00379693          	slli	a3,a5,0x3
    4b70:	96ca                	add	a3,a3,s2
    4b72:	8836                	mv	a6,a3
    4b74:	853e                	mv	a0,a5
    4b76:	00c82403          	lw	s0,12(a6)
    4b7a:	15041a63          	bne	s0,a6,4cce <_malloc_r+0x344>
    4b7e:	0505                	addi	a0,a0,1
    4b80:	00357713          	andi	a4,a0,3
    4b84:	0821                	addi	a6,a6,8
    4b86:	fb65                	bnez	a4,4b76 <_malloc_r+0x1ec>
    4b88:	0037f713          	andi	a4,a5,3
    4b8c:	18071a63          	bnez	a4,4d20 <_malloc_r+0x396>
    4b90:	00492703          	lw	a4,4(s2)
    4b94:	fff34793          	not	a5,t1
    4b98:	8ff9                	and	a5,a5,a4
    4b9a:	00f92223          	sw	a5,4(s2)
    4b9e:	00492703          	lw	a4,4(s2)
    4ba2:	0306                	slli	t1,t1,0x1
    4ba4:	00676463          	bltu	a4,t1,4bac <_malloc_r+0x222>
    4ba8:	18031963          	bnez	t1,4d3a <_malloc_r+0x3b0>
    4bac:	00892b83          	lw	s7,8(s2)
    4bb0:	004ba403          	lw	s0,4(s7) # 80000004 <pulp__FC+0x80000005>
    4bb4:	ffc47a93          	andi	s5,s0,-4
    4bb8:	009ae763          	bltu	s5,s1,4bc6 <_malloc_r+0x23c>
    4bbc:	409a8733          	sub	a4,s5,s1
    4bc0:	47bd                	li	a5,15
    4bc2:	24e7c263          	blt	a5,a4,4e06 <_malloc_r+0x47c>
    4bc6:	1d81a403          	lw	s0,472(gp) # e050 <__malloc_top_pad>
    4bca:	1c41a703          	lw	a4,452(gp) # e03c <__malloc_sbrk_base>
    4bce:	57fd                	li	a5,-1
    4bd0:	9426                	add	s0,s0,s1
    4bd2:	16f71663          	bne	a4,a5,4d3e <_malloc_r+0x3b4>
    4bd6:	0441                	addi	s0,s0,16
    4bd8:	85a2                	mv	a1,s0
    4bda:	854e                	mv	a0,s3
    4bdc:	078010ef          	jal	ra,5c54 <_sbrk_r>
    4be0:	57fd                	li	a5,-1
    4be2:	8b2a                	mv	s6,a0
    4be4:	1cf50763          	beq	a0,a5,4db2 <_malloc_r+0x428>
    4be8:	015b87b3          	add	a5,s7,s5
    4bec:	00f57463          	bleu	a5,a0,4bf4 <_malloc_r+0x26a>
    4bf0:	1d2b9163          	bne	s7,s2,4db2 <_malloc_r+0x428>
    4bf4:	1dc18693          	addi	a3,gp,476 # e054 <__malloc_current_mallinfo>
    4bf8:	4298                	lw	a4,0(a3)
    4bfa:	1dc18c13          	addi	s8,gp,476 # e054 <__malloc_current_mallinfo>
    4bfe:	9722                	add	a4,a4,s0
    4c00:	c298                	sw	a4,0(a3)
    4c02:	15679463          	bne	a5,s6,4d4a <_malloc_r+0x3c0>
    4c06:	01479693          	slli	a3,a5,0x14
    4c0a:	14069063          	bnez	a3,4d4a <_malloc_r+0x3c0>
    4c0e:	00892783          	lw	a5,8(s2)
    4c12:	9456                	add	s0,s0,s5
    4c14:	00146413          	ori	s0,s0,1
    4c18:	c3c0                	sw	s0,4(a5)
    4c1a:	000c2783          	lw	a5,0(s8) # fffff000 <pulp__FC+0xfffff001>
    4c1e:	1d41a683          	lw	a3,468(gp) # e04c <__malloc_max_sbrked_mem>
    4c22:	00f6f463          	bleu	a5,a3,4c2a <_malloc_r+0x2a0>
    4c26:	1cf1aa23          	sw	a5,468(gp) # e04c <__malloc_max_sbrked_mem>
    4c2a:	1d01a683          	lw	a3,464(gp) # e048 <__malloc_max_total_mem>
    4c2e:	18f6f263          	bleu	a5,a3,4db2 <_malloc_r+0x428>
    4c32:	1cf1a823          	sw	a5,464(gp) # e048 <__malloc_max_total_mem>
    4c36:	aab5                	j	4db2 <_malloc_r+0x428>
    4c38:	00975613          	srli	a2,a4,0x9
    4c3c:	4691                	li	a3,4
    4c3e:	02c6ec63          	bltu	a3,a2,4c76 <_malloc_r+0x2ec>
    4c42:	00675693          	srli	a3,a4,0x6
    4c46:	03868693          	addi	a3,a3,56
    4c4a:	00168613          	addi	a2,a3,1
    4c4e:	060e                	slli	a2,a2,0x3
    4c50:	964a                	add	a2,a2,s2
    4c52:	ff860513          	addi	a0,a2,-8
    4c56:	4210                	lw	a2,0(a2)
    4c58:	06c51563          	bne	a0,a2,4cc2 <_malloc_r+0x338>
    4c5c:	8689                	srai	a3,a3,0x2
    4c5e:	4705                	li	a4,1
    4c60:	00d716b3          	sll	a3,a4,a3
    4c64:	0106e6b3          	or	a3,a3,a6
    4c68:	00d92223          	sw	a3,4(s2)
    4c6c:	c448                	sw	a0,12(s0)
    4c6e:	c410                	sw	a2,8(s0)
    4c70:	c500                	sw	s0,8(a0)
    4c72:	c640                	sw	s0,12(a2)
    4c74:	bdc9                	j	4b46 <_malloc_r+0x1bc>
    4c76:	46d1                	li	a3,20
    4c78:	00c6e563          	bltu	a3,a2,4c82 <_malloc_r+0x2f8>
    4c7c:	05b60693          	addi	a3,a2,91
    4c80:	b7e9                	j	4c4a <_malloc_r+0x2c0>
    4c82:	05400693          	li	a3,84
    4c86:	00c6e763          	bltu	a3,a2,4c94 <_malloc_r+0x30a>
    4c8a:	00c75693          	srli	a3,a4,0xc
    4c8e:	06e68693          	addi	a3,a3,110
    4c92:	bf65                	j	4c4a <_malloc_r+0x2c0>
    4c94:	15400693          	li	a3,340
    4c98:	00c6e763          	bltu	a3,a2,4ca6 <_malloc_r+0x31c>
    4c9c:	00f75693          	srli	a3,a4,0xf
    4ca0:	07768693          	addi	a3,a3,119
    4ca4:	b75d                	j	4c4a <_malloc_r+0x2c0>
    4ca6:	55400513          	li	a0,1364
    4caa:	07e00693          	li	a3,126
    4cae:	f8c56ee3          	bltu	a0,a2,4c4a <_malloc_r+0x2c0>
    4cb2:	01275693          	srli	a3,a4,0x12
    4cb6:	07c68693          	addi	a3,a3,124
    4cba:	bf41                	j	4c4a <_malloc_r+0x2c0>
    4cbc:	4610                	lw	a2,8(a2)
    4cbe:	00c50663          	beq	a0,a2,4cca <_malloc_r+0x340>
    4cc2:	4254                	lw	a3,4(a2)
    4cc4:	9af1                	andi	a3,a3,-4
    4cc6:	fed76be3          	bltu	a4,a3,4cbc <_malloc_r+0x332>
    4cca:	4648                	lw	a0,12(a2)
    4ccc:	b745                	j	4c6c <_malloc_r+0x2e2>
    4cce:	4058                	lw	a4,4(s0)
    4cd0:	4450                	lw	a2,12(s0)
    4cd2:	9b71                	andi	a4,a4,-4
    4cd4:	409708b3          	sub	a7,a4,s1
    4cd8:	031e5763          	ble	a7,t3,4d06 <_malloc_r+0x37c>
    4cdc:	0014e793          	ori	a5,s1,1
    4ce0:	c05c                	sw	a5,4(s0)
    4ce2:	441c                	lw	a5,8(s0)
    4ce4:	009406b3          	add	a3,s0,s1
    4ce8:	c7d0                	sw	a2,12(a5)
    4cea:	c61c                	sw	a5,8(a2)
    4cec:	00d92a23          	sw	a3,20(s2)
    4cf0:	00d92823          	sw	a3,16(s2)
    4cf4:	0018e793          	ori	a5,a7,1
    4cf8:	c6cc                	sw	a1,12(a3)
    4cfa:	c68c                	sw	a1,8(a3)
    4cfc:	c2dc                	sw	a5,4(a3)
    4cfe:	9722                	add	a4,a4,s0
    4d00:	01172023          	sw	a7,0(a4)
    4d04:	bb41                	j	4a94 <_malloc_r+0x10a>
    4d06:	0008cb63          	bltz	a7,4d1c <_malloc_r+0x392>
    4d0a:	9722                	add	a4,a4,s0
    4d0c:	435c                	lw	a5,4(a4)
    4d0e:	0017e793          	ori	a5,a5,1
    4d12:	c35c                	sw	a5,4(a4)
    4d14:	441c                	lw	a5,8(s0)
    4d16:	c7d0                	sw	a2,12(a5)
    4d18:	c61c                	sw	a5,8(a2)
    4d1a:	bbad                	j	4a94 <_malloc_r+0x10a>
    4d1c:	8432                	mv	s0,a2
    4d1e:	bdb1                	j	4b7a <_malloc_r+0x1f0>
    4d20:	ff868713          	addi	a4,a3,-8
    4d24:	4294                	lw	a3,0(a3)
    4d26:	17fd                	addi	a5,a5,-1
    4d28:	e6e680e3          	beq	a3,a4,4b88 <_malloc_r+0x1fe>
    4d2c:	bd8d                	j	4b9e <_malloc_r+0x214>
    4d2e:	0791                	addi	a5,a5,4
    4d30:	0306                	slli	t1,t1,0x1
    4d32:	006776b3          	and	a3,a4,t1
    4d36:	dee5                	beqz	a3,4d2e <_malloc_r+0x3a4>
    4d38:	bd15                	j	4b6c <_malloc_r+0x1e2>
    4d3a:	87aa                	mv	a5,a0
    4d3c:	bfdd                	j	4d32 <_malloc_r+0x3a8>
    4d3e:	6785                	lui	a5,0x1
    4d40:	07bd                	addi	a5,a5,15
    4d42:	943e                	add	s0,s0,a5
    4d44:	77fd                	lui	a5,0xfffff
    4d46:	8c7d                	and	s0,s0,a5
    4d48:	bd41                	j	4bd8 <_malloc_r+0x24e>
    4d4a:	1c41a603          	lw	a2,452(gp) # e03c <__malloc_sbrk_base>
    4d4e:	56fd                	li	a3,-1
    4d50:	06d61f63          	bne	a2,a3,4dce <_malloc_r+0x444>
    4d54:	1d61a223          	sw	s6,452(gp) # e03c <__malloc_sbrk_base>
    4d58:	007b7593          	andi	a1,s6,7
    4d5c:	c589                	beqz	a1,4d66 <_malloc_r+0x3dc>
    4d5e:	47a1                	li	a5,8
    4d60:	40b785b3          	sub	a1,a5,a1
    4d64:	9b2e                	add	s6,s6,a1
    4d66:	6785                	lui	a5,0x1
    4d68:	95be                	add	a1,a1,a5
    4d6a:	945a                	add	s0,s0,s6
    4d6c:	17fd                	addi	a5,a5,-1
    4d6e:	8c7d                	and	s0,s0,a5
    4d70:	40858a33          	sub	s4,a1,s0
    4d74:	85d2                	mv	a1,s4
    4d76:	854e                	mv	a0,s3
    4d78:	6dd000ef          	jal	ra,5c54 <_sbrk_r>
    4d7c:	57fd                	li	a5,-1
    4d7e:	00f51463          	bne	a0,a5,4d86 <_malloc_r+0x3fc>
    4d82:	855a                	mv	a0,s6
    4d84:	4a01                	li	s4,0
    4d86:	000c2783          	lw	a5,0(s8)
    4d8a:	41650533          	sub	a0,a0,s6
    4d8e:	97d2                	add	a5,a5,s4
    4d90:	9a2a                	add	s4,s4,a0
    4d92:	01692423          	sw	s6,8(s2)
    4d96:	001a6a13          	ori	s4,s4,1
    4d9a:	00fc2023          	sw	a5,0(s8)
    4d9e:	014b2223          	sw	s4,4(s6)
    4da2:	e72b8ce3          	beq	s7,s2,4c1a <_malloc_r+0x290>
    4da6:	473d                	li	a4,15
    4da8:	03576963          	bltu	a4,s5,4dda <_malloc_r+0x450>
    4dac:	4785                	li	a5,1
    4dae:	00fb2223          	sw	a5,4(s6)
    4db2:	00892783          	lw	a5,8(s2)
    4db6:	43dc                	lw	a5,4(a5)
    4db8:	9bf1                	andi	a5,a5,-4
    4dba:	40978733          	sub	a4,a5,s1
    4dbe:	0097e563          	bltu	a5,s1,4dc8 <_malloc_r+0x43e>
    4dc2:	47bd                	li	a5,15
    4dc4:	04e7c163          	blt	a5,a4,4e06 <_malloc_r+0x47c>
    4dc8:	854e                	mv	a0,s3
    4dca:	2a55                	jal	4f7e <__malloc_unlock>
    4dcc:	b6ed                	j	49b6 <_malloc_r+0x2c>
    4dce:	40fb07b3          	sub	a5,s6,a5
    4dd2:	97ba                	add	a5,a5,a4
    4dd4:	00fc2023          	sw	a5,0(s8)
    4dd8:	b741                	j	4d58 <_malloc_r+0x3ce>
    4dda:	004ba783          	lw	a5,4(s7)
    4dde:	ff4a8413          	addi	s0,s5,-12
    4de2:	9861                	andi	s0,s0,-8
    4de4:	8b85                	andi	a5,a5,1
    4de6:	8fc1                	or	a5,a5,s0
    4de8:	00fba223          	sw	a5,4(s7)
    4dec:	4695                	li	a3,5
    4dee:	008b87b3          	add	a5,s7,s0
    4df2:	c3d4                	sw	a3,4(a5)
    4df4:	c794                	sw	a3,8(a5)
    4df6:	e28772e3          	bleu	s0,a4,4c1a <_malloc_r+0x290>
    4dfa:	008b8593          	addi	a1,s7,8
    4dfe:	854e                	mv	a0,s3
    4e00:	e17fd0ef          	jal	ra,2c16 <_free_r>
    4e04:	bd19                	j	4c1a <_malloc_r+0x290>
    4e06:	00892403          	lw	s0,8(s2)
    4e0a:	0014e793          	ori	a5,s1,1
    4e0e:	c05c                	sw	a5,4(s0)
    4e10:	009407b3          	add	a5,s0,s1
    4e14:	00f92423          	sw	a5,8(s2)
    4e18:	beed                	j	4a12 <_malloc_r+0x88>

00004e1a <_mbtowc_r>:
    4e1a:	1c01a783          	lw	a5,448(gp) # e038 <_impure_ptr>
    4e1e:	5bdc                	lw	a5,52(a5)
    4e20:	e399                	bnez	a5,4e26 <_mbtowc_r+0xc>
    4e22:	c2818793          	addi	a5,gp,-984 # daa0 <__global_locale>
    4e26:	0e47a303          	lw	t1,228(a5) # 10e4 <_vfprintf_r+0x1d0>
    4e2a:	8302                	jr	t1

00004e2c <__ascii_mbtowc>:
    4e2c:	e185                	bnez	a1,4e4c <__ascii_mbtowc+0x20>
    4e2e:	1141                	addi	sp,sp,-16
    4e30:	006c                	addi	a1,sp,12
    4e32:	4501                	li	a0,0
    4e34:	ca11                	beqz	a2,4e48 <__ascii_mbtowc+0x1c>
    4e36:	5579                	li	a0,-2
    4e38:	ca81                	beqz	a3,4e48 <__ascii_mbtowc+0x1c>
    4e3a:	00064783          	lbu	a5,0(a2)
    4e3e:	c19c                	sw	a5,0(a1)
    4e40:	00064503          	lbu	a0,0(a2)
    4e44:	00a03533          	snez	a0,a0
    4e48:	0141                	addi	sp,sp,16
    4e4a:	8082                	ret
    4e4c:	4501                	li	a0,0
    4e4e:	ca19                	beqz	a2,4e64 <__ascii_mbtowc+0x38>
    4e50:	5579                	li	a0,-2
    4e52:	ca89                	beqz	a3,4e64 <__ascii_mbtowc+0x38>
    4e54:	00064783          	lbu	a5,0(a2)
    4e58:	c19c                	sw	a5,0(a1)
    4e5a:	00064503          	lbu	a0,0(a2)
    4e5e:	00a03533          	snez	a0,a0
    4e62:	8082                	ret
    4e64:	8082                	ret

00004e66 <memchr>:
    4e66:	0ff5f593          	andi	a1,a1,255
    4e6a:	962a                	add	a2,a2,a0
    4e6c:	00c51463          	bne	a0,a2,4e74 <memchr+0xe>
    4e70:	4501                	li	a0,0
    4e72:	8082                	ret
    4e74:	00054783          	lbu	a5,0(a0)
    4e78:	feb78de3          	beq	a5,a1,4e72 <memchr+0xc>
    4e7c:	0505                	addi	a0,a0,1
    4e7e:	b7fd                	j	4e6c <memchr+0x6>

00004e80 <memcpy>:
    4e80:	00a5c7b3          	xor	a5,a1,a0
    4e84:	8b8d                	andi	a5,a5,3
    4e86:	00c50733          	add	a4,a0,a2
    4e8a:	e781                	bnez	a5,4e92 <memcpy+0x12>
    4e8c:	478d                	li	a5,3
    4e8e:	00c7ef63          	bltu	a5,a2,4eac <memcpy+0x2c>
    4e92:	87aa                	mv	a5,a0
    4e94:	00e56963          	bltu	a0,a4,4ea6 <memcpy+0x26>
    4e98:	8082                	ret
    4e9a:	0005c683          	lbu	a3,0(a1)
    4e9e:	0785                	addi	a5,a5,1
    4ea0:	0585                	addi	a1,a1,1
    4ea2:	fed78fa3          	sb	a3,-1(a5)
    4ea6:	fee7eae3          	bltu	a5,a4,4e9a <memcpy+0x1a>
    4eaa:	8082                	ret
    4eac:	00357793          	andi	a5,a0,3
    4eb0:	ebbd                	bnez	a5,4f26 <memcpy+0xa6>
    4eb2:	87aa                	mv	a5,a0
    4eb4:	ffc77693          	andi	a3,a4,-4
    4eb8:	fe068613          	addi	a2,a3,-32
    4ebc:	06c7fc63          	bleu	a2,a5,4f34 <memcpy+0xb4>
    4ec0:	0005a383          	lw	t2,0(a1)
    4ec4:	0045a283          	lw	t0,4(a1)
    4ec8:	0085af83          	lw	t6,8(a1)
    4ecc:	00c5af03          	lw	t5,12(a1)
    4ed0:	0105ae83          	lw	t4,16(a1)
    4ed4:	0145ae03          	lw	t3,20(a1)
    4ed8:	0185a303          	lw	t1,24(a1)
    4edc:	01c5a883          	lw	a7,28(a1)
    4ee0:	02458593          	addi	a1,a1,36
    4ee4:	ffc5a803          	lw	a6,-4(a1)
    4ee8:	02478793          	addi	a5,a5,36
    4eec:	fc77ae23          	sw	t2,-36(a5)
    4ef0:	fe57a023          	sw	t0,-32(a5)
    4ef4:	fff7a223          	sw	t6,-28(a5)
    4ef8:	ffe7a423          	sw	t5,-24(a5)
    4efc:	ffd7a623          	sw	t4,-20(a5)
    4f00:	ffc7a823          	sw	t3,-16(a5)
    4f04:	fe67aa23          	sw	t1,-12(a5)
    4f08:	ff17ac23          	sw	a7,-8(a5)
    4f0c:	ff07ae23          	sw	a6,-4(a5)
    4f10:	b775                	j	4ebc <memcpy+0x3c>
    4f12:	0005c683          	lbu	a3,0(a1)
    4f16:	0785                	addi	a5,a5,1
    4f18:	0585                	addi	a1,a1,1
    4f1a:	fed78fa3          	sb	a3,-1(a5)
    4f1e:	0037f693          	andi	a3,a5,3
    4f22:	fae5                	bnez	a3,4f12 <memcpy+0x92>
    4f24:	bf41                	j	4eb4 <memcpy+0x34>
    4f26:	87aa                	mv	a5,a0
    4f28:	bfdd                	j	4f1e <memcpy+0x9e>
    4f2a:	4190                	lw	a2,0(a1)
    4f2c:	0791                	addi	a5,a5,4
    4f2e:	0591                	addi	a1,a1,4
    4f30:	fec7ae23          	sw	a2,-4(a5)
    4f34:	fed7ebe3          	bltu	a5,a3,4f2a <memcpy+0xaa>
    4f38:	f6e7e7e3          	bltu	a5,a4,4ea6 <memcpy+0x26>
    4f3c:	8082                	ret

00004f3e <memmove>:
    4f3e:	00c50733          	add	a4,a0,a2
    4f42:	00a5e663          	bltu	a1,a0,4f4e <memmove+0x10>
    4f46:	87aa                	mv	a5,a0
    4f48:	02f71363          	bne	a4,a5,4f6e <memmove+0x30>
    4f4c:	8082                	ret
    4f4e:	00c587b3          	add	a5,a1,a2
    4f52:	8e1d                	sub	a2,a2,a5
    4f54:	fef579e3          	bleu	a5,a0,4f46 <memmove+0x8>
    4f58:	00c786b3          	add	a3,a5,a2
    4f5c:	e291                	bnez	a3,4f60 <memmove+0x22>
    4f5e:	8082                	ret
    4f60:	17fd                	addi	a5,a5,-1
    4f62:	0007c683          	lbu	a3,0(a5)
    4f66:	177d                	addi	a4,a4,-1
    4f68:	00d70023          	sb	a3,0(a4)
    4f6c:	b7f5                	j	4f58 <memmove+0x1a>
    4f6e:	0585                	addi	a1,a1,1
    4f70:	fff5c683          	lbu	a3,-1(a1)
    4f74:	0785                	addi	a5,a5,1
    4f76:	fed78fa3          	sb	a3,-1(a5)
    4f7a:	b7f9                	j	4f48 <memmove+0xa>

00004f7c <__malloc_lock>:
    4f7c:	8082                	ret

00004f7e <__malloc_unlock>:
    4f7e:	8082                	ret

00004f80 <_Balloc>:
    4f80:	1141                	addi	sp,sp,-16
    4f82:	457c                	lw	a5,76(a0)
    4f84:	c226                	sw	s1,4(sp)
    4f86:	c04a                	sw	s2,0(sp)
    4f88:	c606                	sw	ra,12(sp)
    4f8a:	c422                	sw	s0,8(sp)
    4f8c:	84aa                	mv	s1,a0
    4f8e:	892e                	mv	s2,a1
    4f90:	c795                	beqz	a5,4fbc <_Balloc+0x3c>
    4f92:	44f8                	lw	a4,76(s1)
    4f94:	00291793          	slli	a5,s2,0x2
    4f98:	97ba                	add	a5,a5,a4
    4f9a:	4388                	lw	a0,0(a5)
    4f9c:	ed15                	bnez	a0,4fd8 <_Balloc+0x58>
    4f9e:	4405                	li	s0,1
    4fa0:	01241433          	sll	s0,s0,s2
    4fa4:	00540613          	addi	a2,s0,5
    4fa8:	060a                	slli	a2,a2,0x2
    4faa:	4585                	li	a1,1
    4fac:	8526                	mv	a0,s1
    4fae:	086030ef          	jal	ra,8034 <_calloc_r>
    4fb2:	cd01                	beqz	a0,4fca <_Balloc+0x4a>
    4fb4:	01252223          	sw	s2,4(a0)
    4fb8:	c500                	sw	s0,8(a0)
    4fba:	a00d                	j	4fdc <_Balloc+0x5c>
    4fbc:	02100613          	li	a2,33
    4fc0:	4591                	li	a1,4
    4fc2:	072030ef          	jal	ra,8034 <_calloc_r>
    4fc6:	c4e8                	sw	a0,76(s1)
    4fc8:	f569                	bnez	a0,4f92 <_Balloc+0x12>
    4fca:	4501                	li	a0,0
    4fcc:	40b2                	lw	ra,12(sp)
    4fce:	4422                	lw	s0,8(sp)
    4fd0:	4492                	lw	s1,4(sp)
    4fd2:	4902                	lw	s2,0(sp)
    4fd4:	0141                	addi	sp,sp,16
    4fd6:	8082                	ret
    4fd8:	4118                	lw	a4,0(a0)
    4fda:	c398                	sw	a4,0(a5)
    4fdc:	00052823          	sw	zero,16(a0)
    4fe0:	00052623          	sw	zero,12(a0)
    4fe4:	b7e5                	j	4fcc <_Balloc+0x4c>

00004fe6 <_Bfree>:
    4fe6:	c989                	beqz	a1,4ff8 <_Bfree+0x12>
    4fe8:	41dc                	lw	a5,4(a1)
    4fea:	00279713          	slli	a4,a5,0x2
    4fee:	457c                	lw	a5,76(a0)
    4ff0:	97ba                	add	a5,a5,a4
    4ff2:	4398                	lw	a4,0(a5)
    4ff4:	c198                	sw	a4,0(a1)
    4ff6:	c38c                	sw	a1,0(a5)
    4ff8:	8082                	ret

00004ffa <__multadd>:
    4ffa:	7179                	addi	sp,sp,-48
    4ffc:	ce4e                	sw	s3,28(sp)
    4ffe:	89aa                	mv	s3,a0
    5000:	6541                	lui	a0,0x10
    5002:	d422                	sw	s0,40(sp)
    5004:	d226                	sw	s1,36(sp)
    5006:	842e                	mv	s0,a1
    5008:	4984                	lw	s1,16(a1)
    500a:	d606                	sw	ra,44(sp)
    500c:	d04a                	sw	s2,32(sp)
    500e:	05d1                	addi	a1,a1,20
    5010:	4801                	li	a6,0
    5012:	157d                	addi	a0,a0,-1
    5014:	419c                	lw	a5,0(a1)
    5016:	0591                	addi	a1,a1,4
    5018:	00a7f733          	and	a4,a5,a0
    501c:	02c70733          	mul	a4,a4,a2
    5020:	9736                	add	a4,a4,a3
    5022:	83c1                	srli	a5,a5,0x10
    5024:	01075693          	srli	a3,a4,0x10
    5028:	02c787b3          	mul	a5,a5,a2
    502c:	97b6                	add	a5,a5,a3
    502e:	0107d693          	srli	a3,a5,0x10
    5032:	8f69                	and	a4,a4,a0
    5034:	07c2                	slli	a5,a5,0x10
    5036:	97ba                	add	a5,a5,a4
    5038:	fef5ae23          	sw	a5,-4(a1)
    503c:	0805                	addi	a6,a6,1
    503e:	fc984be3          	blt	a6,s1,5014 <__multadd+0x1a>
    5042:	ce95                	beqz	a3,507e <__multadd+0x84>
    5044:	441c                	lw	a5,8(s0)
    5046:	02f4c563          	blt	s1,a5,5070 <__multadd+0x76>
    504a:	404c                	lw	a1,4(s0)
    504c:	854e                	mv	a0,s3
    504e:	0585                	addi	a1,a1,1
    5050:	c636                	sw	a3,12(sp)
    5052:	373d                	jal	4f80 <_Balloc>
    5054:	4810                	lw	a2,16(s0)
    5056:	00c40593          	addi	a1,s0,12
    505a:	0609                	addi	a2,a2,2
    505c:	892a                	mv	s2,a0
    505e:	060a                	slli	a2,a2,0x2
    5060:	0531                	addi	a0,a0,12
    5062:	e1fff0ef          	jal	ra,4e80 <memcpy>
    5066:	85a2                	mv	a1,s0
    5068:	854e                	mv	a0,s3
    506a:	3fb5                	jal	4fe6 <_Bfree>
    506c:	46b2                	lw	a3,12(sp)
    506e:	844a                	mv	s0,s2
    5070:	00448793          	addi	a5,s1,4
    5074:	078a                	slli	a5,a5,0x2
    5076:	97a2                	add	a5,a5,s0
    5078:	c3d4                	sw	a3,4(a5)
    507a:	0485                	addi	s1,s1,1
    507c:	c804                	sw	s1,16(s0)
    507e:	8522                	mv	a0,s0
    5080:	50b2                	lw	ra,44(sp)
    5082:	5422                	lw	s0,40(sp)
    5084:	5492                	lw	s1,36(sp)
    5086:	5902                	lw	s2,32(sp)
    5088:	49f2                	lw	s3,28(sp)
    508a:	6145                	addi	sp,sp,48
    508c:	8082                	ret

0000508e <__s2b>:
    508e:	7179                	addi	sp,sp,-48
    5090:	00868793          	addi	a5,a3,8
    5094:	cc52                	sw	s4,24(sp)
    5096:	8a36                	mv	s4,a3
    5098:	46a5                	li	a3,9
    509a:	d422                	sw	s0,40(sp)
    509c:	d226                	sw	s1,36(sp)
    509e:	ce4e                	sw	s3,28(sp)
    50a0:	842e                	mv	s0,a1
    50a2:	02d7c7b3          	div	a5,a5,a3
    50a6:	d606                	sw	ra,44(sp)
    50a8:	d04a                	sw	s2,32(sp)
    50aa:	ca56                	sw	s5,20(sp)
    50ac:	89aa                	mv	s3,a0
    50ae:	84b2                	mv	s1,a2
    50b0:	4685                	li	a3,1
    50b2:	4581                	li	a1,0
    50b4:	04f6cc63          	blt	a3,a5,510c <__s2b+0x7e>
    50b8:	854e                	mv	a0,s3
    50ba:	c63a                	sw	a4,12(sp)
    50bc:	35d1                	jal	4f80 <_Balloc>
    50be:	4732                	lw	a4,12(sp)
    50c0:	4785                	li	a5,1
    50c2:	c91c                	sw	a5,16(a0)
    50c4:	c958                	sw	a4,20(a0)
    50c6:	47a5                	li	a5,9
    50c8:	0497d563          	ble	s1,a5,5112 <__s2b+0x84>
    50cc:	00940a93          	addi	s5,s0,9
    50d0:	8956                	mv	s2,s5
    50d2:	9426                	add	s0,s0,s1
    50d4:	0905                	addi	s2,s2,1
    50d6:	fff94683          	lbu	a3,-1(s2)
    50da:	85aa                	mv	a1,a0
    50dc:	fd068693          	addi	a3,a3,-48
    50e0:	4629                	li	a2,10
    50e2:	854e                	mv	a0,s3
    50e4:	3f19                	jal	4ffa <__multadd>
    50e6:	fe8917e3          	bne	s2,s0,50d4 <__s2b+0x46>
    50ea:	ff848413          	addi	s0,s1,-8
    50ee:	9456                	add	s0,s0,s5
    50f0:	8c81                	sub	s1,s1,s0
    50f2:	009407b3          	add	a5,s0,s1
    50f6:	0347c163          	blt	a5,s4,5118 <__s2b+0x8a>
    50fa:	50b2                	lw	ra,44(sp)
    50fc:	5422                	lw	s0,40(sp)
    50fe:	5492                	lw	s1,36(sp)
    5100:	5902                	lw	s2,32(sp)
    5102:	49f2                	lw	s3,28(sp)
    5104:	4a62                	lw	s4,24(sp)
    5106:	4ad2                	lw	s5,20(sp)
    5108:	6145                	addi	sp,sp,48
    510a:	8082                	ret
    510c:	0686                	slli	a3,a3,0x1
    510e:	0585                	addi	a1,a1,1
    5110:	b755                	j	50b4 <__s2b+0x26>
    5112:	0429                	addi	s0,s0,10
    5114:	44a5                	li	s1,9
    5116:	bfe9                	j	50f0 <__s2b+0x62>
    5118:	0405                	addi	s0,s0,1
    511a:	fff44683          	lbu	a3,-1(s0)
    511e:	85aa                	mv	a1,a0
    5120:	fd068693          	addi	a3,a3,-48
    5124:	4629                	li	a2,10
    5126:	854e                	mv	a0,s3
    5128:	3dc9                	jal	4ffa <__multadd>
    512a:	b7e1                	j	50f2 <__s2b+0x64>

0000512c <__hi0bits>:
    512c:	7741                	lui	a4,0xffff0
    512e:	8f69                	and	a4,a4,a0
    5130:	87aa                	mv	a5,a0
    5132:	4501                	li	a0,0
    5134:	e319                	bnez	a4,513a <__hi0bits+0xe>
    5136:	07c2                	slli	a5,a5,0x10
    5138:	4541                	li	a0,16
    513a:	ff000737          	lui	a4,0xff000
    513e:	8f7d                	and	a4,a4,a5
    5140:	e319                	bnez	a4,5146 <__hi0bits+0x1a>
    5142:	0521                	addi	a0,a0,8
    5144:	07a2                	slli	a5,a5,0x8
    5146:	f0000737          	lui	a4,0xf0000
    514a:	8f7d                	and	a4,a4,a5
    514c:	e319                	bnez	a4,5152 <__hi0bits+0x26>
    514e:	0511                	addi	a0,a0,4
    5150:	0792                	slli	a5,a5,0x4
    5152:	c0000737          	lui	a4,0xc0000
    5156:	8f7d                	and	a4,a4,a5
    5158:	e319                	bnez	a4,515e <__hi0bits+0x32>
    515a:	0509                	addi	a0,a0,2
    515c:	078a                	slli	a5,a5,0x2
    515e:	0007ca63          	bltz	a5,5172 <__hi0bits+0x46>
    5162:	00179713          	slli	a4,a5,0x1
    5166:	00075463          	bgez	a4,516e <__hi0bits+0x42>
    516a:	0505                	addi	a0,a0,1
    516c:	8082                	ret
    516e:	02000513          	li	a0,32
    5172:	8082                	ret

00005174 <__lo0bits>:
    5174:	411c                	lw	a5,0(a0)
    5176:	0077f713          	andi	a4,a5,7
    517a:	c30d                	beqz	a4,519c <__lo0bits+0x28>
    517c:	0017f693          	andi	a3,a5,1
    5180:	4701                	li	a4,0
    5182:	e699                	bnez	a3,5190 <__lo0bits+0x1c>
    5184:	0027f713          	andi	a4,a5,2
    5188:	c711                	beqz	a4,5194 <__lo0bits+0x20>
    518a:	8385                	srli	a5,a5,0x1
    518c:	c11c                	sw	a5,0(a0)
    518e:	4705                	li	a4,1
    5190:	853a                	mv	a0,a4
    5192:	8082                	ret
    5194:	8389                	srli	a5,a5,0x2
    5196:	c11c                	sw	a5,0(a0)
    5198:	4709                	li	a4,2
    519a:	bfdd                	j	5190 <__lo0bits+0x1c>
    519c:	01079693          	slli	a3,a5,0x10
    51a0:	82c1                	srli	a3,a3,0x10
    51a2:	4701                	li	a4,0
    51a4:	e299                	bnez	a3,51aa <__lo0bits+0x36>
    51a6:	83c1                	srli	a5,a5,0x10
    51a8:	4741                	li	a4,16
    51aa:	0ff7f693          	andi	a3,a5,255
    51ae:	e299                	bnez	a3,51b4 <__lo0bits+0x40>
    51b0:	0721                	addi	a4,a4,8
    51b2:	83a1                	srli	a5,a5,0x8
    51b4:	00f7f693          	andi	a3,a5,15
    51b8:	e299                	bnez	a3,51be <__lo0bits+0x4a>
    51ba:	0711                	addi	a4,a4,4
    51bc:	8391                	srli	a5,a5,0x4
    51be:	0037f693          	andi	a3,a5,3
    51c2:	e299                	bnez	a3,51c8 <__lo0bits+0x54>
    51c4:	0709                	addi	a4,a4,2
    51c6:	8389                	srli	a5,a5,0x2
    51c8:	0017f693          	andi	a3,a5,1
    51cc:	e681                	bnez	a3,51d4 <__lo0bits+0x60>
    51ce:	8385                	srli	a5,a5,0x1
    51d0:	c781                	beqz	a5,51d8 <__lo0bits+0x64>
    51d2:	0705                	addi	a4,a4,1
    51d4:	c11c                	sw	a5,0(a0)
    51d6:	bf6d                	j	5190 <__lo0bits+0x1c>
    51d8:	02000713          	li	a4,32
    51dc:	bf55                	j	5190 <__lo0bits+0x1c>

000051de <__i2b>:
    51de:	1141                	addi	sp,sp,-16
    51e0:	c422                	sw	s0,8(sp)
    51e2:	842e                	mv	s0,a1
    51e4:	4585                	li	a1,1
    51e6:	c606                	sw	ra,12(sp)
    51e8:	3b61                	jal	4f80 <_Balloc>
    51ea:	c940                	sw	s0,20(a0)
    51ec:	40b2                	lw	ra,12(sp)
    51ee:	4422                	lw	s0,8(sp)
    51f0:	4705                	li	a4,1
    51f2:	c918                	sw	a4,16(a0)
    51f4:	0141                	addi	sp,sp,16
    51f6:	8082                	ret

000051f8 <__multiply>:
    51f8:	7179                	addi	sp,sp,-48
    51fa:	4998                	lw	a4,16(a1)
    51fc:	4a1c                	lw	a5,16(a2)
    51fe:	d226                	sw	s1,36(sp)
    5200:	d606                	sw	ra,44(sp)
    5202:	d422                	sw	s0,40(sp)
    5204:	d04a                	sw	s2,32(sp)
    5206:	ce4e                	sw	s3,28(sp)
    5208:	84ae                	mv	s1,a1
    520a:	00f75463          	ble	a5,a4,5212 <__multiply+0x1a>
    520e:	84b2                	mv	s1,a2
    5210:	862e                	mv	a2,a1
    5212:	0104a983          	lw	s3,16(s1)
    5216:	01062903          	lw	s2,16(a2)
    521a:	449c                	lw	a5,8(s1)
    521c:	01298433          	add	s0,s3,s2
    5220:	40cc                	lw	a1,4(s1)
    5222:	0087d363          	ble	s0,a5,5228 <__multiply+0x30>
    5226:	0585                	addi	a1,a1,1
    5228:	c632                	sw	a2,12(sp)
    522a:	3b99                	jal	4f80 <_Balloc>
    522c:	01450813          	addi	a6,a0,20 # 10014 <__bss_end+0x1f94>
    5230:	00241313          	slli	t1,s0,0x2
    5234:	4632                	lw	a2,12(sp)
    5236:	9342                	add	t1,t1,a6
    5238:	87c2                	mv	a5,a6
    523a:	0267e963          	bltu	a5,t1,526c <__multiply+0x74>
    523e:	01448593          	addi	a1,s1,20
    5242:	00299893          	slli	a7,s3,0x2
    5246:	0651                	addi	a2,a2,20
    5248:	00291e13          	slli	t3,s2,0x2
    524c:	66c1                	lui	a3,0x10
    524e:	98ae                	add	a7,a7,a1
    5250:	9e32                	add	t3,t3,a2
    5252:	16fd                	addi	a3,a3,-1
    5254:	03c66063          	bltu	a2,t3,5274 <__multiply+0x7c>
    5258:	0c804b63          	bgtz	s0,532e <__multiply+0x136>
    525c:	c900                	sw	s0,16(a0)
    525e:	50b2                	lw	ra,44(sp)
    5260:	5422                	lw	s0,40(sp)
    5262:	5492                	lw	s1,36(sp)
    5264:	5902                	lw	s2,32(sp)
    5266:	49f2                	lw	s3,28(sp)
    5268:	6145                	addi	sp,sp,48
    526a:	8082                	ret
    526c:	0007a023          	sw	zero,0(a5)
    5270:	0791                	addi	a5,a5,4
    5272:	b7e1                	j	523a <__multiply+0x42>
    5274:	00062f83          	lw	t6,0(a2)
    5278:	00dfffb3          	and	t6,t6,a3
    527c:	040f8a63          	beqz	t6,52d0 <__multiply+0xd8>
    5280:	8f42                	mv	t5,a6
    5282:	82ae                	mv	t0,a1
    5284:	4481                	li	s1,0
    5286:	0002a703          	lw	a4,0(t0) # d5e <memset+0x8e>
    528a:	000f2383          	lw	t2,0(t5)
    528e:	00d77eb3          	and	t4,a4,a3
    5292:	00d3f7b3          	and	a5,t2,a3
    5296:	03fe8eb3          	mul	t4,t4,t6
    529a:	9ebe                	add	t4,t4,a5
    529c:	01075793          	srli	a5,a4,0x10
    52a0:	9ea6                	add	t4,t4,s1
    52a2:	03f787b3          	mul	a5,a5,t6
    52a6:	0103d393          	srli	t2,t2,0x10
    52aa:	010ed713          	srli	a4,t4,0x10
    52ae:	979e                	add	a5,a5,t2
    52b0:	97ba                	add	a5,a5,a4
    52b2:	0107d493          	srli	s1,a5,0x10
    52b6:	00defeb3          	and	t4,t4,a3
    52ba:	07c2                	slli	a5,a5,0x10
    52bc:	0f11                	addi	t5,t5,4
    52be:	01d7e7b3          	or	a5,a5,t4
    52c2:	0291                	addi	t0,t0,4
    52c4:	feff2e23          	sw	a5,-4(t5)
    52c8:	fb12efe3          	bltu	t0,a7,5286 <__multiply+0x8e>
    52cc:	009f2023          	sw	s1,0(t5)
    52d0:	00265283          	lhu	t0,2(a2)
    52d4:	04028a63          	beqz	t0,5328 <__multiply+0x130>
    52d8:	00082783          	lw	a5,0(a6)
    52dc:	8ec2                	mv	t4,a6
    52de:	8f2e                	mv	t5,a1
    52e0:	4f81                	li	t6,0
    52e2:	000f2703          	lw	a4,0(t5)
    52e6:	002ed383          	lhu	t2,2(t4)
    52ea:	8f75                	and	a4,a4,a3
    52ec:	02570733          	mul	a4,a4,t0
    52f0:	971e                	add	a4,a4,t2
    52f2:	977e                	add	a4,a4,t6
    52f4:	01071f93          	slli	t6,a4,0x10
    52f8:	8ff5                	and	a5,a5,a3
    52fa:	00ffe7b3          	or	a5,t6,a5
    52fe:	0e91                	addi	t4,t4,4
    5300:	fefeae23          	sw	a5,-4(t4)
    5304:	0f11                	addi	t5,t5,4
    5306:	ffef5783          	lhu	a5,-2(t5)
    530a:	000eaf83          	lw	t6,0(t4)
    530e:	025787b3          	mul	a5,a5,t0
    5312:	00dfffb3          	and	t6,t6,a3
    5316:	97fe                	add	a5,a5,t6
    5318:	8341                	srli	a4,a4,0x10
    531a:	97ba                	add	a5,a5,a4
    531c:	0107df93          	srli	t6,a5,0x10
    5320:	fd1f61e3          	bltu	t5,a7,52e2 <__multiply+0xea>
    5324:	00fea023          	sw	a5,0(t4)
    5328:	0611                	addi	a2,a2,4
    532a:	0811                	addi	a6,a6,4
    532c:	b725                	j	5254 <__multiply+0x5c>
    532e:	1371                	addi	t1,t1,-4
    5330:	00032783          	lw	a5,0(t1) # 10000 <__bss_end+0x1f80>
    5334:	f785                	bnez	a5,525c <__multiply+0x64>
    5336:	147d                	addi	s0,s0,-1
    5338:	b705                	j	5258 <__multiply+0x60>

0000533a <__pow5mult>:
    533a:	1101                	addi	sp,sp,-32
    533c:	ca26                	sw	s1,20(sp)
    533e:	c84a                	sw	s2,16(sp)
    5340:	c64e                	sw	s3,12(sp)
    5342:	ce06                	sw	ra,28(sp)
    5344:	cc22                	sw	s0,24(sp)
    5346:	c452                	sw	s4,8(sp)
    5348:	00367793          	andi	a5,a2,3
    534c:	892a                	mv	s2,a0
    534e:	84b2                	mv	s1,a2
    5350:	89ae                	mv	s3,a1
    5352:	cb99                	beqz	a5,5368 <__pow5mult+0x2e>
    5354:	17fd                	addi	a5,a5,-1
    5356:	6735                	lui	a4,0xd
    5358:	db870713          	addi	a4,a4,-584 # cdb8 <p05.3207>
    535c:	078a                	slli	a5,a5,0x2
    535e:	97ba                	add	a5,a5,a4
    5360:	4390                	lw	a2,0(a5)
    5362:	4681                	li	a3,0
    5364:	3959                	jal	4ffa <__multadd>
    5366:	89aa                	mv	s3,a0
    5368:	8489                	srai	s1,s1,0x2
    536a:	c4b1                	beqz	s1,53b6 <__pow5mult+0x7c>
    536c:	04892403          	lw	s0,72(s2)
    5370:	e811                	bnez	s0,5384 <__pow5mult+0x4a>
    5372:	27100593          	li	a1,625
    5376:	854a                	mv	a0,s2
    5378:	359d                	jal	51de <__i2b>
    537a:	04a92423          	sw	a0,72(s2)
    537e:	842a                	mv	s0,a0
    5380:	00052023          	sw	zero,0(a0)
    5384:	0014f793          	andi	a5,s1,1
    5388:	cb91                	beqz	a5,539c <__pow5mult+0x62>
    538a:	85ce                	mv	a1,s3
    538c:	8622                	mv	a2,s0
    538e:	854a                	mv	a0,s2
    5390:	35a5                	jal	51f8 <__multiply>
    5392:	8a2a                	mv	s4,a0
    5394:	85ce                	mv	a1,s3
    5396:	854a                	mv	a0,s2
    5398:	31b9                	jal	4fe6 <_Bfree>
    539a:	89d2                	mv	s3,s4
    539c:	8485                	srai	s1,s1,0x1
    539e:	cc81                	beqz	s1,53b6 <__pow5mult+0x7c>
    53a0:	4008                	lw	a0,0(s0)
    53a2:	e901                	bnez	a0,53b2 <__pow5mult+0x78>
    53a4:	8622                	mv	a2,s0
    53a6:	85a2                	mv	a1,s0
    53a8:	854a                	mv	a0,s2
    53aa:	35b9                	jal	51f8 <__multiply>
    53ac:	c008                	sw	a0,0(s0)
    53ae:	00052023          	sw	zero,0(a0)
    53b2:	842a                	mv	s0,a0
    53b4:	bfc1                	j	5384 <__pow5mult+0x4a>
    53b6:	40f2                	lw	ra,28(sp)
    53b8:	4462                	lw	s0,24(sp)
    53ba:	854e                	mv	a0,s3
    53bc:	44d2                	lw	s1,20(sp)
    53be:	4942                	lw	s2,16(sp)
    53c0:	49b2                	lw	s3,12(sp)
    53c2:	4a22                	lw	s4,8(sp)
    53c4:	6105                	addi	sp,sp,32
    53c6:	8082                	ret

000053c8 <__lshift>:
    53c8:	7179                	addi	sp,sp,-48
    53ca:	d226                	sw	s1,36(sp)
    53cc:	84ae                	mv	s1,a1
    53ce:	ce4e                	sw	s3,28(sp)
    53d0:	0104a983          	lw	s3,16(s1)
    53d4:	d422                	sw	s0,40(sp)
    53d6:	40565413          	srai	s0,a2,0x5
    53da:	99a2                	add	s3,s3,s0
    53dc:	41cc                	lw	a1,4(a1)
    53de:	449c                	lw	a5,8(s1)
    53e0:	d04a                	sw	s2,32(sp)
    53e2:	ca56                	sw	s5,20(sp)
    53e4:	d606                	sw	ra,44(sp)
    53e6:	cc52                	sw	s4,24(sp)
    53e8:	8aaa                	mv	s5,a0
    53ea:	00198913          	addi	s2,s3,1
    53ee:	0927c263          	blt	a5,s2,5472 <__lshift+0xaa>
    53f2:	8556                	mv	a0,s5
    53f4:	c632                	sw	a2,12(sp)
    53f6:	3669                	jal	4f80 <_Balloc>
    53f8:	01450793          	addi	a5,a0,20
    53fc:	4632                	lw	a2,12(sp)
    53fe:	8a2a                	mv	s4,a0
    5400:	86be                	mv	a3,a5
    5402:	4701                	li	a4,0
    5404:	0691                	addi	a3,a3,4
    5406:	06874963          	blt	a4,s0,5478 <__lshift+0xb0>
    540a:	00045363          	bgez	s0,5410 <__lshift+0x48>
    540e:	4401                	li	s0,0
    5410:	4894                	lw	a3,16(s1)
    5412:	040a                	slli	s0,s0,0x2
    5414:	00878733          	add	a4,a5,s0
    5418:	068a                	slli	a3,a3,0x2
    541a:	01448793          	addi	a5,s1,20
    541e:	8a7d                	andi	a2,a2,31
    5420:	96be                	add	a3,a3,a5
    5422:	ce39                	beqz	a2,5480 <__lshift+0xb8>
    5424:	02000813          	li	a6,32
    5428:	40c80833          	sub	a6,a6,a2
    542c:	4581                	li	a1,0
    542e:	4388                	lw	a0,0(a5)
    5430:	0711                	addi	a4,a4,4
    5432:	00c51533          	sll	a0,a0,a2
    5436:	8dc9                	or	a1,a1,a0
    5438:	feb72e23          	sw	a1,-4(a4)
    543c:	0791                	addi	a5,a5,4
    543e:	ffc7a583          	lw	a1,-4(a5)
    5442:	0105d5b3          	srl	a1,a1,a6
    5446:	fed7e4e3          	bltu	a5,a3,542e <__lshift+0x66>
    544a:	c30c                	sw	a1,0(a4)
    544c:	c199                	beqz	a1,5452 <__lshift+0x8a>
    544e:	00298913          	addi	s2,s3,2
    5452:	197d                	addi	s2,s2,-1
    5454:	012a2823          	sw	s2,16(s4)
    5458:	8556                	mv	a0,s5
    545a:	85a6                	mv	a1,s1
    545c:	3669                	jal	4fe6 <_Bfree>
    545e:	50b2                	lw	ra,44(sp)
    5460:	5422                	lw	s0,40(sp)
    5462:	8552                	mv	a0,s4
    5464:	5492                	lw	s1,36(sp)
    5466:	5902                	lw	s2,32(sp)
    5468:	49f2                	lw	s3,28(sp)
    546a:	4a62                	lw	s4,24(sp)
    546c:	4ad2                	lw	s5,20(sp)
    546e:	6145                	addi	sp,sp,48
    5470:	8082                	ret
    5472:	0585                	addi	a1,a1,1
    5474:	0786                	slli	a5,a5,0x1
    5476:	bfa5                	j	53ee <__lshift+0x26>
    5478:	fe06ae23          	sw	zero,-4(a3) # fffc <__bss_end+0x1f7c>
    547c:	0705                	addi	a4,a4,1
    547e:	b759                	j	5404 <__lshift+0x3c>
    5480:	0791                	addi	a5,a5,4
    5482:	ffc7a603          	lw	a2,-4(a5)
    5486:	0711                	addi	a4,a4,4
    5488:	fec72e23          	sw	a2,-4(a4)
    548c:	fed7eae3          	bltu	a5,a3,5480 <__lshift+0xb8>
    5490:	b7c9                	j	5452 <__lshift+0x8a>

00005492 <__mcmp>:
    5492:	491c                	lw	a5,16(a0)
    5494:	4998                	lw	a4,16(a1)
    5496:	8f99                	sub	a5,a5,a4
    5498:	e38d                	bnez	a5,54ba <__mcmp+0x28>
    549a:	070a                	slli	a4,a4,0x2
    549c:	0551                	addi	a0,a0,20
    549e:	05d1                	addi	a1,a1,20
    54a0:	00e506b3          	add	a3,a0,a4
    54a4:	95ba                	add	a1,a1,a4
    54a6:	16f1                	addi	a3,a3,-4
    54a8:	15f1                	addi	a1,a1,-4
    54aa:	4290                	lw	a2,0(a3)
    54ac:	4198                	lw	a4,0(a1)
    54ae:	00e60863          	beq	a2,a4,54be <__mcmp+0x2c>
    54b2:	57fd                	li	a5,-1
    54b4:	00e66363          	bltu	a2,a4,54ba <__mcmp+0x28>
    54b8:	4785                	li	a5,1
    54ba:	853e                	mv	a0,a5
    54bc:	8082                	ret
    54be:	fed564e3          	bltu	a0,a3,54a6 <__mcmp+0x14>
    54c2:	bfe5                	j	54ba <__mcmp+0x28>

000054c4 <__mdiff>:
    54c4:	1101                	addi	sp,sp,-32
    54c6:	ca26                	sw	s1,20(sp)
    54c8:	84ae                	mv	s1,a1
    54ca:	c64e                	sw	s3,12(sp)
    54cc:	85b2                	mv	a1,a2
    54ce:	89aa                	mv	s3,a0
    54d0:	8526                	mv	a0,s1
    54d2:	cc22                	sw	s0,24(sp)
    54d4:	ce06                	sw	ra,28(sp)
    54d6:	c84a                	sw	s2,16(sp)
    54d8:	8432                	mv	s0,a2
    54da:	3f65                	jal	5492 <__mcmp>
    54dc:	ed19                	bnez	a0,54fa <__mdiff+0x36>
    54de:	4581                	li	a1,0
    54e0:	854e                	mv	a0,s3
    54e2:	3c79                	jal	4f80 <_Balloc>
    54e4:	4785                	li	a5,1
    54e6:	c91c                	sw	a5,16(a0)
    54e8:	00052a23          	sw	zero,20(a0)
    54ec:	40f2                	lw	ra,28(sp)
    54ee:	4462                	lw	s0,24(sp)
    54f0:	44d2                	lw	s1,20(sp)
    54f2:	4942                	lw	s2,16(sp)
    54f4:	49b2                	lw	s3,12(sp)
    54f6:	6105                	addi	sp,sp,32
    54f8:	8082                	ret
    54fa:	4905                	li	s2,1
    54fc:	00054663          	bltz	a0,5508 <__mdiff+0x44>
    5500:	87a2                	mv	a5,s0
    5502:	4901                	li	s2,0
    5504:	8426                	mv	s0,s1
    5506:	84be                	mv	s1,a5
    5508:	404c                	lw	a1,4(s0)
    550a:	854e                	mv	a0,s3
    550c:	3c95                	jal	4f80 <_Balloc>
    550e:	01042303          	lw	t1,16(s0)
    5512:	0104a883          	lw	a7,16(s1)
    5516:	01440613          	addi	a2,s0,20
    551a:	00231e13          	slli	t3,t1,0x2
    551e:	01448813          	addi	a6,s1,20
    5522:	088a                	slli	a7,a7,0x2
    5524:	6ec1                	lui	t4,0x10
    5526:	01252623          	sw	s2,12(a0)
    552a:	9e32                	add	t3,t3,a2
    552c:	98c2                	add	a7,a7,a6
    552e:	01450693          	addi	a3,a0,20
    5532:	4f01                	li	t5,0
    5534:	1efd                	addi	t4,t4,-1
    5536:	4218                	lw	a4,0(a2)
    5538:	00082f83          	lw	t6,0(a6)
    553c:	01d775b3          	and	a1,a4,t4
    5540:	01dff7b3          	and	a5,t6,t4
    5544:	95fa                	add	a1,a1,t5
    5546:	8d9d                	sub	a1,a1,a5
    5548:	010fdf93          	srli	t6,t6,0x10
    554c:	01075793          	srli	a5,a4,0x10
    5550:	41f787b3          	sub	a5,a5,t6
    5554:	4105d713          	srai	a4,a1,0x10
    5558:	97ba                	add	a5,a5,a4
    555a:	4107df13          	srai	t5,a5,0x10
    555e:	01d5f5b3          	and	a1,a1,t4
    5562:	07c2                	slli	a5,a5,0x10
    5564:	0691                	addi	a3,a3,4
    5566:	8fcd                	or	a5,a5,a1
    5568:	0811                	addi	a6,a6,4
    556a:	fef6ae23          	sw	a5,-4(a3)
    556e:	0611                	addi	a2,a2,4
    5570:	fd1863e3          	bltu	a6,a7,5536 <__mdiff+0x72>
    5574:	65c1                	lui	a1,0x10
    5576:	15fd                	addi	a1,a1,-1
    5578:	01c66863          	bltu	a2,t3,5588 <__mdiff+0xc4>
    557c:	16f1                	addi	a3,a3,-4
    557e:	429c                	lw	a5,0(a3)
    5580:	c795                	beqz	a5,55ac <__mdiff+0xe8>
    5582:	00652823          	sw	t1,16(a0)
    5586:	b79d                	j	54ec <__mdiff+0x28>
    5588:	421c                	lw	a5,0(a2)
    558a:	0691                	addi	a3,a3,4
    558c:	00b7f733          	and	a4,a5,a1
    5590:	977a                	add	a4,a4,t5
    5592:	41075813          	srai	a6,a4,0x10
    5596:	83c1                	srli	a5,a5,0x10
    5598:	97c2                	add	a5,a5,a6
    559a:	4107df13          	srai	t5,a5,0x10
    559e:	8f6d                	and	a4,a4,a1
    55a0:	07c2                	slli	a5,a5,0x10
    55a2:	8fd9                	or	a5,a5,a4
    55a4:	0611                	addi	a2,a2,4
    55a6:	fef6ae23          	sw	a5,-4(a3)
    55aa:	b7f9                	j	5578 <__mdiff+0xb4>
    55ac:	137d                	addi	t1,t1,-1
    55ae:	b7f9                	j	557c <__mdiff+0xb8>

000055b0 <__ulp>:
    55b0:	7ff007b7          	lui	a5,0x7ff00
    55b4:	8dfd                	and	a1,a1,a5
    55b6:	fcc007b7          	lui	a5,0xfcc00
    55ba:	95be                	add	a1,a1,a5
    55bc:	00b05563          	blez	a1,55c6 <__ulp+0x16>
    55c0:	4781                	li	a5,0
    55c2:	853e                	mv	a0,a5
    55c4:	8082                	ret
    55c6:	40b005b3          	neg	a1,a1
    55ca:	4145d793          	srai	a5,a1,0x14
    55ce:	474d                	li	a4,19
    55d0:	00f74763          	blt	a4,a5,55de <__ulp+0x2e>
    55d4:	000805b7          	lui	a1,0x80
    55d8:	40f5d5b3          	sra	a1,a1,a5
    55dc:	b7d5                	j	55c0 <__ulp+0x10>
    55de:	17b1                	addi	a5,a5,-20
    55e0:	46f9                	li	a3,30
    55e2:	4581                	li	a1,0
    55e4:	4705                	li	a4,1
    55e6:	00f6c663          	blt	a3,a5,55f2 <__ulp+0x42>
    55ea:	fff7c793          	not	a5,a5
    55ee:	00f71733          	sll	a4,a4,a5
    55f2:	87ba                	mv	a5,a4
    55f4:	b7f9                	j	55c2 <__ulp+0x12>

000055f6 <__b2d>:
    55f6:	7179                	addi	sp,sp,-48
    55f8:	d226                	sw	s1,36(sp)
    55fa:	4904                	lw	s1,16(a0)
    55fc:	ce4e                	sw	s3,28(sp)
    55fe:	048a                	slli	s1,s1,0x2
    5600:	01450993          	addi	s3,a0,20
    5604:	94ce                	add	s1,s1,s3
    5606:	d422                	sw	s0,40(sp)
    5608:	ffc4a403          	lw	s0,-4(s1)
    560c:	d04a                	sw	s2,32(sp)
    560e:	8522                	mv	a0,s0
    5610:	c62e                	sw	a1,12(sp)
    5612:	d606                	sw	ra,44(sp)
    5614:	3e21                	jal	512c <__hi0bits>
    5616:	02000793          	li	a5,32
    561a:	45b2                	lw	a1,12(sp)
    561c:	8f89                	sub	a5,a5,a0
    561e:	c19c                	sw	a5,0(a1)
    5620:	47a9                	li	a5,10
    5622:	ffc48913          	addi	s2,s1,-4
    5626:	02a7cd63          	blt	a5,a0,5660 <__b2d+0x6a>
    562a:	47ad                	li	a5,11
    562c:	8f89                	sub	a5,a5,a0
    562e:	3ff00737          	lui	a4,0x3ff00
    5632:	00f456b3          	srl	a3,s0,a5
    5636:	8ed9                	or	a3,a3,a4
    5638:	4701                	li	a4,0
    563a:	0129f463          	bleu	s2,s3,5642 <__b2d+0x4c>
    563e:	ff84a703          	lw	a4,-8(s1)
    5642:	0555                	addi	a0,a0,21
    5644:	00a41533          	sll	a0,s0,a0
    5648:	00f757b3          	srl	a5,a4,a5
    564c:	8fc9                	or	a5,a5,a0
    564e:	50b2                	lw	ra,44(sp)
    5650:	5422                	lw	s0,40(sp)
    5652:	5492                	lw	s1,36(sp)
    5654:	5902                	lw	s2,32(sp)
    5656:	49f2                	lw	s3,28(sp)
    5658:	853e                	mv	a0,a5
    565a:	85b6                	mv	a1,a3
    565c:	6145                	addi	sp,sp,48
    565e:	8082                	ret
    5660:	4781                	li	a5,0
    5662:	0129f663          	bleu	s2,s3,566e <__b2d+0x78>
    5666:	ff84a783          	lw	a5,-8(s1)
    566a:	ff848913          	addi	s2,s1,-8
    566e:	1555                	addi	a0,a0,-11
    5670:	c905                	beqz	a0,56a0 <__b2d+0xaa>
    5672:	02000713          	li	a4,32
    5676:	40a70633          	sub	a2,a4,a0
    567a:	00a41433          	sll	s0,s0,a0
    567e:	3ff00737          	lui	a4,0x3ff00
    5682:	8c59                	or	s0,s0,a4
    5684:	00c7d6b3          	srl	a3,a5,a2
    5688:	8ec1                	or	a3,a3,s0
    568a:	4701                	li	a4,0
    568c:	0129f463          	bleu	s2,s3,5694 <__b2d+0x9e>
    5690:	ffc92703          	lw	a4,-4(s2)
    5694:	00a797b3          	sll	a5,a5,a0
    5698:	00c75733          	srl	a4,a4,a2
    569c:	8fd9                	or	a5,a5,a4
    569e:	bf45                	j	564e <__b2d+0x58>
    56a0:	3ff006b7          	lui	a3,0x3ff00
    56a4:	8ec1                	or	a3,a3,s0
    56a6:	b765                	j	564e <__b2d+0x58>

000056a8 <__d2b>:
    56a8:	7179                	addi	sp,sp,-48
    56aa:	d422                	sw	s0,40(sp)
    56ac:	842e                	mv	s0,a1
    56ae:	4585                	li	a1,1
    56b0:	d226                	sw	s1,36(sp)
    56b2:	d04a                	sw	s2,32(sp)
    56b4:	84b2                	mv	s1,a2
    56b6:	ce4e                	sw	s3,28(sp)
    56b8:	cc52                	sw	s4,24(sp)
    56ba:	893a                	mv	s2,a4
    56bc:	d606                	sw	ra,44(sp)
    56be:	8a36                	mv	s4,a3
    56c0:	30c1                	jal	4f80 <_Balloc>
    56c2:	00100737          	lui	a4,0x100
    56c6:	fff70793          	addi	a5,a4,-1 # fffff <__bss_end+0xf1f7f>
    56ca:	8fe5                	and	a5,a5,s1
    56cc:	80d1                	srli	s1,s1,0x14
    56ce:	7ff4f493          	andi	s1,s1,2047
    56d2:	89aa                	mv	s3,a0
    56d4:	e0ad                	bnez	s1,5736 <__d2b+0x8e>
    56d6:	c63e                	sw	a5,12(sp)
    56d8:	c425                	beqz	s0,5740 <__d2b+0x98>
    56da:	0028                	addi	a0,sp,8
    56dc:	c422                	sw	s0,8(sp)
    56de:	3c59                	jal	5174 <__lo0bits>
    56e0:	46a2                	lw	a3,8(sp)
    56e2:	cd21                	beqz	a0,573a <__d2b+0x92>
    56e4:	4732                	lw	a4,12(sp)
    56e6:	02000793          	li	a5,32
    56ea:	8f89                	sub	a5,a5,a0
    56ec:	00f717b3          	sll	a5,a4,a5
    56f0:	8fd5                	or	a5,a5,a3
    56f2:	00a75733          	srl	a4,a4,a0
    56f6:	00f9aa23          	sw	a5,20(s3)
    56fa:	c63a                	sw	a4,12(sp)
    56fc:	4432                	lw	s0,12(sp)
    56fe:	0089ac23          	sw	s0,24(s3)
    5702:	00803433          	snez	s0,s0
    5706:	0405                	addi	s0,s0,1
    5708:	0089a823          	sw	s0,16(s3)
    570c:	c4b1                	beqz	s1,5758 <__d2b+0xb0>
    570e:	bcd48493          	addi	s1,s1,-1075
    5712:	94aa                	add	s1,s1,a0
    5714:	03500793          	li	a5,53
    5718:	009a2023          	sw	s1,0(s4)
    571c:	40a78533          	sub	a0,a5,a0
    5720:	00a92023          	sw	a0,0(s2)
    5724:	50b2                	lw	ra,44(sp)
    5726:	5422                	lw	s0,40(sp)
    5728:	854e                	mv	a0,s3
    572a:	5492                	lw	s1,36(sp)
    572c:	5902                	lw	s2,32(sp)
    572e:	49f2                	lw	s3,28(sp)
    5730:	4a62                	lw	s4,24(sp)
    5732:	6145                	addi	sp,sp,48
    5734:	8082                	ret
    5736:	8fd9                	or	a5,a5,a4
    5738:	bf79                	j	56d6 <__d2b+0x2e>
    573a:	00d9aa23          	sw	a3,20(s3)
    573e:	bf7d                	j	56fc <__d2b+0x54>
    5740:	0068                	addi	a0,sp,12
    5742:	3c0d                	jal	5174 <__lo0bits>
    5744:	47b2                	lw	a5,12(sp)
    5746:	02050513          	addi	a0,a0,32
    574a:	00f9aa23          	sw	a5,20(s3)
    574e:	4785                	li	a5,1
    5750:	00f9a823          	sw	a5,16(s3)
    5754:	4405                	li	s0,1
    5756:	bf5d                	j	570c <__d2b+0x64>
    5758:	00241793          	slli	a5,s0,0x2
    575c:	bce50513          	addi	a0,a0,-1074
    5760:	97ce                	add	a5,a5,s3
    5762:	00aa2023          	sw	a0,0(s4)
    5766:	4b88                	lw	a0,16(a5)
    5768:	0416                	slli	s0,s0,0x5
    576a:	32c9                	jal	512c <__hi0bits>
    576c:	8c09                	sub	s0,s0,a0
    576e:	00892023          	sw	s0,0(s2)
    5772:	bf4d                	j	5724 <__d2b+0x7c>

00005774 <__ratio>:
    5774:	7179                	addi	sp,sp,-48
    5776:	d04a                	sw	s2,32(sp)
    5778:	892e                	mv	s2,a1
    577a:	002c                	addi	a1,sp,8
    577c:	d606                	sw	ra,44(sp)
    577e:	d422                	sw	s0,40(sp)
    5780:	d226                	sw	s1,36(sp)
    5782:	ce4e                	sw	s3,28(sp)
    5784:	cc52                	sw	s4,24(sp)
    5786:	8a2a                	mv	s4,a0
    5788:	35bd                	jal	55f6 <__b2d>
    578a:	89aa                	mv	s3,a0
    578c:	84ae                	mv	s1,a1
    578e:	842e                	mv	s0,a1
    5790:	854a                	mv	a0,s2
    5792:	006c                	addi	a1,sp,12
    5794:	358d                	jal	55f6 <__b2d>
    5796:	01092783          	lw	a5,16(s2)
    579a:	010a2703          	lw	a4,16(s4)
    579e:	46a2                	lw	a3,8(sp)
    57a0:	8f1d                	sub	a4,a4,a5
    57a2:	47b2                	lw	a5,12(sp)
    57a4:	0716                	slli	a4,a4,0x5
    57a6:	8e9d                	sub	a3,a3,a5
    57a8:	00d707b3          	add	a5,a4,a3
    57ac:	02f05563          	blez	a5,57d6 <__ratio+0x62>
    57b0:	07d2                	slli	a5,a5,0x14
    57b2:	862e                	mv	a2,a1
    57b4:	00978433          	add	s0,a5,s1
    57b8:	8732                	mv	a4,a2
    57ba:	85a2                	mv	a1,s0
    57bc:	862a                	mv	a2,a0
    57be:	86ba                	mv	a3,a4
    57c0:	854e                	mv	a0,s3
    57c2:	4e9030ef          	jal	ra,94aa <__divdf3>
    57c6:	50b2                	lw	ra,44(sp)
    57c8:	5422                	lw	s0,40(sp)
    57ca:	5492                	lw	s1,36(sp)
    57cc:	5902                	lw	s2,32(sp)
    57ce:	49f2                	lw	s3,28(sp)
    57d0:	4a62                	lw	s4,24(sp)
    57d2:	6145                	addi	sp,sp,48
    57d4:	8082                	ret
    57d6:	fff00737          	lui	a4,0xfff00
    57da:	02e787b3          	mul	a5,a5,a4
    57de:	00b78633          	add	a2,a5,a1
    57e2:	bfd9                	j	57b8 <__ratio+0x44>

000057e4 <_mprec_log10>:
    57e4:	1141                	addi	sp,sp,-16
    57e6:	c422                	sw	s0,8(sp)
    57e8:	c606                	sw	ra,12(sp)
    57ea:	c24a                	sw	s2,4(sp)
    57ec:	c04e                	sw	s3,0(sp)
    57ee:	47dd                	li	a5,23
    57f0:	842a                	mv	s0,a0
    57f2:	02a7c063          	blt	a5,a0,5812 <_mprec_log10+0x2e>
    57f6:	67b5                	lui	a5,0xd
    57f8:	00351413          	slli	s0,a0,0x3
    57fc:	db878793          	addi	a5,a5,-584 # cdb8 <p05.3207>
    5800:	943e                	add	s0,s0,a5
    5802:	4808                	lw	a0,16(s0)
    5804:	484c                	lw	a1,20(s0)
    5806:	40b2                	lw	ra,12(sp)
    5808:	4422                	lw	s0,8(sp)
    580a:	4912                	lw	s2,4(sp)
    580c:	4982                	lw	s3,0(sp)
    580e:	0141                	addi	sp,sp,16
    5810:	8082                	ret
    5812:	0000e7b7          	lui	a5,0xe
    5816:	01878793          	addi	a5,a5,24 # e018 <__SDATA_BEGIN__>
    581a:	4388                	lw	a0,0(a5)
    581c:	43cc                	lw	a1,4(a5)
    581e:	0000e7b7          	lui	a5,0xe
    5822:	02078793          	addi	a5,a5,32 # e020 <__SDATA_BEGIN__+0x8>
    5826:	0007a903          	lw	s2,0(a5)
    582a:	0047a983          	lw	s3,4(a5)
    582e:	864a                	mv	a2,s2
    5830:	86ce                	mv	a3,s3
    5832:	147d                	addi	s0,s0,-1
    5834:	1a2040ef          	jal	ra,99d6 <__muldf3>
    5838:	f87d                	bnez	s0,582e <_mprec_log10+0x4a>
    583a:	b7f1                	j	5806 <_mprec_log10+0x22>

0000583c <__copybits>:
    583c:	fff58793          	addi	a5,a1,-1 # 7ffff <__bss_end+0x71f7f>
    5840:	8795                	srai	a5,a5,0x5
    5842:	4a18                	lw	a4,16(a2)
    5844:	0785                	addi	a5,a5,1
    5846:	078a                	slli	a5,a5,0x2
    5848:	01460693          	addi	a3,a2,20
    584c:	070a                	slli	a4,a4,0x2
    584e:	97aa                	add	a5,a5,a0
    5850:	9736                	add	a4,a4,a3
    5852:	00e6e563          	bltu	a3,a4,585c <__copybits+0x20>
    5856:	00f56a63          	bltu	a0,a5,586a <__copybits+0x2e>
    585a:	8082                	ret
    585c:	0691                	addi	a3,a3,4
    585e:	ffc6a603          	lw	a2,-4(a3) # 3feffffc <__heap_end+0x3faffffc>
    5862:	0511                	addi	a0,a0,4
    5864:	fec52e23          	sw	a2,-4(a0)
    5868:	b7ed                	j	5852 <__copybits+0x16>
    586a:	0511                	addi	a0,a0,4
    586c:	fe052e23          	sw	zero,-4(a0)
    5870:	b7dd                	j	5856 <__copybits+0x1a>

00005872 <__any_on>:
    5872:	4914                	lw	a3,16(a0)
    5874:	4055d793          	srai	a5,a1,0x5
    5878:	01450713          	addi	a4,a0,20
    587c:	02f6c763          	blt	a3,a5,58aa <__any_on+0x38>
    5880:	00d7df63          	ble	a3,a5,589e <__any_on+0x2c>
    5884:	89fd                	andi	a1,a1,31
    5886:	cd81                	beqz	a1,589e <__any_on+0x2c>
    5888:	00279693          	slli	a3,a5,0x2
    588c:	96ba                	add	a3,a3,a4
    588e:	4290                	lw	a2,0(a3)
    5890:	4505                	li	a0,1
    5892:	00b656b3          	srl	a3,a2,a1
    5896:	00b695b3          	sll	a1,a3,a1
    589a:	00b61e63          	bne	a2,a1,58b6 <__any_on+0x44>
    589e:	078a                	slli	a5,a5,0x2
    58a0:	97ba                	add	a5,a5,a4
    58a2:	00f76663          	bltu	a4,a5,58ae <__any_on+0x3c>
    58a6:	4501                	li	a0,0
    58a8:	8082                	ret
    58aa:	87b6                	mv	a5,a3
    58ac:	bfcd                	j	589e <__any_on+0x2c>
    58ae:	17f1                	addi	a5,a5,-4
    58b0:	4394                	lw	a3,0(a5)
    58b2:	dae5                	beqz	a3,58a2 <__any_on+0x30>
    58b4:	4505                	li	a0,1
    58b6:	8082                	ret

000058b8 <_realloc_r>:
    58b8:	7139                	addi	sp,sp,-64
    58ba:	dc22                	sw	s0,56(sp)
    58bc:	de06                	sw	ra,60(sp)
    58be:	842e                	mv	s0,a1
    58c0:	da26                	sw	s1,52(sp)
    58c2:	d84a                	sw	s2,48(sp)
    58c4:	d64e                	sw	s3,44(sp)
    58c6:	d452                	sw	s4,40(sp)
    58c8:	d256                	sw	s5,36(sp)
    58ca:	d05a                	sw	s6,32(sp)
    58cc:	ce5e                	sw	s7,28(sp)
    58ce:	cc62                	sw	s8,24(sp)
    58d0:	85b2                	mv	a1,a2
    58d2:	ec11                	bnez	s0,58ee <_realloc_r+0x36>
    58d4:	5462                	lw	s0,56(sp)
    58d6:	50f2                	lw	ra,60(sp)
    58d8:	54d2                	lw	s1,52(sp)
    58da:	5942                	lw	s2,48(sp)
    58dc:	59b2                	lw	s3,44(sp)
    58de:	5a22                	lw	s4,40(sp)
    58e0:	5a92                	lw	s5,36(sp)
    58e2:	5b02                	lw	s6,32(sp)
    58e4:	4bf2                	lw	s7,28(sp)
    58e6:	4c62                	lw	s8,24(sp)
    58e8:	6121                	addi	sp,sp,64
    58ea:	8a0ff06f          	j	498a <_malloc_r>
    58ee:	8aaa                	mv	s5,a0
    58f0:	c632                	sw	a2,12(sp)
    58f2:	e8aff0ef          	jal	ra,4f7c <__malloc_lock>
    58f6:	45b2                	lw	a1,12(sp)
    58f8:	ffc42683          	lw	a3,-4(s0)
    58fc:	00b58993          	addi	s3,a1,11
    5900:	47d9                	li	a5,22
    5902:	ff840b93          	addi	s7,s0,-8
    5906:	ffc6f913          	andi	s2,a3,-4
    590a:	0337f763          	bleu	s3,a5,5938 <_realloc_r+0x80>
    590e:	ff89fb13          	andi	s6,s3,-8
    5912:	020b5463          	bgez	s6,593a <_realloc_r+0x82>
    5916:	47b1                	li	a5,12
    5918:	00faa023          	sw	a5,0(s5)
    591c:	4a01                	li	s4,0
    591e:	50f2                	lw	ra,60(sp)
    5920:	5462                	lw	s0,56(sp)
    5922:	8552                	mv	a0,s4
    5924:	54d2                	lw	s1,52(sp)
    5926:	5942                	lw	s2,48(sp)
    5928:	59b2                	lw	s3,44(sp)
    592a:	5a22                	lw	s4,40(sp)
    592c:	5a92                	lw	s5,36(sp)
    592e:	5b02                	lw	s6,32(sp)
    5930:	4bf2                	lw	s7,28(sp)
    5932:	4c62                	lw	s8,24(sp)
    5934:	6121                	addi	sp,sp,64
    5936:	8082                	ret
    5938:	4b41                	li	s6,16
    593a:	fcbb6ee3          	bltu	s6,a1,5916 <_realloc_r+0x5e>
    593e:	31695063          	ble	s6,s2,5c3e <_realloc_r+0x386>
    5942:	d9418713          	addi	a4,gp,-620 # dc0c <__malloc_av_>
    5946:	4710                	lw	a2,8(a4)
    5948:	012b87b3          	add	a5,s7,s2
    594c:	43d8                	lw	a4,4(a5)
    594e:	d9418c13          	addi	s8,gp,-620 # dc0c <__malloc_av_>
    5952:	00f60863          	beq	a2,a5,5962 <_realloc_r+0xaa>
    5956:	ffe77513          	andi	a0,a4,-2
    595a:	953e                	add	a0,a0,a5
    595c:	4148                	lw	a0,4(a0)
    595e:	8905                	andi	a0,a0,1
    5960:	e559                	bnez	a0,59ee <_realloc_r+0x136>
    5962:	9b71                	andi	a4,a4,-4
    5964:	00e909b3          	add	s3,s2,a4
    5968:	02f61c63          	bne	a2,a5,59a0 <_realloc_r+0xe8>
    596c:	010b0513          	addi	a0,s6,16
    5970:	08a9c163          	blt	s3,a0,59f2 <_realloc_r+0x13a>
    5974:	9bda                	add	s7,s7,s6
    5976:	416989b3          	sub	s3,s3,s6
    597a:	017c2423          	sw	s7,8(s8)
    597e:	0019e993          	ori	s3,s3,1
    5982:	013ba223          	sw	s3,4(s7)
    5986:	ffc42983          	lw	s3,-4(s0)
    598a:	8556                	mv	a0,s5
    598c:	0019f993          	andi	s3,s3,1
    5990:	0169e9b3          	or	s3,s3,s6
    5994:	ff342e23          	sw	s3,-4(s0)
    5998:	de6ff0ef          	jal	ra,4f7e <__malloc_unlock>
    599c:	8a22                	mv	s4,s0
    599e:	b741                	j	591e <_realloc_r+0x66>
    59a0:	0569c963          	blt	s3,s6,59f2 <_realloc_r+0x13a>
    59a4:	47d8                	lw	a4,12(a5)
    59a6:	479c                	lw	a5,8(a5)
    59a8:	c7d8                	sw	a4,12(a5)
    59aa:	c71c                	sw	a5,8(a4)
    59ac:	004ba703          	lw	a4,4(s7)
    59b0:	416986b3          	sub	a3,s3,s6
    59b4:	463d                	li	a2,15
    59b6:	8b05                	andi	a4,a4,1
    59b8:	013b87b3          	add	a5,s7,s3
    59bc:	28d67363          	bleu	a3,a2,5c42 <_realloc_r+0x38a>
    59c0:	00eb69b3          	or	s3,s6,a4
    59c4:	013ba223          	sw	s3,4(s7)
    59c8:	016b85b3          	add	a1,s7,s6
    59cc:	0016e693          	ori	a3,a3,1
    59d0:	c1d4                	sw	a3,4(a1)
    59d2:	43d8                	lw	a4,4(a5)
    59d4:	05a1                	addi	a1,a1,8
    59d6:	00176713          	ori	a4,a4,1
    59da:	c3d8                	sw	a4,4(a5)
    59dc:	8556                	mv	a0,s5
    59de:	a38fd0ef          	jal	ra,2c16 <_free_r>
    59e2:	8556                	mv	a0,s5
    59e4:	d9aff0ef          	jal	ra,4f7e <__malloc_unlock>
    59e8:	008b8a13          	addi	s4,s7,8
    59ec:	bf0d                	j	591e <_realloc_r+0x66>
    59ee:	4701                	li	a4,0
    59f0:	4781                	li	a5,0
    59f2:	8a85                	andi	a3,a3,1
    59f4:	1a069763          	bnez	a3,5ba2 <_realloc_r+0x2ea>
    59f8:	ff842483          	lw	s1,-8(s0)
    59fc:	409b84b3          	sub	s1,s7,s1
    5a00:	0044aa03          	lw	s4,4(s1)
    5a04:	ffca7a13          	andi	s4,s4,-4
    5a08:	9a4a                	add	s4,s4,s2
    5a0a:	12078363          	beqz	a5,5b30 <_realloc_r+0x278>
    5a0e:	014709b3          	add	s3,a4,s4
    5a12:	0af61263          	bne	a2,a5,5ab6 <_realloc_r+0x1fe>
    5a16:	010b0793          	addi	a5,s6,16
    5a1a:	10f9cb63          	blt	s3,a5,5b30 <_realloc_r+0x278>
    5a1e:	4498                	lw	a4,8(s1)
    5a20:	44dc                	lw	a5,12(s1)
    5a22:	ffc90613          	addi	a2,s2,-4
    5a26:	c75c                	sw	a5,12(a4)
    5a28:	c798                	sw	a4,8(a5)
    5a2a:	02400713          	li	a4,36
    5a2e:	00848a13          	addi	s4,s1,8
    5a32:	06c76d63          	bltu	a4,a2,5aac <_realloc_r+0x1f4>
    5a36:	46cd                	li	a3,19
    5a38:	87d2                	mv	a5,s4
    5a3a:	00c6fc63          	bleu	a2,a3,5a52 <_realloc_r+0x19a>
    5a3e:	401c                	lw	a5,0(s0)
    5a40:	c49c                	sw	a5,8(s1)
    5a42:	405c                	lw	a5,4(s0)
    5a44:	c4dc                	sw	a5,12(s1)
    5a46:	47ed                	li	a5,27
    5a48:	02c7ef63          	bltu	a5,a2,5a86 <_realloc_r+0x1ce>
    5a4c:	0421                	addi	s0,s0,8
    5a4e:	01048793          	addi	a5,s1,16
    5a52:	4018                	lw	a4,0(s0)
    5a54:	c398                	sw	a4,0(a5)
    5a56:	4058                	lw	a4,4(s0)
    5a58:	c3d8                	sw	a4,4(a5)
    5a5a:	4418                	lw	a4,8(s0)
    5a5c:	c798                	sw	a4,8(a5)
    5a5e:	016487b3          	add	a5,s1,s6
    5a62:	416989b3          	sub	s3,s3,s6
    5a66:	00fc2423          	sw	a5,8(s8)
    5a6a:	0019e993          	ori	s3,s3,1
    5a6e:	0137a223          	sw	s3,4(a5)
    5a72:	40dc                	lw	a5,4(s1)
    5a74:	8b85                	andi	a5,a5,1
    5a76:	0167e9b3          	or	s3,a5,s6
    5a7a:	0134a223          	sw	s3,4(s1)
    5a7e:	8556                	mv	a0,s5
    5a80:	cfeff0ef          	jal	ra,4f7e <__malloc_unlock>
    5a84:	bd69                	j	591e <_realloc_r+0x66>
    5a86:	441c                	lw	a5,8(s0)
    5a88:	c89c                	sw	a5,16(s1)
    5a8a:	445c                	lw	a5,12(s0)
    5a8c:	c8dc                	sw	a5,20(s1)
    5a8e:	00e60663          	beq	a2,a4,5a9a <_realloc_r+0x1e2>
    5a92:	0441                	addi	s0,s0,16
    5a94:	01848793          	addi	a5,s1,24
    5a98:	bf6d                	j	5a52 <_realloc_r+0x19a>
    5a9a:	481c                	lw	a5,16(s0)
    5a9c:	0461                	addi	s0,s0,24
    5a9e:	cc9c                	sw	a5,24(s1)
    5aa0:	ffc42703          	lw	a4,-4(s0)
    5aa4:	02048793          	addi	a5,s1,32
    5aa8:	ccd8                	sw	a4,28(s1)
    5aaa:	b765                	j	5a52 <_realloc_r+0x19a>
    5aac:	85a2                	mv	a1,s0
    5aae:	8552                	mv	a0,s4
    5ab0:	c8eff0ef          	jal	ra,4f3e <memmove>
    5ab4:	b76d                	j	5a5e <_realloc_r+0x1a6>
    5ab6:	0769cd63          	blt	s3,s6,5b30 <_realloc_r+0x278>
    5aba:	47d8                	lw	a4,12(a5)
    5abc:	479c                	lw	a5,8(a5)
    5abe:	ffc90613          	addi	a2,s2,-4
    5ac2:	c7d8                	sw	a4,12(a5)
    5ac4:	c71c                	sw	a5,8(a4)
    5ac6:	4498                	lw	a4,8(s1)
    5ac8:	44dc                	lw	a5,12(s1)
    5aca:	00848513          	addi	a0,s1,8
    5ace:	c75c                	sw	a5,12(a4)
    5ad0:	c798                	sw	a4,8(a5)
    5ad2:	02400793          	li	a5,36
    5ad6:	04c7e963          	bltu	a5,a2,5b28 <_realloc_r+0x270>
    5ada:	474d                	li	a4,19
    5adc:	00c77c63          	bleu	a2,a4,5af4 <_realloc_r+0x23c>
    5ae0:	4018                	lw	a4,0(s0)
    5ae2:	c498                	sw	a4,8(s1)
    5ae4:	4058                	lw	a4,4(s0)
    5ae6:	c4d8                	sw	a4,12(s1)
    5ae8:	476d                	li	a4,27
    5aea:	00c76d63          	bltu	a4,a2,5b04 <_realloc_r+0x24c>
    5aee:	0421                	addi	s0,s0,8
    5af0:	01048513          	addi	a0,s1,16
    5af4:	401c                	lw	a5,0(s0)
    5af6:	c11c                	sw	a5,0(a0)
    5af8:	405c                	lw	a5,4(s0)
    5afa:	c15c                	sw	a5,4(a0)
    5afc:	441c                	lw	a5,8(s0)
    5afe:	c51c                	sw	a5,8(a0)
    5b00:	8ba6                	mv	s7,s1
    5b02:	b56d                	j	59ac <_realloc_r+0xf4>
    5b04:	4418                	lw	a4,8(s0)
    5b06:	c898                	sw	a4,16(s1)
    5b08:	4458                	lw	a4,12(s0)
    5b0a:	c8d8                	sw	a4,20(s1)
    5b0c:	00f60663          	beq	a2,a5,5b18 <_realloc_r+0x260>
    5b10:	0441                	addi	s0,s0,16
    5b12:	01848513          	addi	a0,s1,24
    5b16:	bff9                	j	5af4 <_realloc_r+0x23c>
    5b18:	481c                	lw	a5,16(s0)
    5b1a:	02048513          	addi	a0,s1,32
    5b1e:	cc9c                	sw	a5,24(s1)
    5b20:	485c                	lw	a5,20(s0)
    5b22:	0461                	addi	s0,s0,24
    5b24:	ccdc                	sw	a5,28(s1)
    5b26:	b7f9                	j	5af4 <_realloc_r+0x23c>
    5b28:	85a2                	mv	a1,s0
    5b2a:	c14ff0ef          	jal	ra,4f3e <memmove>
    5b2e:	bfc9                	j	5b00 <_realloc_r+0x248>
    5b30:	076a4963          	blt	s4,s6,5ba2 <_realloc_r+0x2ea>
    5b34:	44dc                	lw	a5,12(s1)
    5b36:	4498                	lw	a4,8(s1)
    5b38:	ffc90613          	addi	a2,s2,-4
    5b3c:	c75c                	sw	a5,12(a4)
    5b3e:	c798                	sw	a4,8(a5)
    5b40:	02400793          	li	a5,36
    5b44:	00848513          	addi	a0,s1,8
    5b48:	04c7e963          	bltu	a5,a2,5b9a <_realloc_r+0x2e2>
    5b4c:	474d                	li	a4,19
    5b4e:	00c77c63          	bleu	a2,a4,5b66 <_realloc_r+0x2ae>
    5b52:	4018                	lw	a4,0(s0)
    5b54:	c498                	sw	a4,8(s1)
    5b56:	4058                	lw	a4,4(s0)
    5b58:	c4d8                	sw	a4,12(s1)
    5b5a:	476d                	li	a4,27
    5b5c:	00c76d63          	bltu	a4,a2,5b76 <_realloc_r+0x2be>
    5b60:	0421                	addi	s0,s0,8
    5b62:	01048513          	addi	a0,s1,16
    5b66:	401c                	lw	a5,0(s0)
    5b68:	c11c                	sw	a5,0(a0)
    5b6a:	405c                	lw	a5,4(s0)
    5b6c:	c15c                	sw	a5,4(a0)
    5b6e:	441c                	lw	a5,8(s0)
    5b70:	c51c                	sw	a5,8(a0)
    5b72:	89d2                	mv	s3,s4
    5b74:	b771                	j	5b00 <_realloc_r+0x248>
    5b76:	4418                	lw	a4,8(s0)
    5b78:	c898                	sw	a4,16(s1)
    5b7a:	4458                	lw	a4,12(s0)
    5b7c:	c8d8                	sw	a4,20(s1)
    5b7e:	00f60663          	beq	a2,a5,5b8a <_realloc_r+0x2d2>
    5b82:	0441                	addi	s0,s0,16
    5b84:	01848513          	addi	a0,s1,24
    5b88:	bff9                	j	5b66 <_realloc_r+0x2ae>
    5b8a:	481c                	lw	a5,16(s0)
    5b8c:	02048513          	addi	a0,s1,32
    5b90:	cc9c                	sw	a5,24(s1)
    5b92:	485c                	lw	a5,20(s0)
    5b94:	0461                	addi	s0,s0,24
    5b96:	ccdc                	sw	a5,28(s1)
    5b98:	b7f9                	j	5b66 <_realloc_r+0x2ae>
    5b9a:	85a2                	mv	a1,s0
    5b9c:	ba2ff0ef          	jal	ra,4f3e <memmove>
    5ba0:	bfc9                	j	5b72 <_realloc_r+0x2ba>
    5ba2:	8556                	mv	a0,s5
    5ba4:	de7fe0ef          	jal	ra,498a <_malloc_r>
    5ba8:	8a2a                	mv	s4,a0
    5baa:	ec050ae3          	beqz	a0,5a7e <_realloc_r+0x1c6>
    5bae:	ffc42783          	lw	a5,-4(s0)
    5bb2:	ff850713          	addi	a4,a0,-8
    5bb6:	9bf9                	andi	a5,a5,-2
    5bb8:	97de                	add	a5,a5,s7
    5bba:	00e79863          	bne	a5,a4,5bca <_realloc_r+0x312>
    5bbe:	ffc52983          	lw	s3,-4(a0)
    5bc2:	ffc9f993          	andi	s3,s3,-4
    5bc6:	99ca                	add	s3,s3,s2
    5bc8:	b3d5                	j	59ac <_realloc_r+0xf4>
    5bca:	ffc90613          	addi	a2,s2,-4
    5bce:	02400793          	li	a5,36
    5bd2:	06c7e263          	bltu	a5,a2,5c36 <_realloc_r+0x37e>
    5bd6:	474d                	li	a4,19
    5bd8:	04c77c63          	bleu	a2,a4,5c30 <_realloc_r+0x378>
    5bdc:	4018                	lw	a4,0(s0)
    5bde:	c118                	sw	a4,0(a0)
    5be0:	4058                	lw	a4,4(s0)
    5be2:	c158                	sw	a4,4(a0)
    5be4:	476d                	li	a4,27
    5be6:	02c76163          	bltu	a4,a2,5c08 <_realloc_r+0x350>
    5bea:	00840713          	addi	a4,s0,8
    5bee:	00850793          	addi	a5,a0,8
    5bf2:	4314                	lw	a3,0(a4)
    5bf4:	c394                	sw	a3,0(a5)
    5bf6:	4354                	lw	a3,4(a4)
    5bf8:	c3d4                	sw	a3,4(a5)
    5bfa:	4718                	lw	a4,8(a4)
    5bfc:	c798                	sw	a4,8(a5)
    5bfe:	85a2                	mv	a1,s0
    5c00:	8556                	mv	a0,s5
    5c02:	814fd0ef          	jal	ra,2c16 <_free_r>
    5c06:	bda5                	j	5a7e <_realloc_r+0x1c6>
    5c08:	4418                	lw	a4,8(s0)
    5c0a:	c518                	sw	a4,8(a0)
    5c0c:	4458                	lw	a4,12(s0)
    5c0e:	c558                	sw	a4,12(a0)
    5c10:	00f60763          	beq	a2,a5,5c1e <_realloc_r+0x366>
    5c14:	01040713          	addi	a4,s0,16
    5c18:	01050793          	addi	a5,a0,16
    5c1c:	bfd9                	j	5bf2 <_realloc_r+0x33a>
    5c1e:	481c                	lw	a5,16(s0)
    5c20:	01840713          	addi	a4,s0,24
    5c24:	c91c                	sw	a5,16(a0)
    5c26:	4854                	lw	a3,20(s0)
    5c28:	01850793          	addi	a5,a0,24
    5c2c:	c954                	sw	a3,20(a0)
    5c2e:	b7d1                	j	5bf2 <_realloc_r+0x33a>
    5c30:	87aa                	mv	a5,a0
    5c32:	8722                	mv	a4,s0
    5c34:	bf7d                	j	5bf2 <_realloc_r+0x33a>
    5c36:	85a2                	mv	a1,s0
    5c38:	b06ff0ef          	jal	ra,4f3e <memmove>
    5c3c:	b7c9                	j	5bfe <_realloc_r+0x346>
    5c3e:	89ca                	mv	s3,s2
    5c40:	b3b5                	j	59ac <_realloc_r+0xf4>
    5c42:	00e9e9b3          	or	s3,s3,a4
    5c46:	013ba223          	sw	s3,4(s7)
    5c4a:	43d8                	lw	a4,4(a5)
    5c4c:	00176713          	ori	a4,a4,1
    5c50:	c3d8                	sw	a4,4(a5)
    5c52:	bb41                	j	59e2 <_realloc_r+0x12a>

00005c54 <_sbrk_r>:
    5c54:	1141                	addi	sp,sp,-16
    5c56:	c422                	sw	s0,8(sp)
    5c58:	c226                	sw	s1,4(sp)
    5c5a:	84aa                	mv	s1,a0
    5c5c:	852e                	mv	a0,a1
    5c5e:	c606                	sw	ra,12(sp)
    5c60:	2001a223          	sw	zero,516(gp) # e07c <errno>
    5c64:	e7bfa0ef          	jal	ra,ade <sbrk>
    5c68:	57fd                	li	a5,-1
    5c6a:	00f51663          	bne	a0,a5,5c76 <_sbrk_r+0x22>
    5c6e:	2041a783          	lw	a5,516(gp) # e07c <errno>
    5c72:	c391                	beqz	a5,5c76 <_sbrk_r+0x22>
    5c74:	c09c                	sw	a5,0(s1)
    5c76:	40b2                	lw	ra,12(sp)
    5c78:	4422                	lw	s0,8(sp)
    5c7a:	4492                	lw	s1,4(sp)
    5c7c:	0141                	addi	sp,sp,16
    5c7e:	8082                	ret

00005c80 <frexp>:
    5c80:	1141                	addi	sp,sp,-16
    5c82:	c226                	sw	s1,4(sp)
    5c84:	800004b7          	lui	s1,0x80000
    5c88:	c422                	sw	s0,8(sp)
    5c8a:	c606                	sw	ra,12(sp)
    5c8c:	fff4c493          	not	s1,s1
    5c90:	00b4f733          	and	a4,s1,a1
    5c94:	00062023          	sw	zero,0(a2)
    5c98:	7ff00837          	lui	a6,0x7ff00
    5c9c:	86aa                	mv	a3,a0
    5c9e:	87ae                	mv	a5,a1
    5ca0:	8432                	mv	s0,a2
    5ca2:	05075763          	ble	a6,a4,5cf0 <frexp+0x70>
    5ca6:	00a76833          	or	a6,a4,a0
    5caa:	04080363          	beqz	a6,5cf0 <frexp+0x70>
    5cae:	001007b7          	lui	a5,0x100
    5cb2:	862e                	mv	a2,a1
    5cb4:	02f75163          	ble	a5,a4,5cd6 <frexp+0x56>
    5cb8:	0000e7b7          	lui	a5,0xe
    5cbc:	02878793          	addi	a5,a5,40 # e028 <__SDATA_BEGIN__+0x10>
    5cc0:	4390                	lw	a2,0(a5)
    5cc2:	43d4                	lw	a3,4(a5)
    5cc4:	513030ef          	jal	ra,99d6 <__muldf3>
    5cc8:	fca00793          	li	a5,-54
    5ccc:	86aa                	mv	a3,a0
    5cce:	862e                	mv	a2,a1
    5cd0:	00b4f733          	and	a4,s1,a1
    5cd4:	c01c                	sw	a5,0(s0)
    5cd6:	401c                	lw	a5,0(s0)
    5cd8:	8751                	srai	a4,a4,0x14
    5cda:	c0270713          	addi	a4,a4,-1022 # ffeffc02 <pulp__FC+0xffeffc03>
    5cde:	973e                	add	a4,a4,a5
    5ce0:	801007b7          	lui	a5,0x80100
    5ce4:	17fd                	addi	a5,a5,-1
    5ce6:	8e7d                	and	a2,a2,a5
    5ce8:	3fe007b7          	lui	a5,0x3fe00
    5cec:	c018                	sw	a4,0(s0)
    5cee:	8fd1                	or	a5,a5,a2
    5cf0:	40b2                	lw	ra,12(sp)
    5cf2:	4422                	lw	s0,8(sp)
    5cf4:	4492                	lw	s1,4(sp)
    5cf6:	8536                	mv	a0,a3
    5cf8:	85be                	mv	a1,a5
    5cfa:	0141                	addi	sp,sp,16
    5cfc:	8082                	ret

00005cfe <_sprintf_r>:
    5cfe:	7135                	addi	sp,sp,-160
    5d00:	cb3e                	sw	a5,148(sp)
    5d02:	800007b7          	lui	a5,0x80000
    5d06:	fff7c793          	not	a5,a5
    5d0a:	ce3e                	sw	a5,28(sp)
    5d0c:	c83e                	sw	a5,16(sp)
    5d0e:	77c1                	lui	a5,0xffff0
    5d10:	c736                	sw	a3,140(sp)
    5d12:	c42e                	sw	a1,8(sp)
    5d14:	cc2e                	sw	a1,24(sp)
    5d16:	20878793          	addi	a5,a5,520 # ffff0208 <pulp__FC+0xffff0209>
    5d1a:	0174                	addi	a3,sp,140
    5d1c:	002c                	addi	a1,sp,8
    5d1e:	de86                	sw	ra,124(sp)
    5d20:	ca3e                	sw	a5,20(sp)
    5d22:	c93a                	sw	a4,144(sp)
    5d24:	cd42                	sw	a6,152(sp)
    5d26:	cf46                	sw	a7,156(sp)
    5d28:	c236                	sw	a3,4(sp)
    5d2a:	2ca5                	jal	5fa2 <_svfprintf_r>
    5d2c:	47a2                	lw	a5,8(sp)
    5d2e:	00078023          	sb	zero,0(a5)
    5d32:	50f6                	lw	ra,124(sp)
    5d34:	610d                	addi	sp,sp,160
    5d36:	8082                	ret

00005d38 <sprintf>:
    5d38:	7135                	addi	sp,sp,-160
    5d3a:	cb3e                	sw	a5,148(sp)
    5d3c:	800007b7          	lui	a5,0x80000
    5d40:	fff7c793          	not	a5,a5
    5d44:	ce3e                	sw	a5,28(sp)
    5d46:	c83e                	sw	a5,16(sp)
    5d48:	77c1                	lui	a5,0xffff0
    5d4a:	20878793          	addi	a5,a5,520 # ffff0208 <pulp__FC+0xffff0209>
    5d4e:	ca3e                	sw	a5,20(sp)
    5d50:	c42a                	sw	a0,8(sp)
    5d52:	cc2a                	sw	a0,24(sp)
    5d54:	1c01a503          	lw	a0,448(gp) # e038 <_impure_ptr>
    5d58:	c532                	sw	a2,136(sp)
    5d5a:	c736                	sw	a3,140(sp)
    5d5c:	862e                	mv	a2,a1
    5d5e:	0134                	addi	a3,sp,136
    5d60:	002c                	addi	a1,sp,8
    5d62:	de86                	sw	ra,124(sp)
    5d64:	c93a                	sw	a4,144(sp)
    5d66:	cd42                	sw	a6,152(sp)
    5d68:	cf46                	sw	a7,156(sp)
    5d6a:	c236                	sw	a3,4(sp)
    5d6c:	2c1d                	jal	5fa2 <_svfprintf_r>
    5d6e:	47a2                	lw	a5,8(sp)
    5d70:	00078023          	sb	zero,0(a5)
    5d74:	50f6                	lw	ra,124(sp)
    5d76:	610d                	addi	sp,sp,160
    5d78:	8082                	ret

00005d7a <__sread>:
    5d7a:	1141                	addi	sp,sp,-16
    5d7c:	c422                	sw	s0,8(sp)
    5d7e:	842e                	mv	s0,a1
    5d80:	00e59583          	lh	a1,14(a1)
    5d84:	c606                	sw	ra,12(sp)
    5d86:	576020ef          	jal	ra,82fc <_read_r>
    5d8a:	00054963          	bltz	a0,5d9c <__sread+0x22>
    5d8e:	483c                	lw	a5,80(s0)
    5d90:	97aa                	add	a5,a5,a0
    5d92:	c83c                	sw	a5,80(s0)
    5d94:	40b2                	lw	ra,12(sp)
    5d96:	4422                	lw	s0,8(sp)
    5d98:	0141                	addi	sp,sp,16
    5d9a:	8082                	ret
    5d9c:	00c45783          	lhu	a5,12(s0)
    5da0:	777d                	lui	a4,0xfffff
    5da2:	177d                	addi	a4,a4,-1
    5da4:	8ff9                	and	a5,a5,a4
    5da6:	00f41623          	sh	a5,12(s0)
    5daa:	b7ed                	j	5d94 <__sread+0x1a>

00005dac <__seofread>:
    5dac:	4501                	li	a0,0
    5dae:	8082                	ret

00005db0 <__swrite>:
    5db0:	00c5d783          	lhu	a5,12(a1)
    5db4:	1101                	addi	sp,sp,-32
    5db6:	cc22                	sw	s0,24(sp)
    5db8:	ca26                	sw	s1,20(sp)
    5dba:	c84a                	sw	s2,16(sp)
    5dbc:	c64e                	sw	s3,12(sp)
    5dbe:	ce06                	sw	ra,28(sp)
    5dc0:	1007f793          	andi	a5,a5,256
    5dc4:	84aa                	mv	s1,a0
    5dc6:	842e                	mv	s0,a1
    5dc8:	8932                	mv	s2,a2
    5dca:	89b6                	mv	s3,a3
    5dcc:	c799                	beqz	a5,5dda <__swrite+0x2a>
    5dce:	00e59583          	lh	a1,14(a1)
    5dd2:	4689                	li	a3,2
    5dd4:	4601                	li	a2,0
    5dd6:	4f6020ef          	jal	ra,82cc <_lseek_r>
    5dda:	00c45783          	lhu	a5,12(s0)
    5dde:	777d                	lui	a4,0xfffff
    5de0:	177d                	addi	a4,a4,-1
    5de2:	8ff9                	and	a5,a5,a4
    5de4:	00f41623          	sh	a5,12(s0)
    5de8:	00e41583          	lh	a1,14(s0)
    5dec:	4462                	lw	s0,24(sp)
    5dee:	40f2                	lw	ra,28(sp)
    5df0:	86ce                	mv	a3,s3
    5df2:	864a                	mv	a2,s2
    5df4:	49b2                	lw	s3,12(sp)
    5df6:	4942                	lw	s2,16(sp)
    5df8:	8526                	mv	a0,s1
    5dfa:	44d2                	lw	s1,20(sp)
    5dfc:	6105                	addi	sp,sp,32
    5dfe:	2060206f          	j	8004 <_write_r>

00005e02 <__sseek>:
    5e02:	1141                	addi	sp,sp,-16
    5e04:	c422                	sw	s0,8(sp)
    5e06:	842e                	mv	s0,a1
    5e08:	00e59583          	lh	a1,14(a1)
    5e0c:	c606                	sw	ra,12(sp)
    5e0e:	4be020ef          	jal	ra,82cc <_lseek_r>
    5e12:	57fd                	li	a5,-1
    5e14:	00c45703          	lhu	a4,12(s0)
    5e18:	00f51b63          	bne	a0,a5,5e2e <__sseek+0x2c>
    5e1c:	77fd                	lui	a5,0xfffff
    5e1e:	17fd                	addi	a5,a5,-1
    5e20:	8ff9                	and	a5,a5,a4
    5e22:	00f41623          	sh	a5,12(s0)
    5e26:	40b2                	lw	ra,12(sp)
    5e28:	4422                	lw	s0,8(sp)
    5e2a:	0141                	addi	sp,sp,16
    5e2c:	8082                	ret
    5e2e:	6785                	lui	a5,0x1
    5e30:	8fd9                	or	a5,a5,a4
    5e32:	00f41623          	sh	a5,12(s0)
    5e36:	c828                	sw	a0,80(s0)
    5e38:	b7fd                	j	5e26 <__sseek+0x24>

00005e3a <__sclose>:
    5e3a:	00e59583          	lh	a1,14(a1)
    5e3e:	26e0206f          	j	80ac <_close_r>

00005e42 <strcmp>:
    5e42:	00b56733          	or	a4,a0,a1
    5e46:	53fd                	li	t2,-1
    5e48:	8b0d                	andi	a4,a4,3
    5e4a:	e779                	bnez	a4,5f18 <strcmp+0xd6>
    5e4c:	7f7f8e37          	lui	t3,0x7f7f8
    5e50:	f7fe0e13          	addi	t3,t3,-129 # 7f7f7f7f <__heap_end+0x7f3f7f7f>
    5e54:	4110                	lw	a2,0(a0)
    5e56:	4194                	lw	a3,0(a1)
    5e58:	01c672b3          	and	t0,a2,t3
    5e5c:	01c66333          	or	t1,a2,t3
    5e60:	92f2                	add	t0,t0,t3
    5e62:	0062e2b3          	or	t0,t0,t1
    5e66:	0c729763          	bne	t0,t2,5f34 <strcmp+0xf2>
    5e6a:	06d61863          	bne	a2,a3,5eda <strcmp+0x98>
    5e6e:	4150                	lw	a2,4(a0)
    5e70:	41d4                	lw	a3,4(a1)
    5e72:	01c672b3          	and	t0,a2,t3
    5e76:	01c66333          	or	t1,a2,t3
    5e7a:	92f2                	add	t0,t0,t3
    5e7c:	0062e2b3          	or	t0,t0,t1
    5e80:	0a729863          	bne	t0,t2,5f30 <strcmp+0xee>
    5e84:	04d61b63          	bne	a2,a3,5eda <strcmp+0x98>
    5e88:	4510                	lw	a2,8(a0)
    5e8a:	4594                	lw	a3,8(a1)
    5e8c:	01c672b3          	and	t0,a2,t3
    5e90:	01c66333          	or	t1,a2,t3
    5e94:	92f2                	add	t0,t0,t3
    5e96:	0062e2b3          	or	t0,t0,t1
    5e9a:	0a729163          	bne	t0,t2,5f3c <strcmp+0xfa>
    5e9e:	02d61e63          	bne	a2,a3,5eda <strcmp+0x98>
    5ea2:	4550                	lw	a2,12(a0)
    5ea4:	45d4                	lw	a3,12(a1)
    5ea6:	01c672b3          	and	t0,a2,t3
    5eaa:	01c66333          	or	t1,a2,t3
    5eae:	92f2                	add	t0,t0,t3
    5eb0:	0062e2b3          	or	t0,t0,t1
    5eb4:	08729a63          	bne	t0,t2,5f48 <strcmp+0x106>
    5eb8:	02d61163          	bne	a2,a3,5eda <strcmp+0x98>
    5ebc:	4910                	lw	a2,16(a0)
    5ebe:	4994                	lw	a3,16(a1)
    5ec0:	01c672b3          	and	t0,a2,t3
    5ec4:	01c66333          	or	t1,a2,t3
    5ec8:	92f2                	add	t0,t0,t3
    5eca:	0062e2b3          	or	t0,t0,t1
    5ece:	08729363          	bne	t0,t2,5f54 <strcmp+0x112>
    5ed2:	0551                	addi	a0,a0,20
    5ed4:	05d1                	addi	a1,a1,20
    5ed6:	f6d60fe3          	beq	a2,a3,5e54 <strcmp+0x12>
    5eda:	01061713          	slli	a4,a2,0x10
    5ede:	01069793          	slli	a5,a3,0x10
    5ee2:	00f71c63          	bne	a4,a5,5efa <strcmp+0xb8>
    5ee6:	01065713          	srli	a4,a2,0x10
    5eea:	0106d793          	srli	a5,a3,0x10
    5eee:	40f70533          	sub	a0,a4,a5
    5ef2:	0ff57593          	andi	a1,a0,255
    5ef6:	e991                	bnez	a1,5f0a <strcmp+0xc8>
    5ef8:	8082                	ret
    5efa:	8341                	srli	a4,a4,0x10
    5efc:	83c1                	srli	a5,a5,0x10
    5efe:	40f70533          	sub	a0,a4,a5
    5f02:	0ff57593          	andi	a1,a0,255
    5f06:	e191                	bnez	a1,5f0a <strcmp+0xc8>
    5f08:	8082                	ret
    5f0a:	0ff77713          	andi	a4,a4,255
    5f0e:	0ff7f793          	andi	a5,a5,255
    5f12:	40f70533          	sub	a0,a4,a5
    5f16:	8082                	ret
    5f18:	00054603          	lbu	a2,0(a0)
    5f1c:	0005c683          	lbu	a3,0(a1)
    5f20:	0505                	addi	a0,a0,1
    5f22:	0585                	addi	a1,a1,1
    5f24:	00d61363          	bne	a2,a3,5f2a <strcmp+0xe8>
    5f28:	fa65                	bnez	a2,5f18 <strcmp+0xd6>
    5f2a:	40d60533          	sub	a0,a2,a3
    5f2e:	8082                	ret
    5f30:	0511                	addi	a0,a0,4
    5f32:	0591                	addi	a1,a1,4
    5f34:	fed612e3          	bne	a2,a3,5f18 <strcmp+0xd6>
    5f38:	4501                	li	a0,0
    5f3a:	8082                	ret
    5f3c:	0521                	addi	a0,a0,8
    5f3e:	05a1                	addi	a1,a1,8
    5f40:	fcd61ce3          	bne	a2,a3,5f18 <strcmp+0xd6>
    5f44:	4501                	li	a0,0
    5f46:	8082                	ret
    5f48:	0531                	addi	a0,a0,12
    5f4a:	05b1                	addi	a1,a1,12
    5f4c:	fcd616e3          	bne	a2,a3,5f18 <strcmp+0xd6>
    5f50:	4501                	li	a0,0
    5f52:	8082                	ret
    5f54:	0541                	addi	a0,a0,16
    5f56:	05c1                	addi	a1,a1,16
    5f58:	fcd610e3          	bne	a2,a3,5f18 <strcmp+0xd6>
    5f5c:	4501                	li	a0,0
    5f5e:	8082                	ret

00005f60 <strcpy>:
    5f60:	87aa                	mv	a5,a0
    5f62:	0005c703          	lbu	a4,0(a1)
    5f66:	0785                	addi	a5,a5,1
    5f68:	fee78fa3          	sb	a4,-1(a5) # fff <_vfprintf_r+0xeb>
    5f6c:	0585                	addi	a1,a1,1
    5f6e:	fb75                	bnez	a4,5f62 <strcpy+0x2>
    5f70:	8082                	ret

00005f72 <strncpy>:
    5f72:	872a                	mv	a4,a0
    5f74:	e211                	bnez	a2,5f78 <strncpy+0x6>
    5f76:	8082                	ret
    5f78:	0585                	addi	a1,a1,1
    5f7a:	fff5c683          	lbu	a3,-1(a1)
    5f7e:	00170793          	addi	a5,a4,1 # fffff001 <pulp__FC+0xfffff002>
    5f82:	fed78fa3          	sb	a3,-1(a5)
    5f86:	fff60813          	addi	a6,a2,-1
    5f8a:	e689                	bnez	a3,5f94 <strncpy+0x22>
    5f8c:	9732                	add	a4,a4,a2
    5f8e:	00e79663          	bne	a5,a4,5f9a <strncpy+0x28>
    5f92:	8082                	ret
    5f94:	873e                	mv	a4,a5
    5f96:	8642                	mv	a2,a6
    5f98:	bff1                	j	5f74 <strncpy+0x2>
    5f9a:	0785                	addi	a5,a5,1
    5f9c:	fe078fa3          	sb	zero,-1(a5)
    5fa0:	b7fd                	j	5f8e <strncpy+0x1c>

00005fa2 <_svfprintf_r>:
    5fa2:	7105                	addi	sp,sp,-480
    5fa4:	1c112e23          	sw	ra,476(sp)
    5fa8:	1c912a23          	sw	s1,468(sp)
    5fac:	1d212823          	sw	s2,464(sp)
    5fb0:	84b2                	mv	s1,a2
    5fb2:	1d312623          	sw	s3,460(sp)
    5fb6:	1d512223          	sw	s5,452(sp)
    5fba:	89ae                	mv	s3,a1
    5fbc:	8ab6                	mv	s5,a3
    5fbe:	1c812c23          	sw	s0,472(sp)
    5fc2:	1d412423          	sw	s4,456(sp)
    5fc6:	1d612023          	sw	s6,448(sp)
    5fca:	1b712e23          	sw	s7,444(sp)
    5fce:	1b812c23          	sw	s8,440(sp)
    5fd2:	1b912a23          	sw	s9,436(sp)
    5fd6:	1ba12823          	sw	s10,432(sp)
    5fda:	1bb12623          	sw	s11,428(sp)
    5fde:	892a                	mv	s2,a0
    5fe0:	801fe0ef          	jal	ra,47e0 <_localeconv_r>
    5fe4:	4108                	lw	a0,0(a0)
    5fe6:	c4aa                	sw	a0,72(sp)
    5fe8:	f1bfa0ef          	jal	ra,f02 <strlen>
    5fec:	dc2a                	sw	a0,56(sp)
    5fee:	4641                	li	a2,16
    5ff0:	4581                	li	a1,0
    5ff2:	1188                	addi	a0,sp,224
    5ff4:	cddfa0ef          	jal	ra,cd0 <memset>
    5ff8:	00c9d783          	lhu	a5,12(s3)
    5ffc:	0807f793          	andi	a5,a5,128
    6000:	cb85                	beqz	a5,6030 <_svfprintf_r+0x8e>
    6002:	0109a783          	lw	a5,16(s3)
    6006:	e78d                	bnez	a5,6030 <_svfprintf_r+0x8e>
    6008:	04000593          	li	a1,64
    600c:	854a                	mv	a0,s2
    600e:	97dfe0ef          	jal	ra,498a <_malloc_r>
    6012:	00a9a023          	sw	a0,0(s3)
    6016:	00a9a823          	sw	a0,16(s3)
    601a:	e519                	bnez	a0,6028 <_svfprintf_r+0x86>
    601c:	47b1                	li	a5,12
    601e:	00f92023          	sw	a5,0(s2)
    6022:	55fd                	li	a1,-1
    6024:	de2e                	sw	a1,60(sp)
    6026:	a101                	j	6426 <_svfprintf_r+0x484>
    6028:	04000793          	li	a5,64
    602c:	00f9aa23          	sw	a5,20(s3)
    6030:	0fc10893          	addi	a7,sp,252
    6034:	cbc6                	sw	a7,212(sp)
    6036:	cf82                	sw	zero,220(sp)
    6038:	cd82                	sw	zero,216(sp)
    603a:	4a01                	li	s4,0
    603c:	cc82                	sw	zero,88(sp)
    603e:	ca82                	sw	zero,84(sp)
    6040:	d402                	sw	zero,40(sp)
    6042:	c282                	sw	zero,68(sp)
    6044:	c882                	sw	zero,80(sp)
    6046:	de02                	sw	zero,60(sp)
    6048:	8426                	mv	s0,s1
    604a:	02500713          	li	a4,37
    604e:	00044783          	lbu	a5,0(s0)
    6052:	c399                	beqz	a5,6058 <_svfprintf_r+0xb6>
    6054:	08e79263          	bne	a5,a4,60d8 <_svfprintf_r+0x136>
    6058:	40940b33          	sub	s6,s0,s1
    605c:	020b0c63          	beqz	s6,6094 <_svfprintf_r+0xf2>
    6060:	47fe                	lw	a5,220(sp)
    6062:	0098a023          	sw	s1,0(a7)
    6066:	97da                	add	a5,a5,s6
    6068:	cfbe                	sw	a5,220(sp)
    606a:	47ee                	lw	a5,216(sp)
    606c:	0168a223          	sw	s6,4(a7)
    6070:	0785                	addi	a5,a5,1
    6072:	cdbe                	sw	a5,216(sp)
    6074:	471d                	li	a4,7
    6076:	08a1                	addi	a7,a7,8
    6078:	00f75b63          	ble	a5,a4,608e <_svfprintf_r+0xec>
    607c:	09d0                	addi	a2,sp,212
    607e:	85ce                	mv	a1,s3
    6080:	854a                	mv	a0,s2
    6082:	2aa020ef          	jal	ra,832c <__ssprint_r>
    6086:	38051a63          	bnez	a0,641a <_svfprintf_r+0x478>
    608a:	0fc10893          	addi	a7,sp,252
    608e:	5672                	lw	a2,60(sp)
    6090:	965a                	add	a2,a2,s6
    6092:	de32                	sw	a2,60(sp)
    6094:	00044783          	lbu	a5,0(s0)
    6098:	e399                	bnez	a5,609e <_svfprintf_r+0xfc>
    609a:	5140106f          	j	75ae <_svfprintf_r+0x160c>
    609e:	0405                	addi	s0,s0,1
    60a0:	d822                	sw	s0,48(sp)
    60a2:	0a010ba3          	sb	zero,183(sp)
    60a6:	5b7d                	li	s6,-1
    60a8:	c082                	sw	zero,64(sp)
    60aa:	4401                	li	s0,0
    60ac:	4c29                	li	s8,10
    60ae:	02a00b93          	li	s7,42
    60b2:	05a00613          	li	a2,90
    60b6:	4725                	li	a4,9
    60b8:	56c2                	lw	a3,48(sp)
    60ba:	0006cd03          	lbu	s10,0(a3)
    60be:	0685                	addi	a3,a3,1
    60c0:	d836                	sw	a3,48(sp)
    60c2:	fe0d0793          	addi	a5,s10,-32 # fe0 <_vfprintf_r+0xcc>
    60c6:	56f661e3          	bltu	a2,a5,6e28 <_svfprintf_r+0xe86>
    60ca:	65b5                	lui	a1,0xd
    60cc:	078a                	slli	a5,a5,0x2
    60ce:	ee058593          	addi	a1,a1,-288 # cee0 <__mprec_bigtens+0x28>
    60d2:	97ae                	add	a5,a5,a1
    60d4:	439c                	lw	a5,0(a5)
    60d6:	8782                	jr	a5
    60d8:	0405                	addi	s0,s0,1
    60da:	bf95                	j	604e <_svfprintf_r+0xac>
    60dc:	0000d7b7          	lui	a5,0xd
    60e0:	b1478793          	addi	a5,a5,-1260 # cb14 <zeroes.4384+0x68>
    60e4:	ccbe                	sw	a5,88(sp)
    60e6:	02047793          	andi	a5,s0,32
    60ea:	3e0783e3          	beqz	a5,6cd0 <_svfprintf_r+0xd2e>
    60ee:	0a9d                	addi	s5,s5,7
    60f0:	ff8afa93          	andi	s5,s5,-8
    60f4:	008a8793          	addi	a5,s5,8
    60f8:	000aac03          	lw	s8,0(s5)
    60fc:	004aac83          	lw	s9,4(s5)
    6100:	d63e                	sw	a5,44(sp)
    6102:	00147793          	andi	a5,s0,1
    6106:	cf89                	beqz	a5,6120 <_svfprintf_r+0x17e>
    6108:	019c67b3          	or	a5,s8,s9
    610c:	cb91                	beqz	a5,6120 <_svfprintf_r+0x17e>
    610e:	03000793          	li	a5,48
    6112:	0af10c23          	sb	a5,184(sp)
    6116:	87ea                	mv	a5,s10
    6118:	0af10ca3          	sb	a5,185(sp)
    611c:	00246413          	ori	s0,s0,2
    6120:	bff47413          	andi	s0,s0,-1025
    6124:	4789                	li	a5,2
    6126:	0d10006f          	j	69f6 <_svfprintf_r+0xa54>
    612a:	854a                	mv	a0,s2
    612c:	c246                	sw	a7,4(sp)
    612e:	eb2fe0ef          	jal	ra,47e0 <_localeconv_r>
    6132:	4148                	lw	a0,4(a0)
    6134:	c8aa                	sw	a0,80(sp)
    6136:	dcdfa0ef          	jal	ra,f02 <strlen>
    613a:	c2aa                	sw	a0,68(sp)
    613c:	854a                	mv	a0,s2
    613e:	ea2fe0ef          	jal	ra,47e0 <_localeconv_r>
    6142:	4508                	lw	a0,8(a0)
    6144:	4616                	lw	a2,68(sp)
    6146:	d42a                	sw	a0,40(sp)
    6148:	4892                	lw	a7,4(sp)
    614a:	d625                	beqz	a2,60b2 <_svfprintf_r+0x110>
    614c:	d13d                	beqz	a0,60b2 <_svfprintf_r+0x110>
    614e:	00054783          	lbu	a5,0(a0)
    6152:	d3a5                	beqz	a5,60b2 <_svfprintf_r+0x110>
    6154:	40046413          	ori	s0,s0,1024
    6158:	bfa9                	j	60b2 <_svfprintf_r+0x110>
    615a:	0b714783          	lbu	a5,183(sp)
    615e:	fbb1                	bnez	a5,60b2 <_svfprintf_r+0x110>
    6160:	02000793          	li	a5,32
    6164:	0af10ba3          	sb	a5,183(sp)
    6168:	b7a9                	j	60b2 <_svfprintf_r+0x110>
    616a:	00146413          	ori	s0,s0,1
    616e:	b791                	j	60b2 <_svfprintf_r+0x110>
    6170:	000aa683          	lw	a3,0(s5)
    6174:	0a91                	addi	s5,s5,4
    6176:	c0b6                	sw	a3,64(sp)
    6178:	f206dde3          	bgez	a3,60b2 <_svfprintf_r+0x110>
    617c:	40d006b3          	neg	a3,a3
    6180:	c0b6                	sw	a3,64(sp)
    6182:	00446413          	ori	s0,s0,4
    6186:	b735                	j	60b2 <_svfprintf_r+0x110>
    6188:	02b00793          	li	a5,43
    618c:	bfe1                	j	6164 <_svfprintf_r+0x1c2>
    618e:	55c2                	lw	a1,48(sp)
    6190:	0005cd03          	lbu	s10,0(a1)
    6194:	00158793          	addi	a5,a1,1
    6198:	037d1963          	bne	s10,s7,61ca <_svfprintf_r+0x228>
    619c:	000aab03          	lw	s6,0(s5)
    61a0:	004a8713          	addi	a4,s5,4
    61a4:	000b5363          	bgez	s6,61aa <_svfprintf_r+0x208>
    61a8:	5b7d                	li	s6,-1
    61aa:	8aba                	mv	s5,a4
    61ac:	d83e                	sw	a5,48(sp)
    61ae:	b711                	j	60b2 <_svfprintf_r+0x110>
    61b0:	0785                	addi	a5,a5,1
    61b2:	038b0333          	mul	t1,s6,s8
    61b6:	fff7cd03          	lbu	s10,-1(a5)
    61ba:	00d30b33          	add	s6,t1,a3
    61be:	fd0d0693          	addi	a3,s10,-48
    61c2:	fed777e3          	bleu	a3,a4,61b0 <_svfprintf_r+0x20e>
    61c6:	d83e                	sw	a5,48(sp)
    61c8:	bded                	j	60c2 <_svfprintf_r+0x120>
    61ca:	4b01                	li	s6,0
    61cc:	bfcd                	j	61be <_svfprintf_r+0x21c>
    61ce:	08046413          	ori	s0,s0,128
    61d2:	b5c5                	j	60b2 <_svfprintf_r+0x110>
    61d4:	57c2                	lw	a5,48(sp)
    61d6:	c082                	sw	zero,64(sp)
    61d8:	4586                	lw	a1,64(sp)
    61da:	fd0d0d13          	addi	s10,s10,-48
    61de:	038586b3          	mul	a3,a1,s8
    61e2:	9d36                	add	s10,s10,a3
    61e4:	0785                	addi	a5,a5,1
    61e6:	c0ea                	sw	s10,64(sp)
    61e8:	fff7cd03          	lbu	s10,-1(a5)
    61ec:	fd0d0693          	addi	a3,s10,-48
    61f0:	fed774e3          	bleu	a3,a4,61d8 <_svfprintf_r+0x236>
    61f4:	bfc9                	j	61c6 <_svfprintf_r+0x224>
    61f6:	00846413          	ori	s0,s0,8
    61fa:	bd65                	j	60b2 <_svfprintf_r+0x110>
    61fc:	5642                	lw	a2,48(sp)
    61fe:	06800793          	li	a5,104
    6202:	00064703          	lbu	a4,0(a2)
    6206:	00f71763          	bne	a4,a5,6214 <_svfprintf_r+0x272>
    620a:	0605                	addi	a2,a2,1
    620c:	d832                	sw	a2,48(sp)
    620e:	20046413          	ori	s0,s0,512
    6212:	b545                	j	60b2 <_svfprintf_r+0x110>
    6214:	04046413          	ori	s0,s0,64
    6218:	bd69                	j	60b2 <_svfprintf_r+0x110>
    621a:	56c2                	lw	a3,48(sp)
    621c:	06c00793          	li	a5,108
    6220:	0006c703          	lbu	a4,0(a3)
    6224:	00f71763          	bne	a4,a5,6232 <_svfprintf_r+0x290>
    6228:	0685                	addi	a3,a3,1
    622a:	d836                	sw	a3,48(sp)
    622c:	02046413          	ori	s0,s0,32
    6230:	b549                	j	60b2 <_svfprintf_r+0x110>
    6232:	01046413          	ori	s0,s0,16
    6236:	bdb5                	j	60b2 <_svfprintf_r+0x110>
    6238:	000aa783          	lw	a5,0(s5)
    623c:	004a8713          	addi	a4,s5,4
    6240:	d63a                	sw	a4,44(sp)
    6242:	12f10e23          	sb	a5,316(sp)
    6246:	0a010ba3          	sb	zero,183(sp)
    624a:	d202                	sw	zero,36(sp)
    624c:	4b05                	li	s6,1
    624e:	4a81                	li	s5,0
    6250:	4c01                	li	s8,0
    6252:	4b81                	li	s7,0
    6254:	4c81                	li	s9,0
    6256:	1a64                	addi	s1,sp,316
    6258:	0610006f          	j	6ab8 <_svfprintf_r+0xb16>
    625c:	01046413          	ori	s0,s0,16
    6260:	02047793          	andi	a5,s0,32
    6264:	cba9                	beqz	a5,62b6 <_svfprintf_r+0x314>
    6266:	0a9d                	addi	s5,s5,7
    6268:	ff8afa93          	andi	s5,s5,-8
    626c:	008a8793          	addi	a5,s5,8
    6270:	000aac03          	lw	s8,0(s5)
    6274:	004aac83          	lw	s9,4(s5)
    6278:	d63e                	sw	a5,44(sp)
    627a:	000cde63          	bgez	s9,6296 <_svfprintf_r+0x2f4>
    627e:	41800c33          	neg	s8,s8
    6282:	018037b3          	snez	a5,s8
    6286:	41900cb3          	neg	s9,s9
    628a:	40fc8cb3          	sub	s9,s9,a5
    628e:	02d00793          	li	a5,45
    6292:	0af10ba3          	sb	a5,183(sp)
    6296:	57fd                	li	a5,-1
    6298:	26fb13e3          	bne	s6,a5,6cfe <_svfprintf_r+0xd5c>
    629c:	2c0c94e3          	bnez	s9,6d64 <_svfprintf_r+0xdc2>
    62a0:	47a5                	li	a5,9
    62a2:	2d87e1e3          	bltu	a5,s8,6d64 <_svfprintf_r+0xdc2>
    62a6:	030c0c13          	addi	s8,s8,48
    62aa:	19810fa3          	sb	s8,415(sp)
    62ae:	19f10493          	addi	s1,sp,415
    62b2:	29d0006f          	j	6d4e <_svfprintf_r+0xdac>
    62b6:	004a8593          	addi	a1,s5,4
    62ba:	d62e                	sw	a1,44(sp)
    62bc:	01047793          	andi	a5,s0,16
    62c0:	c791                	beqz	a5,62cc <_svfprintf_r+0x32a>
    62c2:	000aac03          	lw	s8,0(s5)
    62c6:	41fc5c93          	srai	s9,s8,0x1f
    62ca:	bf45                	j	627a <_svfprintf_r+0x2d8>
    62cc:	04047793          	andi	a5,s0,64
    62d0:	000aac03          	lw	s8,0(s5)
    62d4:	c789                	beqz	a5,62de <_svfprintf_r+0x33c>
    62d6:	0c42                	slli	s8,s8,0x10
    62d8:	410c5c13          	srai	s8,s8,0x10
    62dc:	b7ed                	j	62c6 <_svfprintf_r+0x324>
    62de:	20047793          	andi	a5,s0,512
    62e2:	d3f5                	beqz	a5,62c6 <_svfprintf_r+0x324>
    62e4:	0c62                	slli	s8,s8,0x18
    62e6:	418c5c13          	srai	s8,s8,0x18
    62ea:	bff1                	j	62c6 <_svfprintf_r+0x324>
    62ec:	00847793          	andi	a5,s0,8
    62f0:	cfad                	beqz	a5,636a <_svfprintf_r+0x3c8>
    62f2:	000aa783          	lw	a5,0(s5)
    62f6:	004a8613          	addi	a2,s5,4
    62fa:	43d4                	lw	a3,4(a5)
    62fc:	4798                	lw	a4,8(a5)
    62fe:	d632                	sw	a2,44(sp)
    6300:	4390                	lw	a2,0(a5)
    6302:	47dc                	lw	a5,12(a5)
    6304:	d1b2                	sw	a2,224(sp)
    6306:	d3b6                	sw	a3,228(sp)
    6308:	d5ba                	sw	a4,232(sp)
    630a:	d7be                	sw	a5,236(sp)
    630c:	1188                	addi	a0,sp,224
    630e:	c246                	sw	a7,4(sp)
    6310:	c8cfe0ef          	jal	ra,479c <_ldcheck>
    6314:	df2a                	sw	a0,188(sp)
    6316:	4789                	li	a5,2
    6318:	4892                	lw	a7,4(sp)
    631a:	08f51563          	bne	a0,a5,63a4 <_svfprintf_r+0x402>
    631e:	578e                	lw	a5,224(sp)
    6320:	090c                	addi	a1,sp,144
    6322:	d13e                	sw	a5,160(sp)
    6324:	579e                	lw	a5,228(sp)
    6326:	1108                	addi	a0,sp,160
    6328:	d33e                	sw	a5,164(sp)
    632a:	57ae                	lw	a5,232(sp)
    632c:	c902                	sw	zero,144(sp)
    632e:	d53e                	sw	a5,168(sp)
    6330:	57be                	lw	a5,236(sp)
    6332:	cb02                	sw	zero,148(sp)
    6334:	d73e                	sw	a5,172(sp)
    6336:	cd02                	sw	zero,152(sp)
    6338:	cf02                	sw	zero,156(sp)
    633a:	4c1030ef          	jal	ra,9ffa <__letf2>
    633e:	4892                	lw	a7,4(sp)
    6340:	00055663          	bgez	a0,634c <_svfprintf_r+0x3aa>
    6344:	02d00793          	li	a5,45
    6348:	0af10ba3          	sb	a5,183(sp)
    634c:	04700793          	li	a5,71
    6350:	05a7c563          	blt	a5,s10,639a <_svfprintf_r+0x3f8>
    6354:	0000d4b7          	lui	s1,0xd
    6358:	af048493          	addi	s1,s1,-1296 # caf0 <zeroes.4384+0x44>
    635c:	f7f47413          	andi	s0,s0,-129
    6360:	d202                	sw	zero,36(sp)
    6362:	4b0d                	li	s6,3
    6364:	4a81                	li	s5,0
    6366:	1f30006f          	j	6d58 <_svfprintf_r+0xdb6>
    636a:	0a9d                	addi	s5,s5,7
    636c:	ff8afa93          	andi	s5,s5,-8
    6370:	000aa583          	lw	a1,0(s5)
    6374:	004aa603          	lw	a2,4(s5)
    6378:	008a8693          	addi	a3,s5,8
    637c:	1108                	addi	a0,sp,160
    637e:	c246                	sw	a7,4(sp)
    6380:	d636                	sw	a3,44(sp)
    6382:	1db050ef          	jal	ra,bd5c <__extenddftf2>
    6386:	578a                	lw	a5,160(sp)
    6388:	4892                	lw	a7,4(sp)
    638a:	d1be                	sw	a5,224(sp)
    638c:	579a                	lw	a5,164(sp)
    638e:	d3be                	sw	a5,228(sp)
    6390:	57aa                	lw	a5,168(sp)
    6392:	d5be                	sw	a5,232(sp)
    6394:	57ba                	lw	a5,172(sp)
    6396:	d7be                	sw	a5,236(sp)
    6398:	bf95                	j	630c <_svfprintf_r+0x36a>
    639a:	0000d4b7          	lui	s1,0xd
    639e:	af448493          	addi	s1,s1,-1292 # caf4 <zeroes.4384+0x48>
    63a2:	bf6d                	j	635c <_svfprintf_r+0x3ba>
    63a4:	4785                	li	a5,1
    63a6:	02f51063          	bne	a0,a5,63c6 <_svfprintf_r+0x424>
    63aa:	04700793          	li	a5,71
    63ae:	01a7c763          	blt	a5,s10,63bc <_svfprintf_r+0x41a>
    63b2:	0000d4b7          	lui	s1,0xd
    63b6:	af848493          	addi	s1,s1,-1288 # caf8 <zeroes.4384+0x4c>
    63ba:	b74d                	j	635c <_svfprintf_r+0x3ba>
    63bc:	0000d4b7          	lui	s1,0xd
    63c0:	afc48493          	addi	s1,s1,-1284 # cafc <zeroes.4384+0x50>
    63c4:	bf61                	j	635c <_svfprintf_r+0x3ba>
    63c6:	fdfd7b93          	andi	s7,s10,-33
    63ca:	04100793          	li	a5,65
    63ce:	08fb9963          	bne	s7,a5,6460 <_svfprintf_r+0x4be>
    63d2:	03000793          	li	a5,48
    63d6:	0af10c23          	sb	a5,184(sp)
    63da:	06100713          	li	a4,97
    63de:	05800793          	li	a5,88
    63e2:	00ed1463          	bne	s10,a4,63ea <_svfprintf_r+0x448>
    63e6:	07800793          	li	a5,120
    63ea:	0af10ca3          	sb	a5,185(sp)
    63ee:	06300793          	li	a5,99
    63f2:	00246413          	ori	s0,s0,2
    63f6:	3967d563          	ble	s6,a5,6780 <_svfprintf_r+0x7de>
    63fa:	001b0593          	addi	a1,s6,1
    63fe:	854a                	mv	a0,s2
    6400:	c246                	sw	a7,4(sp)
    6402:	d88fe0ef          	jal	ra,498a <_malloc_r>
    6406:	84aa                	mv	s1,a0
    6408:	4892                	lw	a7,4(sp)
    640a:	36051e63          	bnez	a0,6786 <_svfprintf_r+0x7e4>
    640e:	00c9d783          	lhu	a5,12(s3)
    6412:	0407e793          	ori	a5,a5,64
    6416:	00f99623          	sh	a5,12(s3)
    641a:	00c9d783          	lhu	a5,12(s3)
    641e:	0407f793          	andi	a5,a5,64
    6422:	c00790e3          	bnez	a5,6022 <_svfprintf_r+0x80>
    6426:	1dc12083          	lw	ra,476(sp)
    642a:	1d812403          	lw	s0,472(sp)
    642e:	5572                	lw	a0,60(sp)
    6430:	1d412483          	lw	s1,468(sp)
    6434:	1d012903          	lw	s2,464(sp)
    6438:	1cc12983          	lw	s3,460(sp)
    643c:	1c812a03          	lw	s4,456(sp)
    6440:	1c412a83          	lw	s5,452(sp)
    6444:	1c012b03          	lw	s6,448(sp)
    6448:	1bc12b83          	lw	s7,444(sp)
    644c:	1b812c03          	lw	s8,440(sp)
    6450:	1b412c83          	lw	s9,436(sp)
    6454:	1b012d03          	lw	s10,432(sp)
    6458:	1ac12d83          	lw	s11,428(sp)
    645c:	613d                	addi	sp,sp,480
    645e:	8082                	ret
    6460:	57fd                	li	a5,-1
    6462:	32fb0463          	beq	s6,a5,678a <_svfprintf_r+0x7e8>
    6466:	04700793          	li	a5,71
    646a:	d202                	sw	zero,36(sp)
    646c:	00fb9463          	bne	s7,a5,6474 <_svfprintf_r+0x4d2>
    6470:	320b0063          	beqz	s6,6790 <_svfprintf_r+0x7ee>
    6474:	10046713          	ori	a4,s0,256
    6478:	5abe                	lw	s5,236(sp)
    647a:	da3a                	sw	a4,52(sp)
    647c:	c682                	sw	zero,76(sp)
    647e:	5e0e                	lw	t3,224(sp)
    6480:	5d9e                	lw	s11,228(sp)
    6482:	5cae                	lw	s9,232(sp)
    6484:	000ad963          	bgez	s5,6496 <_svfprintf_r+0x4f4>
    6488:	800007b7          	lui	a5,0x80000
    648c:	0157cab3          	xor	s5,a5,s5
    6490:	02d00793          	li	a5,45
    6494:	c6be                	sw	a5,76(sp)
    6496:	04100793          	li	a5,65
    649a:	32fb9863          	bne	s7,a5,67ca <_svfprintf_r+0x828>
    649e:	1108                	addi	a0,sp,160
    64a0:	c246                	sw	a7,4(sp)
    64a2:	d172                	sw	t3,160(sp)
    64a4:	d36e                	sw	s11,164(sp)
    64a6:	d566                	sw	s9,168(sp)
    64a8:	d756                	sw	s5,172(sp)
    64aa:	21d050ef          	jal	ra,bec6 <__trunctfdf2>
    64ae:	1970                	addi	a2,sp,188
    64b0:	fd0ff0ef          	jal	ra,5c80 <frexp>
    64b4:	862e                	mv	a2,a1
    64b6:	85aa                	mv	a1,a0
    64b8:	1108                	addi	a0,sp,160
    64ba:	0a3050ef          	jal	ra,bd5c <__extenddftf2>
    64be:	558a                	lw	a1,160(sp)
    64c0:	0000d7b7          	lui	a5,0xd
    64c4:	c12e                	sw	a1,128(sp)
    64c6:	559a                	lw	a1,164(sp)
    64c8:	ac078793          	addi	a5,a5,-1344 # cac0 <zeroes.4384+0x14>
    64cc:	c32e                	sw	a1,132(sp)
    64ce:	55aa                	lw	a1,168(sp)
    64d0:	4390                	lw	a2,0(a5)
    64d2:	c52e                	sw	a1,136(sp)
    64d4:	55ba                	lw	a1,172(sp)
    64d6:	43d4                	lw	a3,4(a5)
    64d8:	4798                	lw	a4,8(a5)
    64da:	47dc                	lw	a5,12(a5)
    64dc:	c72e                	sw	a1,140(sp)
    64de:	d8b2                	sw	a2,112(sp)
    64e0:	010c                	addi	a1,sp,128
    64e2:	1890                	addi	a2,sp,112
    64e4:	0908                	addi	a0,sp,144
    64e6:	dab6                	sw	a3,116(sp)
    64e8:	dcba                	sw	a4,120(sp)
    64ea:	debe                	sw	a5,124(sp)
    64ec:	421030ef          	jal	ra,a10c <__multf3>
    64f0:	43ca                	lw	t2,144(sp)
    64f2:	485a                	lw	a6,148(sp)
    64f4:	4dea                	lw	s11,152(sp)
    64f6:	4cfa                	lw	s9,156(sp)
    64f8:	090c                	addi	a1,sp,144
    64fa:	1108                	addi	a0,sp,160
    64fc:	d11e                	sw	t2,160(sp)
    64fe:	d342                	sw	a6,164(sp)
    6500:	d01e                	sw	t2,32(sp)
    6502:	cc42                	sw	a6,24(sp)
    6504:	d56e                	sw	s11,168(sp)
    6506:	d766                	sw	s9,172(sp)
    6508:	c902                	sw	zero,144(sp)
    650a:	cb02                	sw	zero,148(sp)
    650c:	cd02                	sw	zero,152(sp)
    650e:	cf02                	sw	zero,156(sp)
    6510:	133030ef          	jal	ra,9e42 <__eqtf2>
    6514:	5382                	lw	t2,32(sp)
    6516:	4862                	lw	a6,24(sp)
    6518:	4892                	lw	a7,4(sp)
    651a:	e119                	bnez	a0,6520 <_svfprintf_r+0x57e>
    651c:	4785                	li	a5,1
    651e:	df3e                	sw	a5,188(sp)
    6520:	06100793          	li	a5,97
    6524:	26fd1963          	bne	s10,a5,6796 <_svfprintf_r+0x7f4>
    6528:	0000da37          	lui	s4,0xd
    652c:	b00a0a13          	addi	s4,s4,-1280 # cb00 <zeroes.4384+0x54>
    6530:	0000d737          	lui	a4,0xd
    6534:	ad070713          	addi	a4,a4,-1328 # cad0 <zeroes.4384+0x24>
    6538:	4314                	lw	a3,0(a4)
    653a:	435c                	lw	a5,4(a4)
    653c:	d0b6                	sw	a3,96(sp)
    653e:	4714                	lw	a3,8(a4)
    6540:	4758                	lw	a4,12(a4)
    6542:	fffb0e13          	addi	t3,s6,-1
    6546:	8c26                	mv	s8,s1
    6548:	d2be                	sw	a5,100(sp)
    654a:	d4b6                	sw	a3,104(sp)
    654c:	d6ba                	sw	a4,108(sp)
    654e:	5706                	lw	a4,96(sp)
    6550:	5796                	lw	a5,100(sp)
    6552:	56a6                	lw	a3,104(sp)
    6554:	c13a                	sw	a4,128(sp)
    6556:	5736                	lw	a4,108(sp)
    6558:	090c                	addi	a1,sp,144
    655a:	0110                	addi	a2,sp,128
    655c:	1108                	addi	a0,sp,160
    655e:	c246                	sw	a7,4(sp)
    6560:	c472                	sw	t3,8(sp)
    6562:	c91e                	sw	t2,144(sp)
    6564:	cb42                	sw	a6,148(sp)
    6566:	c33e                	sw	a5,132(sp)
    6568:	c73a                	sw	a4,140(sp)
    656a:	cd6e                	sw	s11,152(sp)
    656c:	cf66                	sw	s9,156(sp)
    656e:	c536                	sw	a3,136(sp)
    6570:	39d030ef          	jal	ra,a10c <__multf3>
    6574:	560a                	lw	a2,160(sp)
    6576:	569a                	lw	a3,164(sp)
    6578:	1108                	addi	a0,sp,160
    657a:	d032                	sw	a2,32(sp)
    657c:	cc36                	sw	a3,24(sp)
    657e:	5fa050ef          	jal	ra,bb78 <__fixtfsi>
    6582:	85aa                	mv	a1,a0
    6584:	8aaa                	mv	s5,a0
    6586:	1108                	addi	a0,sp,160
    6588:	5daa                	lw	s11,168(sp)
    658a:	5cba                	lw	s9,172(sp)
    658c:	6e2050ef          	jal	ra,bc6e <__floatsitf>
    6590:	570a                	lw	a4,160(sp)
    6592:	5602                	lw	a2,32(sp)
    6594:	d8ba                	sw	a4,112(sp)
    6596:	571a                	lw	a4,164(sp)
    6598:	46e2                	lw	a3,24(sp)
    659a:	daba                	sw	a4,116(sp)
    659c:	572a                	lw	a4,168(sp)
    659e:	c132                	sw	a2,128(sp)
    65a0:	dcba                	sw	a4,120(sp)
    65a2:	573a                	lw	a4,172(sp)
    65a4:	1890                	addi	a2,sp,112
    65a6:	010c                	addi	a1,sp,128
    65a8:	0908                	addi	a0,sp,144
    65aa:	c56e                	sw	s11,136(sp)
    65ac:	c766                	sw	s9,140(sp)
    65ae:	deba                	sw	a4,124(sp)
    65b0:	c336                	sw	a3,132(sp)
    65b2:	72e040ef          	jal	ra,ace0 <__subtf3>
    65b6:	015a0733          	add	a4,s4,s5
    65ba:	00074703          	lbu	a4,0(a4)
    65be:	0c05                	addi	s8,s8,1
    65c0:	4f6a                	lw	t5,152(sp)
    65c2:	4efa                	lw	t4,156(sp)
    65c4:	42ca                	lw	t0,144(sp)
    65c6:	4fda                	lw	t6,148(sp)
    65c8:	feec0fa3          	sb	a4,-1(s8)
    65cc:	4e22                	lw	t3,8(sp)
    65ce:	577d                	li	a4,-1
    65d0:	cef2                	sw	t3,92(sp)
    65d2:	8dfa                	mv	s11,t5
    65d4:	8cf6                	mv	s9,t4
    65d6:	4892                	lw	a7,4(sp)
    65d8:	02ee0f63          	beq	t3,a4,6616 <_svfprintf_r+0x674>
    65dc:	1e7d                	addi	t3,t3,-1
    65de:	090c                	addi	a1,sp,144
    65e0:	1108                	addi	a0,sp,160
    65e2:	d116                	sw	t0,160(sp)
    65e4:	d37e                	sw	t6,164(sp)
    65e6:	d57a                	sw	t5,168(sp)
    65e8:	d776                	sw	t4,172(sp)
    65ea:	ce16                	sw	t0,28(sp)
    65ec:	d016                	sw	t0,32(sp)
    65ee:	cc7e                	sw	t6,24(sp)
    65f0:	c472                	sw	t3,8(sp)
    65f2:	c676                	sw	t4,12(sp)
    65f4:	c87a                	sw	t5,16(sp)
    65f6:	ca7e                	sw	t6,20(sp)
    65f8:	c902                	sw	zero,144(sp)
    65fa:	cb02                	sw	zero,148(sp)
    65fc:	cd02                	sw	zero,152(sp)
    65fe:	cf02                	sw	zero,156(sp)
    6600:	043030ef          	jal	ra,9e42 <__eqtf2>
    6604:	42f2                	lw	t0,28(sp)
    6606:	5382                	lw	t2,32(sp)
    6608:	4862                	lw	a6,24(sp)
    660a:	4892                	lw	a7,4(sp)
    660c:	4e22                	lw	t3,8(sp)
    660e:	4eb2                	lw	t4,12(sp)
    6610:	4f42                	lw	t5,16(sp)
    6612:	4fd2                	lw	t6,20(sp)
    6614:	fd0d                	bnez	a0,654e <_svfprintf_r+0x5ac>
    6616:	0000d737          	lui	a4,0xd
    661a:	ae070713          	addi	a4,a4,-1312 # cae0 <zeroes.4384+0x34>
    661e:	4310                	lw	a2,0(a4)
    6620:	4354                	lw	a3,4(a4)
    6622:	00872d83          	lw	s11,8(a4)
    6626:	00c72c83          	lw	s9,12(a4)
    662a:	090c                	addi	a1,sp,144
    662c:	1108                	addi	a0,sp,160
    662e:	d116                	sw	t0,160(sp)
    6630:	d37e                	sw	t6,164(sp)
    6632:	d57a                	sw	t5,168(sp)
    6634:	d776                	sw	t4,172(sp)
    6636:	c932                	sw	a2,144(sp)
    6638:	cb36                	sw	a3,148(sp)
    663a:	ce16                	sw	t0,28(sp)
    663c:	d032                	sw	a2,32(sp)
    663e:	cc36                	sw	a3,24(sp)
    6640:	c246                	sw	a7,4(sp)
    6642:	c676                	sw	t4,12(sp)
    6644:	c87a                	sw	t5,16(sp)
    6646:	ca7e                	sw	t6,20(sp)
    6648:	cd6e                	sw	s11,152(sp)
    664a:	cf66                	sw	s9,156(sp)
    664c:	09d030ef          	jal	ra,9ee8 <__getf2>
    6650:	42f2                	lw	t0,28(sp)
    6652:	5602                	lw	a2,32(sp)
    6654:	46e2                	lw	a3,24(sp)
    6656:	4892                	lw	a7,4(sp)
    6658:	4eb2                	lw	t4,12(sp)
    665a:	4f42                	lw	t5,16(sp)
    665c:	4fd2                	lw	t6,20(sp)
    665e:	02a04563          	bgtz	a0,6688 <_svfprintf_r+0x6e6>
    6662:	090c                	addi	a1,sp,144
    6664:	1108                	addi	a0,sp,160
    6666:	d116                	sw	t0,160(sp)
    6668:	d37e                	sw	t6,164(sp)
    666a:	d57a                	sw	t5,168(sp)
    666c:	d776                	sw	t4,172(sp)
    666e:	c932                	sw	a2,144(sp)
    6670:	cb36                	sw	a3,148(sp)
    6672:	cd6e                	sw	s11,152(sp)
    6674:	cf66                	sw	s9,156(sp)
    6676:	7cc030ef          	jal	ra,9e42 <__eqtf2>
    667a:	4892                	lw	a7,4(sp)
    667c:	14051163          	bnez	a0,67be <_svfprintf_r+0x81c>
    6680:	001afa93          	andi	s5,s5,1
    6684:	120a8d63          	beqz	s5,67be <_svfprintf_r+0x81c>
    6688:	00fa4603          	lbu	a2,15(s4)
    668c:	c7e2                	sw	s8,204(sp)
    668e:	03000593          	li	a1,48
    6692:	46be                	lw	a3,204(sp)
    6694:	fff68713          	addi	a4,a3,-1
    6698:	c7ba                	sw	a4,204(sp)
    669a:	fff6c703          	lbu	a4,-1(a3)
    669e:	10c70163          	beq	a4,a2,67a0 <_svfprintf_r+0x7fe>
    66a2:	03900613          	li	a2,57
    66a6:	10c71063          	bne	a4,a2,67a6 <_svfprintf_r+0x804>
    66aa:	00aa4703          	lbu	a4,10(s4)
    66ae:	fee68fa3          	sb	a4,-1(a3)
    66b2:	8a62                	mv	s4,s8
    66b4:	04700713          	li	a4,71
    66b8:	409a0a33          	sub	s4,s4,s1
    66bc:	5cfa                	lw	s9,188(sp)
    66be:	1ceb9e63          	bne	s7,a4,689a <_svfprintf_r+0x8f8>
    66c2:	5775                	li	a4,-3
    66c4:	00ecc463          	blt	s9,a4,66cc <_svfprintf_r+0x72a>
    66c8:	239b5d63          	ble	s9,s6,6902 <_svfprintf_r+0x960>
    66cc:	1d79                	addi	s10,s10,-2
    66ce:	fffc8693          	addi	a3,s9,-1
    66d2:	df36                	sw	a3,188(sp)
    66d4:	fdfd7613          	andi	a2,s10,-33
    66d8:	04100513          	li	a0,65
    66dc:	0ffd7713          	andi	a4,s10,255
    66e0:	4581                	li	a1,0
    66e2:	00a61663          	bne	a2,a0,66ee <_svfprintf_r+0x74c>
    66e6:	073d                	addi	a4,a4,15
    66e8:	0ff77713          	andi	a4,a4,255
    66ec:	4585                	li	a1,1
    66ee:	0ce10223          	sb	a4,196(sp)
    66f2:	02b00793          	li	a5,43
    66f6:	0006d763          	bgez	a3,6704 <_svfprintf_r+0x762>
    66fa:	4685                	li	a3,1
    66fc:	419686b3          	sub	a3,a3,s9
    6700:	02d00793          	li	a5,45
    6704:	0cf102a3          	sb	a5,197(sp)
    6708:	47a5                	li	a5,9
    670a:	1cd7d363          	ble	a3,a5,68d0 <_svfprintf_r+0x92e>
    670e:	0d310713          	addi	a4,sp,211
    6712:	853a                	mv	a0,a4
    6714:	45a9                	li	a1,10
    6716:	4825                	li	a6,9
    6718:	02b6e7b3          	rem	a5,a3,a1
    671c:	02b6c6b3          	div	a3,a3,a1
    6720:	03078793          	addi	a5,a5,48
    6724:	fef70fa3          	sb	a5,-1(a4)
    6728:	fff70613          	addi	a2,a4,-1
    672c:	18d84963          	blt	a6,a3,68be <_svfprintf_r+0x91c>
    6730:	03068793          	addi	a5,a3,48
    6734:	fef60fa3          	sb	a5,-1(a2)
    6738:	1779                	addi	a4,a4,-2
    673a:	0c610613          	addi	a2,sp,198
    673e:	18a76263          	bltu	a4,a0,68c2 <_svfprintf_r+0x920>
    6742:	01dc                	addi	a5,sp,196
    6744:	40f607b3          	sub	a5,a2,a5
    6748:	cabe                	sw	a5,84(sp)
    674a:	01478b33          	add	s6,a5,s4
    674e:	4785                	li	a5,1
    6750:	0147c563          	blt	a5,s4,675a <_svfprintf_r+0x7b8>
    6754:	00147793          	andi	a5,s0,1
    6758:	c399                	beqz	a5,675e <_svfprintf_r+0x7bc>
    675a:	55e2                	lw	a1,56(sp)
    675c:	9b2e                	add	s6,s6,a1
    675e:	bff47413          	andi	s0,s0,-1025
    6762:	10046413          	ori	s0,s0,256
    6766:	da22                	sw	s0,52(sp)
    6768:	4c01                	li	s8,0
    676a:	4b81                	li	s7,0
    676c:	4c81                	li	s9,0
    676e:	4736                	lw	a4,76(sp)
    6770:	c709                	beqz	a4,677a <_svfprintf_r+0x7d8>
    6772:	02d00713          	li	a4,45
    6776:	0ae10ba3          	sb	a4,183(sp)
    677a:	5452                	lw	s0,52(sp)
    677c:	4a81                	li	s5,0
    677e:	ae2d                	j	6ab8 <_svfprintf_r+0xb16>
    6780:	d202                	sw	zero,36(sp)
    6782:	1a64                	addi	s1,sp,316
    6784:	b9c5                	j	6474 <_svfprintf_r+0x4d2>
    6786:	d22a                	sw	a0,36(sp)
    6788:	b1f5                	j	6474 <_svfprintf_r+0x4d2>
    678a:	d202                	sw	zero,36(sp)
    678c:	4b19                	li	s6,6
    678e:	b1dd                	j	6474 <_svfprintf_r+0x4d2>
    6790:	d25a                	sw	s6,36(sp)
    6792:	4b05                	li	s6,1
    6794:	b1c5                	j	6474 <_svfprintf_r+0x4d2>
    6796:	0000da37          	lui	s4,0xd
    679a:	b14a0a13          	addi	s4,s4,-1260 # cb14 <zeroes.4384+0x68>
    679e:	bb49                	j	6530 <_svfprintf_r+0x58e>
    67a0:	feb68fa3          	sb	a1,-1(a3)
    67a4:	b5fd                	j	6692 <_svfprintf_r+0x6f0>
    67a6:	0705                	addi	a4,a4,1
    67a8:	0ff77713          	andi	a4,a4,255
    67ac:	b709                	j	66ae <_svfprintf_r+0x70c>
    67ae:	0a05                	addi	s4,s4,1
    67b0:	feea0fa3          	sb	a4,-1(s4)
    67b4:	414c07b3          	sub	a5,s8,s4
    67b8:	fe07dbe3          	bgez	a5,67ae <_svfprintf_r+0x80c>
    67bc:	bde5                	j	66b4 <_svfprintf_r+0x712>
    67be:	47f6                	lw	a5,92(sp)
    67c0:	8a62                	mv	s4,s8
    67c2:	03000713          	li	a4,48
    67c6:	9c3e                	add	s8,s8,a5
    67c8:	b7f5                	j	67b4 <_svfprintf_r+0x812>
    67ca:	04600793          	li	a5,70
    67ce:	00fb8b63          	beq	s7,a5,67e4 <_svfprintf_r+0x842>
    67d2:	04500793          	li	a5,69
    67d6:	001b0c13          	addi	s8,s6,1
    67da:	00fb8363          	beq	s7,a5,67e0 <_svfprintf_r+0x83e>
    67de:	8c5a                	mv	s8,s6
    67e0:	4609                	li	a2,2
    67e2:	a019                	j	67e8 <_svfprintf_r+0x846>
    67e4:	8c5a                	mv	s8,s6
    67e6:	460d                	li	a2,3
    67e8:	019c                	addi	a5,sp,192
    67ea:	0cc10813          	addi	a6,sp,204
    67ee:	1978                	addi	a4,sp,188
    67f0:	86e2                	mv	a3,s8
    67f2:	110c                	addi	a1,sp,160
    67f4:	854a                	mv	a0,s2
    67f6:	d172                	sw	t3,160(sp)
    67f8:	c246                	sw	a7,4(sp)
    67fa:	c472                	sw	t3,8(sp)
    67fc:	d36e                	sw	s11,164(sp)
    67fe:	d566                	sw	s9,168(sp)
    6800:	d756                	sw	s5,172(sp)
    6802:	e92fd0ef          	jal	ra,3e94 <_ldtoa_r>
    6806:	04700793          	li	a5,71
    680a:	84aa                	mv	s1,a0
    680c:	4892                	lw	a7,4(sp)
    680e:	4e22                	lw	t3,8(sp)
    6810:	00fb9563          	bne	s7,a5,681a <_svfprintf_r+0x878>
    6814:	00147793          	andi	a5,s0,1
    6818:	c7b5                	beqz	a5,6884 <_svfprintf_r+0x8e2>
    681a:	04600793          	li	a5,70
    681e:	01848a33          	add	s4,s1,s8
    6822:	02fb9f63          	bne	s7,a5,6860 <_svfprintf_r+0x8be>
    6826:	0004c703          	lbu	a4,0(s1)
    682a:	03000793          	li	a5,48
    682e:	02f71763          	bne	a4,a5,685c <_svfprintf_r+0x8ba>
    6832:	090c                	addi	a1,sp,144
    6834:	1108                	addi	a0,sp,160
    6836:	d172                	sw	t3,160(sp)
    6838:	c246                	sw	a7,4(sp)
    683a:	c472                	sw	t3,8(sp)
    683c:	d36e                	sw	s11,164(sp)
    683e:	d566                	sw	s9,168(sp)
    6840:	d756                	sw	s5,172(sp)
    6842:	c902                	sw	zero,144(sp)
    6844:	cb02                	sw	zero,148(sp)
    6846:	cd02                	sw	zero,152(sp)
    6848:	cf02                	sw	zero,156(sp)
    684a:	5f8030ef          	jal	ra,9e42 <__eqtf2>
    684e:	4892                	lw	a7,4(sp)
    6850:	4e22                	lw	t3,8(sp)
    6852:	c509                	beqz	a0,685c <_svfprintf_r+0x8ba>
    6854:	4785                	li	a5,1
    6856:	41878c33          	sub	s8,a5,s8
    685a:	df62                	sw	s8,188(sp)
    685c:	57fa                	lw	a5,188(sp)
    685e:	9a3e                	add	s4,s4,a5
    6860:	090c                	addi	a1,sp,144
    6862:	1108                	addi	a0,sp,160
    6864:	c246                	sw	a7,4(sp)
    6866:	d172                	sw	t3,160(sp)
    6868:	d36e                	sw	s11,164(sp)
    686a:	d566                	sw	s9,168(sp)
    686c:	d756                	sw	s5,172(sp)
    686e:	c902                	sw	zero,144(sp)
    6870:	cb02                	sw	zero,148(sp)
    6872:	cd02                	sw	zero,152(sp)
    6874:	cf02                	sw	zero,156(sp)
    6876:	5cc030ef          	jal	ra,9e42 <__eqtf2>
    687a:	4892                	lw	a7,4(sp)
    687c:	03000713          	li	a4,48
    6880:	e909                	bnez	a0,6892 <_svfprintf_r+0x8f0>
    6882:	c7d2                	sw	s4,204(sp)
    6884:	4a3e                	lw	s4,204(sp)
    6886:	b53d                	j	66b4 <_svfprintf_r+0x712>
    6888:	00178693          	addi	a3,a5,1
    688c:	c7b6                	sw	a3,204(sp)
    688e:	00e78023          	sb	a4,0(a5)
    6892:	47be                	lw	a5,204(sp)
    6894:	ff47eae3          	bltu	a5,s4,6888 <_svfprintf_r+0x8e6>
    6898:	b7f5                	j	6884 <_svfprintf_r+0x8e2>
    689a:	04600713          	li	a4,70
    689e:	e2eb98e3          	bne	s7,a4,66ce <_svfprintf_r+0x72c>
    68a2:	05905763          	blez	s9,68f0 <_svfprintf_r+0x94e>
    68a6:	000b1563          	bnez	s6,68b0 <_svfprintf_r+0x90e>
    68aa:	00147713          	andi	a4,s0,1
    68ae:	cf41                	beqz	a4,6946 <_svfprintf_r+0x9a4>
    68b0:	5662                	lw	a2,56(sp)
    68b2:	00cc8733          	add	a4,s9,a2
    68b6:	9b3a                	add	s6,s6,a4
    68b8:	06600d13          	li	s10,102
    68bc:	a895                	j	6930 <_svfprintf_r+0x98e>
    68be:	8732                	mv	a4,a2
    68c0:	bda1                	j	6718 <_svfprintf_r+0x776>
    68c2:	0705                	addi	a4,a4,1
    68c4:	fff74783          	lbu	a5,-1(a4)
    68c8:	0605                	addi	a2,a2,1
    68ca:	fef60fa3          	sb	a5,-1(a2)
    68ce:	bd85                	j	673e <_svfprintf_r+0x79c>
    68d0:	0c610713          	addi	a4,sp,198
    68d4:	e599                	bnez	a1,68e2 <_svfprintf_r+0x940>
    68d6:	03000793          	li	a5,48
    68da:	0cf10323          	sb	a5,198(sp)
    68de:	0c710713          	addi	a4,sp,199
    68e2:	03068793          	addi	a5,a3,48
    68e6:	00170613          	addi	a2,a4,1
    68ea:	00f70023          	sb	a5,0(a4)
    68ee:	bd91                	j	6742 <_svfprintf_r+0x7a0>
    68f0:	000b1563          	bnez	s6,68fa <_svfprintf_r+0x958>
    68f4:	00147713          	andi	a4,s0,1
    68f8:	cb29                	beqz	a4,694a <_svfprintf_r+0x9a8>
    68fa:	56e2                	lw	a3,56(sp)
    68fc:	00168713          	addi	a4,a3,1
    6900:	bf5d                	j	68b6 <_svfprintf_r+0x914>
    6902:	014ccc63          	blt	s9,s4,691a <_svfprintf_r+0x978>
    6906:	00147713          	andi	a4,s0,1
    690a:	8b66                	mv	s6,s9
    690c:	c701                	beqz	a4,6914 <_svfprintf_r+0x972>
    690e:	5762                	lw	a4,56(sp)
    6910:	00ec8b33          	add	s6,s9,a4
    6914:	06700d13          	li	s10,103
    6918:	a821                	j	6930 <_svfprintf_r+0x98e>
    691a:	57e2                	lw	a5,56(sp)
    691c:	06700d13          	li	s10,103
    6920:	00fa0b33          	add	s6,s4,a5
    6924:	01904663          	bgtz	s9,6930 <_svfprintf_r+0x98e>
    6928:	419b0333          	sub	t1,s6,s9
    692c:	00130b13          	addi	s6,t1,1
    6930:	40047b93          	andi	s7,s0,1024
    6934:	4c01                	li	s8,0
    6936:	e20b8ce3          	beqz	s7,676e <_svfprintf_r+0x7cc>
    693a:	4b81                	li	s7,0
    693c:	e39059e3          	blez	s9,676e <_svfprintf_r+0x7cc>
    6940:	0ff00693          	li	a3,255
    6944:	a015                	j	6968 <_svfprintf_r+0x9c6>
    6946:	8b66                	mv	s6,s9
    6948:	bf85                	j	68b8 <_svfprintf_r+0x916>
    694a:	06600d13          	li	s10,102
    694e:	4b05                	li	s6,1
    6950:	b7c5                	j	6930 <_svfprintf_r+0x98e>
    6952:	03975063          	ble	s9,a4,6972 <_svfprintf_r+0x9d0>
    6956:	55a2                	lw	a1,40(sp)
    6958:	40ec8cb3          	sub	s9,s9,a4
    695c:	0015c703          	lbu	a4,1(a1)
    6960:	c305                	beqz	a4,6980 <_svfprintf_r+0x9de>
    6962:	0585                	addi	a1,a1,1
    6964:	0b85                	addi	s7,s7,1
    6966:	d42e                	sw	a1,40(sp)
    6968:	5622                	lw	a2,40(sp)
    696a:	00064703          	lbu	a4,0(a2)
    696e:	fed712e3          	bne	a4,a3,6952 <_svfprintf_r+0x9b0>
    6972:	4696                	lw	a3,68(sp)
    6974:	018b8733          	add	a4,s7,s8
    6978:	02d70733          	mul	a4,a4,a3
    697c:	9b3a                	add	s6,s6,a4
    697e:	bbc5                	j	676e <_svfprintf_r+0x7cc>
    6980:	0c05                	addi	s8,s8,1
    6982:	b7dd                	j	6968 <_svfprintf_r+0x9c6>
    6984:	000aa783          	lw	a5,0(s5)
    6988:	0a91                	addi	s5,s5,4
    698a:	d656                	sw	s5,44(sp)
    698c:	02047713          	andi	a4,s0,32
    6990:	cb11                	beqz	a4,69a4 <_svfprintf_r+0xa02>
    6992:	55f2                	lw	a1,60(sp)
    6994:	41f5d713          	srai	a4,a1,0x1f
    6998:	c38c                	sw	a1,0(a5)
    699a:	c3d8                	sw	a4,4(a5)
    699c:	5ab2                	lw	s5,44(sp)
    699e:	54c2                	lw	s1,48(sp)
    69a0:	ea8ff06f          	j	6048 <_svfprintf_r+0xa6>
    69a4:	01047713          	andi	a4,s0,16
    69a8:	c701                	beqz	a4,69b0 <_svfprintf_r+0xa0e>
    69aa:	5672                	lw	a2,60(sp)
    69ac:	c390                	sw	a2,0(a5)
    69ae:	b7fd                	j	699c <_svfprintf_r+0x9fa>
    69b0:	04047713          	andi	a4,s0,64
    69b4:	c709                	beqz	a4,69be <_svfprintf_r+0xa1c>
    69b6:	5772                	lw	a4,60(sp)
    69b8:	00e79023          	sh	a4,0(a5)
    69bc:	b7c5                	j	699c <_svfprintf_r+0x9fa>
    69be:	20047413          	andi	s0,s0,512
    69c2:	c409                	beqz	s0,69cc <_svfprintf_r+0xa2a>
    69c4:	5772                	lw	a4,60(sp)
    69c6:	00e78023          	sb	a4,0(a5)
    69ca:	bfc9                	j	699c <_svfprintf_r+0x9fa>
    69cc:	56f2                	lw	a3,60(sp)
    69ce:	c394                	sw	a3,0(a5)
    69d0:	b7f1                	j	699c <_svfprintf_r+0x9fa>
    69d2:	01046413          	ori	s0,s0,16
    69d6:	02047793          	andi	a5,s0,32
    69da:	c3a1                	beqz	a5,6a1a <_svfprintf_r+0xa78>
    69dc:	0a9d                	addi	s5,s5,7
    69de:	ff8afa93          	andi	s5,s5,-8
    69e2:	008a8713          	addi	a4,s5,8
    69e6:	000aac03          	lw	s8,0(s5)
    69ea:	004aac83          	lw	s9,4(s5)
    69ee:	d63a                	sw	a4,44(sp)
    69f0:	bff47413          	andi	s0,s0,-1025
    69f4:	4781                	li	a5,0
    69f6:	0a010ba3          	sb	zero,183(sp)
    69fa:	577d                	li	a4,-1
    69fc:	30eb0463          	beq	s6,a4,6d04 <_svfprintf_r+0xd62>
    6a00:	8722                	mv	a4,s0
    6a02:	019c66b3          	or	a3,s8,s9
    6a06:	f7f47413          	andi	s0,s0,-129
    6a0a:	2e069d63          	bnez	a3,6d04 <_svfprintf_r+0xd62>
    6a0e:	400b0363          	beqz	s6,6e14 <_svfprintf_r+0xe72>
    6a12:	4705                	li	a4,1
    6a14:	2ee79b63          	bne	a5,a4,6d0a <_svfprintf_r+0xd68>
    6a18:	b079                	j	62a6 <_svfprintf_r+0x304>
    6a1a:	004a8793          	addi	a5,s5,4
    6a1e:	d63e                	sw	a5,44(sp)
    6a20:	01047793          	andi	a5,s0,16
    6a24:	c781                	beqz	a5,6a2c <_svfprintf_r+0xa8a>
    6a26:	000aac03          	lw	s8,0(s5)
    6a2a:	a031                	j	6a36 <_svfprintf_r+0xa94>
    6a2c:	04047793          	andi	a5,s0,64
    6a30:	c789                	beqz	a5,6a3a <_svfprintf_r+0xa98>
    6a32:	000adc03          	lhu	s8,0(s5)
    6a36:	4c81                	li	s9,0
    6a38:	bf65                	j	69f0 <_svfprintf_r+0xa4e>
    6a3a:	20047793          	andi	a5,s0,512
    6a3e:	d7e5                	beqz	a5,6a26 <_svfprintf_r+0xa84>
    6a40:	000acc03          	lbu	s8,0(s5)
    6a44:	bfcd                	j	6a36 <_svfprintf_r+0xa94>
    6a46:	77e1                	lui	a5,0xffff8
    6a48:	8307c793          	xori	a5,a5,-2000
    6a4c:	0af11c23          	sh	a5,184(sp)
    6a50:	0000d7b7          	lui	a5,0xd
    6a54:	b0078793          	addi	a5,a5,-1280 # cb00 <zeroes.4384+0x54>
    6a58:	004a8593          	addi	a1,s5,4
    6a5c:	ccbe                	sw	a5,88(sp)
    6a5e:	d62e                	sw	a1,44(sp)
    6a60:	000aac03          	lw	s8,0(s5)
    6a64:	4c81                	li	s9,0
    6a66:	00246413          	ori	s0,s0,2
    6a6a:	4789                	li	a5,2
    6a6c:	07800d13          	li	s10,120
    6a70:	b759                	j	69f6 <_svfprintf_r+0xa54>
    6a72:	004a8613          	addi	a2,s5,4
    6a76:	d632                	sw	a2,44(sp)
    6a78:	0a010ba3          	sb	zero,183(sp)
    6a7c:	57fd                	li	a5,-1
    6a7e:	000aa483          	lw	s1,0(s5)
    6a82:	02fb0063          	beq	s6,a5,6aa2 <_svfprintf_r+0xb00>
    6a86:	865a                	mv	a2,s6
    6a88:	4581                	li	a1,0
    6a8a:	8526                	mv	a0,s1
    6a8c:	c246                	sw	a7,4(sp)
    6a8e:	bd8fe0ef          	jal	ra,4e66 <memchr>
    6a92:	d22a                	sw	a0,36(sp)
    6a94:	4892                	lw	a7,4(sp)
    6a96:	8c0507e3          	beqz	a0,6364 <_svfprintf_r+0x3c2>
    6a9a:	40950b33          	sub	s6,a0,s1
    6a9e:	d202                	sw	zero,36(sp)
    6aa0:	b0d1                	j	6364 <_svfprintf_r+0x3c2>
    6aa2:	8526                	mv	a0,s1
    6aa4:	c246                	sw	a7,4(sp)
    6aa6:	c5cfa0ef          	jal	ra,f02 <strlen>
    6aaa:	4892                	lw	a7,4(sp)
    6aac:	8b2a                	mv	s6,a0
    6aae:	d202                	sw	zero,36(sp)
    6ab0:	4a81                	li	s5,0
    6ab2:	4c01                	li	s8,0
    6ab4:	4b81                	li	s7,0
    6ab6:	4c81                	li	s9,0
    6ab8:	da56                	sw	s5,52(sp)
    6aba:	016ad363          	ble	s6,s5,6ac0 <_svfprintf_r+0xb1e>
    6abe:	da5a                	sw	s6,52(sp)
    6ac0:	0b714703          	lbu	a4,183(sp)
    6ac4:	c701                	beqz	a4,6acc <_svfprintf_r+0xb2a>
    6ac6:	5752                	lw	a4,52(sp)
    6ac8:	0705                	addi	a4,a4,1
    6aca:	da3a                	sw	a4,52(sp)
    6acc:	00247d93          	andi	s11,s0,2
    6ad0:	000d8563          	beqz	s11,6ada <_svfprintf_r+0xb38>
    6ad4:	57d2                	lw	a5,52(sp)
    6ad6:	0789                	addi	a5,a5,2
    6ad8:	da3e                	sw	a5,52(sp)
    6ada:	08447693          	andi	a3,s0,132
    6ade:	c6b6                	sw	a3,76(sp)
    6ae0:	e6b9                	bnez	a3,6b2e <_svfprintf_r+0xb8c>
    6ae2:	4706                	lw	a4,64(sp)
    6ae4:	57d2                	lw	a5,52(sp)
    6ae6:	40f70e33          	sub	t3,a4,a5
    6aea:	05c05263          	blez	t3,6b2e <_svfprintf_r+0xb8c>
    6aee:	6eb5                	lui	t4,0xd
    6af0:	4f41                	li	t5,16
    6af2:	04ce8e93          	addi	t4,t4,76 # d04c <blanks.4368>
    6af6:	4f9d                	li	t6,7
    6af8:	46ee                	lw	a3,216(sp)
    6afa:	01d8a023          	sw	t4,0(a7)
    6afe:	477e                	lw	a4,220(sp)
    6b00:	0685                	addi	a3,a3,1
    6b02:	00888613          	addi	a2,a7,8
    6b06:	33cf4b63          	blt	t5,t3,6e3c <_svfprintf_r+0xe9a>
    6b0a:	9772                	add	a4,a4,t3
    6b0c:	01c8a223          	sw	t3,4(a7)
    6b10:	cfba                	sw	a4,220(sp)
    6b12:	cdb6                	sw	a3,216(sp)
    6b14:	471d                	li	a4,7
    6b16:	88b2                	mv	a7,a2
    6b18:	00d75b63          	ble	a3,a4,6b2e <_svfprintf_r+0xb8c>
    6b1c:	09d0                	addi	a2,sp,212
    6b1e:	85ce                	mv	a1,s3
    6b20:	854a                	mv	a0,s2
    6b22:	00b010ef          	jal	ra,832c <__ssprint_r>
    6b26:	240513e3          	bnez	a0,756c <_svfprintf_r+0x15ca>
    6b2a:	0fc10893          	addi	a7,sp,252
    6b2e:	0b714703          	lbu	a4,183(sp)
    6b32:	cb1d                	beqz	a4,6b68 <_svfprintf_r+0xbc6>
    6b34:	0b710713          	addi	a4,sp,183
    6b38:	00e8a023          	sw	a4,0(a7)
    6b3c:	4705                	li	a4,1
    6b3e:	00e8a223          	sw	a4,4(a7)
    6b42:	477e                	lw	a4,220(sp)
    6b44:	469d                	li	a3,7
    6b46:	0705                	addi	a4,a4,1
    6b48:	cfba                	sw	a4,220(sp)
    6b4a:	476e                	lw	a4,216(sp)
    6b4c:	08a1                	addi	a7,a7,8
    6b4e:	0705                	addi	a4,a4,1
    6b50:	cdba                	sw	a4,216(sp)
    6b52:	00e6db63          	ble	a4,a3,6b68 <_svfprintf_r+0xbc6>
    6b56:	09d0                	addi	a2,sp,212
    6b58:	85ce                	mv	a1,s3
    6b5a:	854a                	mv	a0,s2
    6b5c:	7d0010ef          	jal	ra,832c <__ssprint_r>
    6b60:	200516e3          	bnez	a0,756c <_svfprintf_r+0x15ca>
    6b64:	0fc10893          	addi	a7,sp,252
    6b68:	020d8b63          	beqz	s11,6b9e <_svfprintf_r+0xbfc>
    6b6c:	1938                	addi	a4,sp,184
    6b6e:	00e8a023          	sw	a4,0(a7)
    6b72:	4709                	li	a4,2
    6b74:	00e8a223          	sw	a4,4(a7)
    6b78:	477e                	lw	a4,220(sp)
    6b7a:	469d                	li	a3,7
    6b7c:	0709                	addi	a4,a4,2
    6b7e:	cfba                	sw	a4,220(sp)
    6b80:	476e                	lw	a4,216(sp)
    6b82:	08a1                	addi	a7,a7,8
    6b84:	0705                	addi	a4,a4,1
    6b86:	cdba                	sw	a4,216(sp)
    6b88:	00e6db63          	ble	a4,a3,6b9e <_svfprintf_r+0xbfc>
    6b8c:	09d0                	addi	a2,sp,212
    6b8e:	85ce                	mv	a1,s3
    6b90:	854a                	mv	a0,s2
    6b92:	79a010ef          	jal	ra,832c <__ssprint_r>
    6b96:	1c051be3          	bnez	a0,756c <_svfprintf_r+0x15ca>
    6b9a:	0fc10893          	addi	a7,sp,252
    6b9e:	46b6                	lw	a3,76(sp)
    6ba0:	08000713          	li	a4,128
    6ba4:	04e69863          	bne	a3,a4,6bf4 <_svfprintf_r+0xc52>
    6ba8:	4706                	lw	a4,64(sp)
    6baa:	57d2                	lw	a5,52(sp)
    6bac:	40f70db3          	sub	s11,a4,a5
    6bb0:	05b05263          	blez	s11,6bf4 <_svfprintf_r+0xc52>
    6bb4:	47c1                	li	a5,16
    6bb6:	4e1d                	li	t3,7
    6bb8:	476e                	lw	a4,216(sp)
    6bba:	46fe                	lw	a3,220(sp)
    6bbc:	0705                	addi	a4,a4,1
    6bbe:	00888613          	addi	a2,a7,8
    6bc2:	2bb7c763          	blt	a5,s11,6e70 <_svfprintf_r+0xece>
    6bc6:	67b5                	lui	a5,0xd
    6bc8:	01b8a223          	sw	s11,4(a7)
    6bcc:	05c78793          	addi	a5,a5,92 # d05c <zeroes.4369>
    6bd0:	9db6                	add	s11,s11,a3
    6bd2:	00f8a023          	sw	a5,0(a7)
    6bd6:	cfee                	sw	s11,220(sp)
    6bd8:	cdba                	sw	a4,216(sp)
    6bda:	469d                	li	a3,7
    6bdc:	88b2                	mv	a7,a2
    6bde:	00e6db63          	ble	a4,a3,6bf4 <_svfprintf_r+0xc52>
    6be2:	09d0                	addi	a2,sp,212
    6be4:	85ce                	mv	a1,s3
    6be6:	854a                	mv	a0,s2
    6be8:	744010ef          	jal	ra,832c <__ssprint_r>
    6bec:	180510e3          	bnez	a0,756c <_svfprintf_r+0x15ca>
    6bf0:	0fc10893          	addi	a7,sp,252
    6bf4:	416a8ab3          	sub	s5,s5,s6
    6bf8:	05505263          	blez	s5,6c3c <_svfprintf_r+0xc9a>
    6bfc:	4dc1                	li	s11,16
    6bfe:	481d                	li	a6,7
    6c00:	476e                	lw	a4,216(sp)
    6c02:	46fe                	lw	a3,220(sp)
    6c04:	0705                	addi	a4,a4,1
    6c06:	00888613          	addi	a2,a7,8
    6c0a:	295dce63          	blt	s11,s5,6ea6 <_svfprintf_r+0xf04>
    6c0e:	67b5                	lui	a5,0xd
    6c10:	0158a223          	sw	s5,4(a7)
    6c14:	05c78793          	addi	a5,a5,92 # d05c <zeroes.4369>
    6c18:	9ab6                	add	s5,s5,a3
    6c1a:	00f8a023          	sw	a5,0(a7)
    6c1e:	cfd6                	sw	s5,220(sp)
    6c20:	cdba                	sw	a4,216(sp)
    6c22:	469d                	li	a3,7
    6c24:	88b2                	mv	a7,a2
    6c26:	00e6db63          	ble	a4,a3,6c3c <_svfprintf_r+0xc9a>
    6c2a:	09d0                	addi	a2,sp,212
    6c2c:	85ce                	mv	a1,s3
    6c2e:	854a                	mv	a0,s2
    6c30:	6fc010ef          	jal	ra,832c <__ssprint_r>
    6c34:	12051ce3          	bnez	a0,756c <_svfprintf_r+0x15ca>
    6c38:	0fc10893          	addi	a7,sp,252
    6c3c:	10047713          	andi	a4,s0,256
    6c40:	4dfe                	lw	s11,220(sp)
    6c42:	28071b63          	bnez	a4,6ed8 <_svfprintf_r+0xf36>
    6c46:	01bb0333          	add	t1,s6,s11
    6c4a:	0098a023          	sw	s1,0(a7)
    6c4e:	0168a223          	sw	s6,4(a7)
    6c52:	cf9a                	sw	t1,220(sp)
    6c54:	47ee                	lw	a5,216(sp)
    6c56:	471d                	li	a4,7
    6c58:	0785                	addi	a5,a5,1
    6c5a:	cdbe                	sw	a5,216(sp)
    6c5c:	08a1                	addi	a7,a7,8
    6c5e:	34f75a63          	ble	a5,a4,6fb2 <_svfprintf_r+0x1010>
    6c62:	09d0                	addi	a2,sp,212
    6c64:	85ce                	mv	a1,s3
    6c66:	854a                	mv	a0,s2
    6c68:	6c4010ef          	jal	ra,832c <__ssprint_r>
    6c6c:	100510e3          	bnez	a0,756c <_svfprintf_r+0x15ca>
    6c70:	0fc10893          	addi	a7,sp,252
    6c74:	ae3d                	j	6fb2 <_svfprintf_r+0x1010>
    6c76:	01046413          	ori	s0,s0,16
    6c7a:	02047793          	andi	a5,s0,32
    6c7e:	cf89                	beqz	a5,6c98 <_svfprintf_r+0xcf6>
    6c80:	0a9d                	addi	s5,s5,7
    6c82:	ff8afa93          	andi	s5,s5,-8
    6c86:	008a8693          	addi	a3,s5,8
    6c8a:	000aac03          	lw	s8,0(s5)
    6c8e:	004aac83          	lw	s9,4(s5)
    6c92:	d636                	sw	a3,44(sp)
    6c94:	4785                	li	a5,1
    6c96:	b385                	j	69f6 <_svfprintf_r+0xa54>
    6c98:	004a8713          	addi	a4,s5,4
    6c9c:	d63a                	sw	a4,44(sp)
    6c9e:	01047793          	andi	a5,s0,16
    6ca2:	c781                	beqz	a5,6caa <_svfprintf_r+0xd08>
    6ca4:	000aac03          	lw	s8,0(s5)
    6ca8:	a031                	j	6cb4 <_svfprintf_r+0xd12>
    6caa:	04047793          	andi	a5,s0,64
    6cae:	c789                	beqz	a5,6cb8 <_svfprintf_r+0xd16>
    6cb0:	000adc03          	lhu	s8,0(s5)
    6cb4:	4c81                	li	s9,0
    6cb6:	bff9                	j	6c94 <_svfprintf_r+0xcf2>
    6cb8:	20047793          	andi	a5,s0,512
    6cbc:	d7e5                	beqz	a5,6ca4 <_svfprintf_r+0xd02>
    6cbe:	000acc03          	lbu	s8,0(s5)
    6cc2:	bfcd                	j	6cb4 <_svfprintf_r+0xd12>
    6cc4:	0000d7b7          	lui	a5,0xd
    6cc8:	b0078793          	addi	a5,a5,-1280 # cb00 <zeroes.4384+0x54>
    6ccc:	c18ff06f          	j	60e4 <_svfprintf_r+0x142>
    6cd0:	004a8593          	addi	a1,s5,4
    6cd4:	d62e                	sw	a1,44(sp)
    6cd6:	01047793          	andi	a5,s0,16
    6cda:	c781                	beqz	a5,6ce2 <_svfprintf_r+0xd40>
    6cdc:	000aac03          	lw	s8,0(s5)
    6ce0:	a031                	j	6cec <_svfprintf_r+0xd4a>
    6ce2:	04047793          	andi	a5,s0,64
    6ce6:	c791                	beqz	a5,6cf2 <_svfprintf_r+0xd50>
    6ce8:	000adc03          	lhu	s8,0(s5)
    6cec:	4c81                	li	s9,0
    6cee:	c14ff06f          	j	6102 <_svfprintf_r+0x160>
    6cf2:	20047793          	andi	a5,s0,512
    6cf6:	d3fd                	beqz	a5,6cdc <_svfprintf_r+0xd3a>
    6cf8:	000acc03          	lbu	s8,0(s5)
    6cfc:	bfc5                	j	6cec <_svfprintf_r+0xd4a>
    6cfe:	8722                	mv	a4,s0
    6d00:	4785                	li	a5,1
    6d02:	b301                	j	6a02 <_svfprintf_r+0xa60>
    6d04:	4705                	li	a4,1
    6d06:	d8e78b63          	beq	a5,a4,629c <_svfprintf_r+0x2fa>
    6d0a:	4709                	li	a4,2
    6d0c:	0ce78e63          	beq	a5,a4,6de8 <_svfprintf_r+0xe46>
    6d10:	131c                	addi	a5,sp,416
    6d12:	01dc9693          	slli	a3,s9,0x1d
    6d16:	007c7713          	andi	a4,s8,7
    6d1a:	003c5c13          	srli	s8,s8,0x3
    6d1e:	03070713          	addi	a4,a4,48
    6d22:	0186ec33          	or	s8,a3,s8
    6d26:	003cdc93          	srli	s9,s9,0x3
    6d2a:	fee78fa3          	sb	a4,-1(a5)
    6d2e:	019c66b3          	or	a3,s8,s9
    6d32:	fff78493          	addi	s1,a5,-1
    6d36:	e68d                	bnez	a3,6d60 <_svfprintf_r+0xdbe>
    6d38:	00147693          	andi	a3,s0,1
    6d3c:	ca89                	beqz	a3,6d4e <_svfprintf_r+0xdac>
    6d3e:	03000693          	li	a3,48
    6d42:	00d70663          	beq	a4,a3,6d4e <_svfprintf_r+0xdac>
    6d46:	fed48fa3          	sb	a3,-1(s1)
    6d4a:	ffe78493          	addi	s1,a5,-2
    6d4e:	1314                	addi	a3,sp,416
    6d50:	8ada                	mv	s5,s6
    6d52:	d202                	sw	zero,36(sp)
    6d54:	40968b33          	sub	s6,a3,s1
    6d58:	4c01                	li	s8,0
    6d5a:	4b81                	li	s7,0
    6d5c:	4c81                	li	s9,0
    6d5e:	bba9                	j	6ab8 <_svfprintf_r+0xb16>
    6d60:	87a6                	mv	a5,s1
    6d62:	bf45                	j	6d12 <_svfprintf_r+0xd70>
    6d64:	4a01                	li	s4,0
    6d66:	1a010d93          	addi	s11,sp,416
    6d6a:	40047a93          	andi	s5,s0,1024
    6d6e:	4ba5                	li	s7,9
    6d70:	4629                	li	a2,10
    6d72:	4681                	li	a3,0
    6d74:	8562                	mv	a0,s8
    6d76:	85e6                	mv	a1,s9
    6d78:	c246                	sw	a7,4(sp)
    6d7a:	3e0020ef          	jal	ra,915a <__umoddi3>
    6d7e:	03050513          	addi	a0,a0,48
    6d82:	fead8fa3          	sb	a0,-1(s11)
    6d86:	fffd8493          	addi	s1,s11,-1
    6d8a:	0a05                	addi	s4,s4,1
    6d8c:	4892                	lw	a7,4(sp)
    6d8e:	020a8f63          	beqz	s5,6dcc <_svfprintf_r+0xe2a>
    6d92:	5622                	lw	a2,40(sp)
    6d94:	00064783          	lbu	a5,0(a2)
    6d98:	02fa1a63          	bne	s4,a5,6dcc <_svfprintf_r+0xe2a>
    6d9c:	0ff00693          	li	a3,255
    6da0:	02da0663          	beq	s4,a3,6dcc <_svfprintf_r+0xe2a>
    6da4:	000c9463          	bnez	s9,6dac <_svfprintf_r+0xe0a>
    6da8:	038bf263          	bleu	s8,s7,6dcc <_svfprintf_r+0xe2a>
    6dac:	4716                	lw	a4,68(sp)
    6dae:	45c6                	lw	a1,80(sp)
    6db0:	8c99                	sub	s1,s1,a4
    6db2:	863a                	mv	a2,a4
    6db4:	8526                	mv	a0,s1
    6db6:	c246                	sw	a7,4(sp)
    6db8:	9baff0ef          	jal	ra,5f72 <strncpy>
    6dbc:	55a2                	lw	a1,40(sp)
    6dbe:	4a01                	li	s4,0
    6dc0:	0015c783          	lbu	a5,1(a1)
    6dc4:	4892                	lw	a7,4(sp)
    6dc6:	c399                	beqz	a5,6dcc <_svfprintf_r+0xe2a>
    6dc8:	0585                	addi	a1,a1,1
    6dca:	d42e                	sw	a1,40(sp)
    6dcc:	8562                	mv	a0,s8
    6dce:	85e6                	mv	a1,s9
    6dd0:	4629                	li	a2,10
    6dd2:	4681                	li	a3,0
    6dd4:	c246                	sw	a7,4(sp)
    6dd6:	02a020ef          	jal	ra,8e00 <__udivdi3>
    6dda:	8cae                	mv	s9,a1
    6ddc:	8dc9                	or	a1,a1,a0
    6dde:	8c2a                	mv	s8,a0
    6de0:	4892                	lw	a7,4(sp)
    6de2:	d5b5                	beqz	a1,6d4e <_svfprintf_r+0xdac>
    6de4:	8da6                	mv	s11,s1
    6de6:	b769                	j	6d70 <_svfprintf_r+0xdce>
    6de8:	1304                	addi	s1,sp,416
    6dea:	4666                	lw	a2,88(sp)
    6dec:	00fc7793          	andi	a5,s8,15
    6df0:	97b2                	add	a5,a5,a2
    6df2:	0007c783          	lbu	a5,0(a5)
    6df6:	14fd                	addi	s1,s1,-1
    6df8:	00f48023          	sb	a5,0(s1)
    6dfc:	004c5c13          	srli	s8,s8,0x4
    6e00:	01cc9793          	slli	a5,s9,0x1c
    6e04:	0187ec33          	or	s8,a5,s8
    6e08:	004cdc93          	srli	s9,s9,0x4
    6e0c:	019c67b3          	or	a5,s8,s9
    6e10:	ffe9                	bnez	a5,6dea <_svfprintf_r+0xe48>
    6e12:	bf35                	j	6d4e <_svfprintf_r+0xdac>
    6e14:	1304                	addi	s1,sp,416
    6e16:	ff85                	bnez	a5,6d4e <_svfprintf_r+0xdac>
    6e18:	8b05                	andi	a4,a4,1
    6e1a:	db15                	beqz	a4,6d4e <_svfprintf_r+0xdac>
    6e1c:	03000793          	li	a5,48
    6e20:	18f10fa3          	sb	a5,415(sp)
    6e24:	c8aff06f          	j	62ae <_svfprintf_r+0x30c>
    6e28:	780d0363          	beqz	s10,75ae <_svfprintf_r+0x160c>
    6e2c:	87ea                	mv	a5,s10
    6e2e:	12f10e23          	sb	a5,316(sp)
    6e32:	0a010ba3          	sb	zero,183(sp)
    6e36:	d656                	sw	s5,44(sp)
    6e38:	c12ff06f          	j	624a <_svfprintf_r+0x2a8>
    6e3c:	0741                	addi	a4,a4,16
    6e3e:	01e8a223          	sw	t5,4(a7)
    6e42:	cfba                	sw	a4,220(sp)
    6e44:	cdb6                	sw	a3,216(sp)
    6e46:	02dfd263          	ble	a3,t6,6e6a <_svfprintf_r+0xec8>
    6e4a:	09d0                	addi	a2,sp,212
    6e4c:	85ce                	mv	a1,s3
    6e4e:	854a                	mv	a0,s2
    6e50:	c472                	sw	t3,8(sp)
    6e52:	c676                	sw	t4,12(sp)
    6e54:	c87a                	sw	t5,16(sp)
    6e56:	ca7e                	sw	t6,20(sp)
    6e58:	4d4010ef          	jal	ra,832c <__ssprint_r>
    6e5c:	4e22                	lw	t3,8(sp)
    6e5e:	4eb2                	lw	t4,12(sp)
    6e60:	4f42                	lw	t5,16(sp)
    6e62:	4fd2                	lw	t6,20(sp)
    6e64:	70051463          	bnez	a0,756c <_svfprintf_r+0x15ca>
    6e68:	19f0                	addi	a2,sp,252
    6e6a:	1e41                	addi	t3,t3,-16
    6e6c:	88b2                	mv	a7,a2
    6e6e:	b169                	j	6af8 <_svfprintf_r+0xb56>
    6e70:	65b5                	lui	a1,0xd
    6e72:	05c58593          	addi	a1,a1,92 # d05c <zeroes.4369>
    6e76:	06c1                	addi	a3,a3,16
    6e78:	00b8a023          	sw	a1,0(a7)
    6e7c:	00f8a223          	sw	a5,4(a7)
    6e80:	cfb6                	sw	a3,220(sp)
    6e82:	cdba                	sw	a4,216(sp)
    6e84:	00ee5e63          	ble	a4,t3,6ea0 <_svfprintf_r+0xefe>
    6e88:	09d0                	addi	a2,sp,212
    6e8a:	85ce                	mv	a1,s3
    6e8c:	854a                	mv	a0,s2
    6e8e:	d03e                	sw	a5,32(sp)
    6e90:	c472                	sw	t3,8(sp)
    6e92:	49a010ef          	jal	ra,832c <__ssprint_r>
    6e96:	5782                	lw	a5,32(sp)
    6e98:	4e22                	lw	t3,8(sp)
    6e9a:	6c051963          	bnez	a0,756c <_svfprintf_r+0x15ca>
    6e9e:	19f0                	addi	a2,sp,252
    6ea0:	1dc1                	addi	s11,s11,-16
    6ea2:	88b2                	mv	a7,a2
    6ea4:	bb11                	j	6bb8 <_svfprintf_r+0xc16>
    6ea6:	65b5                	lui	a1,0xd
    6ea8:	05c58593          	addi	a1,a1,92 # d05c <zeroes.4369>
    6eac:	06c1                	addi	a3,a3,16
    6eae:	00b8a023          	sw	a1,0(a7)
    6eb2:	01b8a223          	sw	s11,4(a7)
    6eb6:	cfb6                	sw	a3,220(sp)
    6eb8:	cdba                	sw	a4,216(sp)
    6eba:	00e85c63          	ble	a4,a6,6ed2 <_svfprintf_r+0xf30>
    6ebe:	09d0                	addi	a2,sp,212
    6ec0:	85ce                	mv	a1,s3
    6ec2:	854a                	mv	a0,s2
    6ec4:	cc42                	sw	a6,24(sp)
    6ec6:	466010ef          	jal	ra,832c <__ssprint_r>
    6eca:	4862                	lw	a6,24(sp)
    6ecc:	6a051063          	bnez	a0,756c <_svfprintf_r+0x15ca>
    6ed0:	19f0                	addi	a2,sp,252
    6ed2:	1ac1                	addi	s5,s5,-16
    6ed4:	88b2                	mv	a7,a2
    6ed6:	b32d                	j	6c00 <_svfprintf_r+0xc5e>
    6ed8:	06500713          	li	a4,101
    6edc:	4fa75b63          	ble	s10,a4,73d2 <_svfprintf_r+0x1430>
    6ee0:	570e                	lw	a4,224(sp)
    6ee2:	090c                	addi	a1,sp,144
    6ee4:	d13a                	sw	a4,160(sp)
    6ee6:	571e                	lw	a4,228(sp)
    6ee8:	1108                	addi	a0,sp,160
    6eea:	d33a                	sw	a4,164(sp)
    6eec:	572e                	lw	a4,232(sp)
    6eee:	c246                	sw	a7,4(sp)
    6ef0:	d53a                	sw	a4,168(sp)
    6ef2:	573e                	lw	a4,236(sp)
    6ef4:	c902                	sw	zero,144(sp)
    6ef6:	d73a                	sw	a4,172(sp)
    6ef8:	cb02                	sw	zero,148(sp)
    6efa:	cd02                	sw	zero,152(sp)
    6efc:	cf02                	sw	zero,156(sp)
    6efe:	745020ef          	jal	ra,9e42 <__eqtf2>
    6f02:	4892                	lw	a7,4(sp)
    6f04:	10051963          	bnez	a0,7016 <_svfprintf_r+0x1074>
    6f08:	0000d7b7          	lui	a5,0xd
    6f0c:	b2878793          	addi	a5,a5,-1240 # cb28 <zeroes.4384+0x7c>
    6f10:	00f8a023          	sw	a5,0(a7)
    6f14:	4785                	li	a5,1
    6f16:	00f8a223          	sw	a5,4(a7)
    6f1a:	47ee                	lw	a5,216(sp)
    6f1c:	0d85                	addi	s11,s11,1
    6f1e:	0785                	addi	a5,a5,1
    6f20:	cfee                	sw	s11,220(sp)
    6f22:	cdbe                	sw	a5,216(sp)
    6f24:	471d                	li	a4,7
    6f26:	08a1                	addi	a7,a7,8
    6f28:	00f75b63          	ble	a5,a4,6f3e <_svfprintf_r+0xf9c>
    6f2c:	09d0                	addi	a2,sp,212
    6f2e:	85ce                	mv	a1,s3
    6f30:	854a                	mv	a0,s2
    6f32:	3fa010ef          	jal	ra,832c <__ssprint_r>
    6f36:	62051b63          	bnez	a0,756c <_svfprintf_r+0x15ca>
    6f3a:	0fc10893          	addi	a7,sp,252
    6f3e:	57fa                	lw	a5,188(sp)
    6f40:	0147c563          	blt	a5,s4,6f4a <_svfprintf_r+0xfa8>
    6f44:	00147793          	andi	a5,s0,1
    6f48:	c7ad                	beqz	a5,6fb2 <_svfprintf_r+0x1010>
    6f4a:	5662                	lw	a2,56(sp)
    6f4c:	47fe                	lw	a5,220(sp)
    6f4e:	45a6                	lw	a1,72(sp)
    6f50:	97b2                	add	a5,a5,a2
    6f52:	cfbe                	sw	a5,220(sp)
    6f54:	47ee                	lw	a5,216(sp)
    6f56:	00b8a023          	sw	a1,0(a7)
    6f5a:	0785                	addi	a5,a5,1
    6f5c:	00c8a223          	sw	a2,4(a7)
    6f60:	cdbe                	sw	a5,216(sp)
    6f62:	471d                	li	a4,7
    6f64:	08a1                	addi	a7,a7,8
    6f66:	00f75b63          	ble	a5,a4,6f7c <_svfprintf_r+0xfda>
    6f6a:	09d0                	addi	a2,sp,212
    6f6c:	85ce                	mv	a1,s3
    6f6e:	854a                	mv	a0,s2
    6f70:	3bc010ef          	jal	ra,832c <__ssprint_r>
    6f74:	5e051c63          	bnez	a0,756c <_svfprintf_r+0x15ca>
    6f78:	0fc10893          	addi	a7,sp,252
    6f7c:	fffa0493          	addi	s1,s4,-1
    6f80:	02905963          	blez	s1,6fb2 <_svfprintf_r+0x1010>
    6f84:	4ac1                	li	s5,16
    6f86:	4b9d                	li	s7,7
    6f88:	47ee                	lw	a5,216(sp)
    6f8a:	477e                	lw	a4,220(sp)
    6f8c:	0785                	addi	a5,a5,1
    6f8e:	00888693          	addi	a3,a7,8
    6f92:	049acb63          	blt	s5,s1,6fe8 <_svfprintf_r+0x1046>
    6f96:	6635                	lui	a2,0xd
    6f98:	05c60613          	addi	a2,a2,92 # d05c <zeroes.4369>
    6f9c:	0098a223          	sw	s1,4(a7)
    6fa0:	00c8a023          	sw	a2,0(a7)
    6fa4:	94ba                	add	s1,s1,a4
    6fa6:	cfa6                	sw	s1,220(sp)
    6fa8:	cdbe                	sw	a5,216(sp)
    6faa:	471d                	li	a4,7
    6fac:	88b6                	mv	a7,a3
    6fae:	caf74ae3          	blt	a4,a5,6c62 <_svfprintf_r+0xcc0>
    6fb2:	8811                	andi	s0,s0,4
    6fb4:	56041b63          	bnez	s0,752a <_svfprintf_r+0x1588>
    6fb8:	4d06                	lw	s10,64(sp)
    6fba:	5752                	lw	a4,52(sp)
    6fbc:	00ed5363          	ble	a4,s10,6fc2 <_svfprintf_r+0x1020>
    6fc0:	8d3a                	mv	s10,a4
    6fc2:	57f2                	lw	a5,60(sp)
    6fc4:	97ea                	add	a5,a5,s10
    6fc6:	de3e                	sw	a5,60(sp)
    6fc8:	47fe                	lw	a5,220(sp)
    6fca:	cb81                	beqz	a5,6fda <_svfprintf_r+0x1038>
    6fcc:	09d0                	addi	a2,sp,212
    6fce:	85ce                	mv	a1,s3
    6fd0:	854a                	mv	a0,s2
    6fd2:	35a010ef          	jal	ra,832c <__ssprint_r>
    6fd6:	58051b63          	bnez	a0,756c <_svfprintf_r+0x15ca>
    6fda:	5712                	lw	a4,36(sp)
    6fdc:	cd82                	sw	zero,216(sp)
    6fde:	5c071363          	bnez	a4,75a4 <_svfprintf_r+0x1602>
    6fe2:	0fc10893          	addi	a7,sp,252
    6fe6:	ba5d                	j	699c <_svfprintf_r+0x9fa>
    6fe8:	65b5                	lui	a1,0xd
    6fea:	05c58593          	addi	a1,a1,92 # d05c <zeroes.4369>
    6fee:	0741                	addi	a4,a4,16
    6ff0:	00b8a023          	sw	a1,0(a7)
    6ff4:	0158a223          	sw	s5,4(a7)
    6ff8:	cfba                	sw	a4,220(sp)
    6ffa:	cdbe                	sw	a5,216(sp)
    6ffc:	00fbda63          	ble	a5,s7,7010 <_svfprintf_r+0x106e>
    7000:	09d0                	addi	a2,sp,212
    7002:	85ce                	mv	a1,s3
    7004:	854a                	mv	a0,s2
    7006:	326010ef          	jal	ra,832c <__ssprint_r>
    700a:	56051163          	bnez	a0,756c <_svfprintf_r+0x15ca>
    700e:	19f4                	addi	a3,sp,252
    7010:	14c1                	addi	s1,s1,-16
    7012:	88b6                	mv	a7,a3
    7014:	bf95                	j	6f88 <_svfprintf_r+0xfe6>
    7016:	577a                	lw	a4,188(sp)
    7018:	0ee04f63          	bgtz	a4,7116 <_svfprintf_r+0x1174>
    701c:	0000d7b7          	lui	a5,0xd
    7020:	b2878793          	addi	a5,a5,-1240 # cb28 <zeroes.4384+0x7c>
    7024:	00f8a023          	sw	a5,0(a7)
    7028:	4785                	li	a5,1
    702a:	00f8a223          	sw	a5,4(a7)
    702e:	47ee                	lw	a5,216(sp)
    7030:	0d85                	addi	s11,s11,1
    7032:	0785                	addi	a5,a5,1
    7034:	cfee                	sw	s11,220(sp)
    7036:	cdbe                	sw	a5,216(sp)
    7038:	471d                	li	a4,7
    703a:	08a1                	addi	a7,a7,8
    703c:	00f75b63          	ble	a5,a4,7052 <_svfprintf_r+0x10b0>
    7040:	09d0                	addi	a2,sp,212
    7042:	85ce                	mv	a1,s3
    7044:	854a                	mv	a0,s2
    7046:	2e6010ef          	jal	ra,832c <__ssprint_r>
    704a:	52051163          	bnez	a0,756c <_svfprintf_r+0x15ca>
    704e:	0fc10893          	addi	a7,sp,252
    7052:	57fa                	lw	a5,188(sp)
    7054:	e791                	bnez	a5,7060 <_svfprintf_r+0x10be>
    7056:	000a1563          	bnez	s4,7060 <_svfprintf_r+0x10be>
    705a:	00147793          	andi	a5,s0,1
    705e:	dbb1                	beqz	a5,6fb2 <_svfprintf_r+0x1010>
    7060:	5762                	lw	a4,56(sp)
    7062:	47fe                	lw	a5,220(sp)
    7064:	46a6                	lw	a3,72(sp)
    7066:	97ba                	add	a5,a5,a4
    7068:	cfbe                	sw	a5,220(sp)
    706a:	47ee                	lw	a5,216(sp)
    706c:	00e8a223          	sw	a4,4(a7)
    7070:	0785                	addi	a5,a5,1
    7072:	00d8a023          	sw	a3,0(a7)
    7076:	cdbe                	sw	a5,216(sp)
    7078:	471d                	li	a4,7
    707a:	08a1                	addi	a7,a7,8
    707c:	00f75b63          	ble	a5,a4,7092 <_svfprintf_r+0x10f0>
    7080:	09d0                	addi	a2,sp,212
    7082:	85ce                	mv	a1,s3
    7084:	854a                	mv	a0,s2
    7086:	2a6010ef          	jal	ra,832c <__ssprint_r>
    708a:	4e051163          	bnez	a0,756c <_svfprintf_r+0x15ca>
    708e:	0fc10893          	addi	a7,sp,252
    7092:	5afa                	lw	s5,188(sp)
    7094:	040ad263          	bgez	s5,70d8 <_svfprintf_r+0x1136>
    7098:	41500ab3          	neg	s5,s5
    709c:	8746                	mv	a4,a7
    709e:	4bc1                	li	s7,16
    70a0:	4c1d                	li	s8,7
    70a2:	47ee                	lw	a5,216(sp)
    70a4:	46fe                	lw	a3,220(sp)
    70a6:	0785                	addi	a5,a5,1
    70a8:	08a1                	addi	a7,a7,8
    70aa:	035bcf63          	blt	s7,s5,70e8 <_svfprintf_r+0x1146>
    70ae:	6635                	lui	a2,0xd
    70b0:	01572223          	sw	s5,4(a4)
    70b4:	05c60613          	addi	a2,a2,92 # d05c <zeroes.4369>
    70b8:	9ab6                	add	s5,s5,a3
    70ba:	c310                	sw	a2,0(a4)
    70bc:	cfd6                	sw	s5,220(sp)
    70be:	cdbe                	sw	a5,216(sp)
    70c0:	471d                	li	a4,7
    70c2:	00f75b63          	ble	a5,a4,70d8 <_svfprintf_r+0x1136>
    70c6:	09d0                	addi	a2,sp,212
    70c8:	85ce                	mv	a1,s3
    70ca:	854a                	mv	a0,s2
    70cc:	260010ef          	jal	ra,832c <__ssprint_r>
    70d0:	48051e63          	bnez	a0,756c <_svfprintf_r+0x15ca>
    70d4:	0fc10893          	addi	a7,sp,252
    70d8:	47fe                	lw	a5,220(sp)
    70da:	0098a023          	sw	s1,0(a7)
    70de:	97d2                	add	a5,a5,s4
    70e0:	0148a223          	sw	s4,4(a7)
    70e4:	cfbe                	sw	a5,220(sp)
    70e6:	b6bd                	j	6c54 <_svfprintf_r+0xcb2>
    70e8:	65b5                	lui	a1,0xd
    70ea:	05c58593          	addi	a1,a1,92 # d05c <zeroes.4369>
    70ee:	06c1                	addi	a3,a3,16
    70f0:	c30c                	sw	a1,0(a4)
    70f2:	01772223          	sw	s7,4(a4)
    70f6:	cfb6                	sw	a3,220(sp)
    70f8:	cdbe                	sw	a5,216(sp)
    70fa:	00fc5b63          	ble	a5,s8,7110 <_svfprintf_r+0x116e>
    70fe:	09d0                	addi	a2,sp,212
    7100:	85ce                	mv	a1,s3
    7102:	854a                	mv	a0,s2
    7104:	228010ef          	jal	ra,832c <__ssprint_r>
    7108:	46051263          	bnez	a0,756c <_svfprintf_r+0x15ca>
    710c:	0fc10893          	addi	a7,sp,252
    7110:	1ac1                	addi	s5,s5,-16
    7112:	8746                	mv	a4,a7
    7114:	b779                	j	70a2 <_svfprintf_r+0x1100>
    7116:	8ae6                	mv	s5,s9
    7118:	019a5363          	ble	s9,s4,711e <_svfprintf_r+0x117c>
    711c:	8ad2                	mv	s5,s4
    711e:	03505863          	blez	s5,714e <_svfprintf_r+0x11ac>
    7122:	476e                	lw	a4,216(sp)
    7124:	9dd6                	add	s11,s11,s5
    7126:	0705                	addi	a4,a4,1
    7128:	0098a023          	sw	s1,0(a7)
    712c:	0158a223          	sw	s5,4(a7)
    7130:	cfee                	sw	s11,220(sp)
    7132:	cdba                	sw	a4,216(sp)
    7134:	469d                	li	a3,7
    7136:	08a1                	addi	a7,a7,8
    7138:	00e6db63          	ble	a4,a3,714e <_svfprintf_r+0x11ac>
    713c:	09d0                	addi	a2,sp,212
    713e:	85ce                	mv	a1,s3
    7140:	854a                	mv	a0,s2
    7142:	1ea010ef          	jal	ra,832c <__ssprint_r>
    7146:	42051363          	bnez	a0,756c <_svfprintf_r+0x15ca>
    714a:	0fc10893          	addi	a7,sp,252
    714e:	000ad363          	bgez	s5,7154 <_svfprintf_r+0x11b2>
    7152:	4a81                	li	s5,0
    7154:	415c8ab3          	sub	s5,s9,s5
    7158:	05505263          	blez	s5,719c <_svfprintf_r+0x11fa>
    715c:	4d41                	li	s10,16
    715e:	4d9d                	li	s11,7
    7160:	476e                	lw	a4,216(sp)
    7162:	46fe                	lw	a3,220(sp)
    7164:	0705                	addi	a4,a4,1
    7166:	00888613          	addi	a2,a7,8
    716a:	135d4563          	blt	s10,s5,7294 <_svfprintf_r+0x12f2>
    716e:	65b5                	lui	a1,0xd
    7170:	0158a223          	sw	s5,4(a7)
    7174:	05c58593          	addi	a1,a1,92 # d05c <zeroes.4369>
    7178:	9ab6                	add	s5,s5,a3
    717a:	00b8a023          	sw	a1,0(a7)
    717e:	cfd6                	sw	s5,220(sp)
    7180:	cdba                	sw	a4,216(sp)
    7182:	469d                	li	a3,7
    7184:	88b2                	mv	a7,a2
    7186:	00e6db63          	ble	a4,a3,719c <_svfprintf_r+0x11fa>
    718a:	09d0                	addi	a2,sp,212
    718c:	85ce                	mv	a1,s3
    718e:	854a                	mv	a0,s2
    7190:	19c010ef          	jal	ra,832c <__ssprint_r>
    7194:	3c051c63          	bnez	a0,756c <_svfprintf_r+0x15ca>
    7198:	0fc10893          	addi	a7,sp,252
    719c:	40047793          	andi	a5,s0,1024
    71a0:	01948ab3          	add	s5,s1,s9
    71a4:	cf89                	beqz	a5,71be <_svfprintf_r+0x121c>
    71a6:	4d1d                	li	s10,7
    71a8:	01448db3          	add	s11,s1,s4
    71ac:	100b9b63          	bnez	s7,72c2 <_svfprintf_r+0x1320>
    71b0:	100c1b63          	bnez	s8,72c6 <_svfprintf_r+0x1324>
    71b4:	014487b3          	add	a5,s1,s4
    71b8:	0157f363          	bleu	s5,a5,71be <_svfprintf_r+0x121c>
    71bc:	8abe                	mv	s5,a5
    71be:	57fa                	lw	a5,188(sp)
    71c0:	0147c563          	blt	a5,s4,71ca <_svfprintf_r+0x1228>
    71c4:	00147793          	andi	a5,s0,1
    71c8:	cb95                	beqz	a5,71fc <_svfprintf_r+0x125a>
    71ca:	5762                	lw	a4,56(sp)
    71cc:	47fe                	lw	a5,220(sp)
    71ce:	46a6                	lw	a3,72(sp)
    71d0:	97ba                	add	a5,a5,a4
    71d2:	cfbe                	sw	a5,220(sp)
    71d4:	47ee                	lw	a5,216(sp)
    71d6:	00e8a223          	sw	a4,4(a7)
    71da:	0785                	addi	a5,a5,1
    71dc:	00d8a023          	sw	a3,0(a7)
    71e0:	cdbe                	sw	a5,216(sp)
    71e2:	471d                	li	a4,7
    71e4:	08a1                	addi	a7,a7,8
    71e6:	00f75b63          	ble	a5,a4,71fc <_svfprintf_r+0x125a>
    71ea:	09d0                	addi	a2,sp,212
    71ec:	85ce                	mv	a1,s3
    71ee:	854a                	mv	a0,s2
    71f0:	13c010ef          	jal	ra,832c <__ssprint_r>
    71f4:	36051c63          	bnez	a0,756c <_svfprintf_r+0x15ca>
    71f8:	0fc10893          	addi	a7,sp,252
    71fc:	94d2                	add	s1,s1,s4
    71fe:	415487b3          	sub	a5,s1,s5
    7202:	54fa                	lw	s1,188(sp)
    7204:	409a04b3          	sub	s1,s4,s1
    7208:	0097d363          	ble	s1,a5,720e <_svfprintf_r+0x126c>
    720c:	84be                	mv	s1,a5
    720e:	02905963          	blez	s1,7240 <_svfprintf_r+0x129e>
    7212:	47fe                	lw	a5,220(sp)
    7214:	0158a023          	sw	s5,0(a7)
    7218:	97a6                	add	a5,a5,s1
    721a:	cfbe                	sw	a5,220(sp)
    721c:	47ee                	lw	a5,216(sp)
    721e:	0098a223          	sw	s1,4(a7)
    7222:	0785                	addi	a5,a5,1
    7224:	cdbe                	sw	a5,216(sp)
    7226:	471d                	li	a4,7
    7228:	08a1                	addi	a7,a7,8
    722a:	00f75b63          	ble	a5,a4,7240 <_svfprintf_r+0x129e>
    722e:	09d0                	addi	a2,sp,212
    7230:	85ce                	mv	a1,s3
    7232:	854a                	mv	a0,s2
    7234:	0f8010ef          	jal	ra,832c <__ssprint_r>
    7238:	32051a63          	bnez	a0,756c <_svfprintf_r+0x15ca>
    723c:	0fc10893          	addi	a7,sp,252
    7240:	87a6                	mv	a5,s1
    7242:	0004d363          	bgez	s1,7248 <_svfprintf_r+0x12a6>
    7246:	4781                	li	a5,0
    7248:	54fa                	lw	s1,188(sp)
    724a:	409a04b3          	sub	s1,s4,s1
    724e:	8c9d                	sub	s1,s1,a5
    7250:	d69051e3          	blez	s1,6fb2 <_svfprintf_r+0x1010>
    7254:	4ac1                	li	s5,16
    7256:	4b9d                	li	s7,7
    7258:	47ee                	lw	a5,216(sp)
    725a:	477e                	lw	a4,220(sp)
    725c:	0785                	addi	a5,a5,1
    725e:	00888693          	addi	a3,a7,8
    7262:	d29adae3          	ble	s1,s5,6f96 <_svfprintf_r+0xff4>
    7266:	65b5                	lui	a1,0xd
    7268:	05c58593          	addi	a1,a1,92 # d05c <zeroes.4369>
    726c:	0741                	addi	a4,a4,16
    726e:	00b8a023          	sw	a1,0(a7)
    7272:	0158a223          	sw	s5,4(a7)
    7276:	cfba                	sw	a4,220(sp)
    7278:	cdbe                	sw	a5,216(sp)
    727a:	00fbda63          	ble	a5,s7,728e <_svfprintf_r+0x12ec>
    727e:	09d0                	addi	a2,sp,212
    7280:	85ce                	mv	a1,s3
    7282:	854a                	mv	a0,s2
    7284:	0a8010ef          	jal	ra,832c <__ssprint_r>
    7288:	2e051263          	bnez	a0,756c <_svfprintf_r+0x15ca>
    728c:	19f4                	addi	a3,sp,252
    728e:	14c1                	addi	s1,s1,-16
    7290:	88b6                	mv	a7,a3
    7292:	b7d9                	j	7258 <_svfprintf_r+0x12b6>
    7294:	67b5                	lui	a5,0xd
    7296:	05c78793          	addi	a5,a5,92 # d05c <zeroes.4369>
    729a:	06c1                	addi	a3,a3,16
    729c:	00f8a023          	sw	a5,0(a7)
    72a0:	01a8a223          	sw	s10,4(a7)
    72a4:	cfb6                	sw	a3,220(sp)
    72a6:	cdba                	sw	a4,216(sp)
    72a8:	00edda63          	ble	a4,s11,72bc <_svfprintf_r+0x131a>
    72ac:	09d0                	addi	a2,sp,212
    72ae:	85ce                	mv	a1,s3
    72b0:	854a                	mv	a0,s2
    72b2:	07a010ef          	jal	ra,832c <__ssprint_r>
    72b6:	2a051b63          	bnez	a0,756c <_svfprintf_r+0x15ca>
    72ba:	19f0                	addi	a2,sp,252
    72bc:	1ac1                	addi	s5,s5,-16
    72be:	88b2                	mv	a7,a2
    72c0:	b545                	j	7160 <_svfprintf_r+0x11be>
    72c2:	080c0c63          	beqz	s8,735a <_svfprintf_r+0x13b8>
    72c6:	1c7d                	addi	s8,s8,-1
    72c8:	4716                	lw	a4,68(sp)
    72ca:	47fe                	lw	a5,220(sp)
    72cc:	46c6                	lw	a3,80(sp)
    72ce:	97ba                	add	a5,a5,a4
    72d0:	cfbe                	sw	a5,220(sp)
    72d2:	47ee                	lw	a5,216(sp)
    72d4:	00d8a023          	sw	a3,0(a7)
    72d8:	0785                	addi	a5,a5,1
    72da:	00e8a223          	sw	a4,4(a7)
    72de:	cdbe                	sw	a5,216(sp)
    72e0:	08a1                	addi	a7,a7,8
    72e2:	00fd5b63          	ble	a5,s10,72f8 <_svfprintf_r+0x1356>
    72e6:	09d0                	addi	a2,sp,212
    72e8:	85ce                	mv	a1,s3
    72ea:	854a                	mv	a0,s2
    72ec:	040010ef          	jal	ra,832c <__ssprint_r>
    72f0:	26051e63          	bnez	a0,756c <_svfprintf_r+0x15ca>
    72f4:	0fc10893          	addi	a7,sp,252
    72f8:	57a2                	lw	a5,40(sp)
    72fa:	415d8733          	sub	a4,s11,s5
    72fe:	0007cb03          	lbu	s6,0(a5)
    7302:	01675363          	ble	s6,a4,7308 <_svfprintf_r+0x1366>
    7306:	8b3a                	mv	s6,a4
    7308:	03605863          	blez	s6,7338 <_svfprintf_r+0x1396>
    730c:	477e                	lw	a4,220(sp)
    730e:	0158a023          	sw	s5,0(a7)
    7312:	975a                	add	a4,a4,s6
    7314:	cfba                	sw	a4,220(sp)
    7316:	476e                	lw	a4,216(sp)
    7318:	0168a223          	sw	s6,4(a7)
    731c:	0705                	addi	a4,a4,1
    731e:	cdba                	sw	a4,216(sp)
    7320:	08a1                	addi	a7,a7,8
    7322:	00ed5b63          	ble	a4,s10,7338 <_svfprintf_r+0x1396>
    7326:	09d0                	addi	a2,sp,212
    7328:	85ce                	mv	a1,s3
    732a:	854a                	mv	a0,s2
    732c:	000010ef          	jal	ra,832c <__ssprint_r>
    7330:	22051e63          	bnez	a0,756c <_svfprintf_r+0x15ca>
    7334:	0fc10893          	addi	a7,sp,252
    7338:	875a                	mv	a4,s6
    733a:	000b5363          	bgez	s6,7340 <_svfprintf_r+0x139e>
    733e:	4701                	li	a4,0
    7340:	55a2                	lw	a1,40(sp)
    7342:	4841                	li	a6,16
    7344:	0005c783          	lbu	a5,0(a1)
    7348:	40e78b33          	sub	s6,a5,a4
    734c:	05604463          	bgtz	s6,7394 <_svfprintf_r+0x13f2>
    7350:	5622                	lw	a2,40(sp)
    7352:	00064783          	lbu	a5,0(a2)
    7356:	9abe                	add	s5,s5,a5
    7358:	bd91                	j	71ac <_svfprintf_r+0x120a>
    735a:	5622                	lw	a2,40(sp)
    735c:	1bfd                	addi	s7,s7,-1
    735e:	167d                	addi	a2,a2,-1
    7360:	d432                	sw	a2,40(sp)
    7362:	b79d                	j	72c8 <_svfprintf_r+0x1326>
    7364:	67b5                	lui	a5,0xd
    7366:	05c78793          	addi	a5,a5,92 # d05c <zeroes.4369>
    736a:	06c1                	addi	a3,a3,16
    736c:	00f8a023          	sw	a5,0(a7)
    7370:	0108a223          	sw	a6,4(a7)
    7374:	cfb6                	sw	a3,220(sp)
    7376:	cdba                	sw	a4,216(sp)
    7378:	00ed5c63          	ble	a4,s10,7390 <_svfprintf_r+0x13ee>
    737c:	09d0                	addi	a2,sp,212
    737e:	85ce                	mv	a1,s3
    7380:	854a                	mv	a0,s2
    7382:	cc42                	sw	a6,24(sp)
    7384:	7a9000ef          	jal	ra,832c <__ssprint_r>
    7388:	4862                	lw	a6,24(sp)
    738a:	1e051163          	bnez	a0,756c <_svfprintf_r+0x15ca>
    738e:	19f0                	addi	a2,sp,252
    7390:	1b41                	addi	s6,s6,-16
    7392:	88b2                	mv	a7,a2
    7394:	476e                	lw	a4,216(sp)
    7396:	46fe                	lw	a3,220(sp)
    7398:	0705                	addi	a4,a4,1
    739a:	00888613          	addi	a2,a7,8
    739e:	fd6843e3          	blt	a6,s6,7364 <_svfprintf_r+0x13c2>
    73a2:	65b5                	lui	a1,0xd
    73a4:	05c58593          	addi	a1,a1,92 # d05c <zeroes.4369>
    73a8:	00db07b3          	add	a5,s6,a3
    73ac:	00b8a023          	sw	a1,0(a7)
    73b0:	0168a223          	sw	s6,4(a7)
    73b4:	cfbe                	sw	a5,220(sp)
    73b6:	cdba                	sw	a4,216(sp)
    73b8:	88b2                	mv	a7,a2
    73ba:	f8ed5be3          	ble	a4,s10,7350 <_svfprintf_r+0x13ae>
    73be:	09d0                	addi	a2,sp,212
    73c0:	85ce                	mv	a1,s3
    73c2:	854a                	mv	a0,s2
    73c4:	769000ef          	jal	ra,832c <__ssprint_r>
    73c8:	1a051263          	bnez	a0,756c <_svfprintf_r+0x15ca>
    73cc:	0fc10893          	addi	a7,sp,252
    73d0:	b741                	j	7350 <_svfprintf_r+0x13ae>
    73d2:	47ee                	lw	a5,216(sp)
    73d4:	4705                	li	a4,1
    73d6:	0098a023          	sw	s1,0(a7)
    73da:	0d85                	addi	s11,s11,1
    73dc:	0785                	addi	a5,a5,1
    73de:	00888b93          	addi	s7,a7,8
    73e2:	01474663          	blt	a4,s4,73ee <_svfprintf_r+0x144c>
    73e6:	00147693          	andi	a3,s0,1
    73ea:	12068863          	beqz	a3,751a <_svfprintf_r+0x1578>
    73ee:	4705                	li	a4,1
    73f0:	00e8a223          	sw	a4,4(a7)
    73f4:	cfee                	sw	s11,220(sp)
    73f6:	cdbe                	sw	a5,216(sp)
    73f8:	471d                	li	a4,7
    73fa:	00f75b63          	ble	a5,a4,7410 <_svfprintf_r+0x146e>
    73fe:	09d0                	addi	a2,sp,212
    7400:	85ce                	mv	a1,s3
    7402:	854a                	mv	a0,s2
    7404:	729000ef          	jal	ra,832c <__ssprint_r>
    7408:	16051263          	bnez	a0,756c <_svfprintf_r+0x15ca>
    740c:	0fc10b93          	addi	s7,sp,252
    7410:	5762                	lw	a4,56(sp)
    7412:	47fe                	lw	a5,220(sp)
    7414:	46a6                	lw	a3,72(sp)
    7416:	97ba                	add	a5,a5,a4
    7418:	cfbe                	sw	a5,220(sp)
    741a:	47ee                	lw	a5,216(sp)
    741c:	00eba223          	sw	a4,4(s7)
    7420:	0785                	addi	a5,a5,1
    7422:	00dba023          	sw	a3,0(s7)
    7426:	cdbe                	sw	a5,216(sp)
    7428:	471d                	li	a4,7
    742a:	0ba1                	addi	s7,s7,8
    742c:	00f75b63          	ble	a5,a4,7442 <_svfprintf_r+0x14a0>
    7430:	09d0                	addi	a2,sp,212
    7432:	85ce                	mv	a1,s3
    7434:	854a                	mv	a0,s2
    7436:	6f7000ef          	jal	ra,832c <__ssprint_r>
    743a:	12051963          	bnez	a0,756c <_svfprintf_r+0x15ca>
    743e:	0fc10b93          	addi	s7,sp,252
    7442:	578e                	lw	a5,224(sp)
    7444:	090c                	addi	a1,sp,144
    7446:	d13e                	sw	a5,160(sp)
    7448:	579e                	lw	a5,228(sp)
    744a:	1108                	addi	a0,sp,160
    744c:	d33e                	sw	a5,164(sp)
    744e:	57ae                	lw	a5,232(sp)
    7450:	fffa0a93          	addi	s5,s4,-1
    7454:	d53e                	sw	a5,168(sp)
    7456:	57be                	lw	a5,236(sp)
    7458:	c902                	sw	zero,144(sp)
    745a:	d73e                	sw	a5,172(sp)
    745c:	cb02                	sw	zero,148(sp)
    745e:	cd02                	sw	zero,152(sp)
    7460:	cf02                	sw	zero,156(sp)
    7462:	1e1020ef          	jal	ra,9e42 <__eqtf2>
    7466:	cd21                	beqz	a0,74be <_svfprintf_r+0x151c>
    7468:	47fe                	lw	a5,220(sp)
    746a:	476e                	lw	a4,216(sp)
    746c:	17fd                	addi	a5,a5,-1
    746e:	97d2                	add	a5,a5,s4
    7470:	0705                	addi	a4,a4,1
    7472:	0485                	addi	s1,s1,1
    7474:	009ba023          	sw	s1,0(s7)
    7478:	015ba223          	sw	s5,4(s7)
    747c:	cfbe                	sw	a5,220(sp)
    747e:	cdba                	sw	a4,216(sp)
    7480:	479d                	li	a5,7
    7482:	0ba1                	addi	s7,s7,8
    7484:	00e7da63          	ble	a4,a5,7498 <_svfprintf_r+0x14f6>
    7488:	09d0                	addi	a2,sp,212
    748a:	85ce                	mv	a1,s3
    748c:	854a                	mv	a0,s2
    748e:	69f000ef          	jal	ra,832c <__ssprint_r>
    7492:	ed69                	bnez	a0,756c <_svfprintf_r+0x15ca>
    7494:	0fc10b93          	addi	s7,sp,252
    7498:	01dc                	addi	a5,sp,196
    749a:	46d6                	lw	a3,84(sp)
    749c:	00fba023          	sw	a5,0(s7)
    74a0:	47fe                	lw	a5,220(sp)
    74a2:	00dba223          	sw	a3,4(s7)
    74a6:	97b6                	add	a5,a5,a3
    74a8:	cfbe                	sw	a5,220(sp)
    74aa:	47ee                	lw	a5,216(sp)
    74ac:	471d                	li	a4,7
    74ae:	0785                	addi	a5,a5,1
    74b0:	cdbe                	sw	a5,216(sp)
    74b2:	008b8893          	addi	a7,s7,8
    74b6:	aef75ee3          	ble	a5,a4,6fb2 <_svfprintf_r+0x1010>
    74ba:	fa8ff06f          	j	6c62 <_svfprintf_r+0xcc0>
    74be:	fd505de3          	blez	s5,7498 <_svfprintf_r+0x14f6>
    74c2:	44c1                	li	s1,16
    74c4:	4c1d                	li	s8,7
    74c6:	476e                	lw	a4,216(sp)
    74c8:	47fe                	lw	a5,220(sp)
    74ca:	0705                	addi	a4,a4,1
    74cc:	008b8693          	addi	a3,s7,8
    74d0:	0154cf63          	blt	s1,s5,74ee <_svfprintf_r+0x154c>
    74d4:	6635                	lui	a2,0xd
    74d6:	97d6                	add	a5,a5,s5
    74d8:	05c60613          	addi	a2,a2,92 # d05c <zeroes.4369>
    74dc:	00cba023          	sw	a2,0(s7)
    74e0:	015ba223          	sw	s5,4(s7)
    74e4:	cfbe                	sw	a5,220(sp)
    74e6:	cdba                	sw	a4,216(sp)
    74e8:	479d                	li	a5,7
    74ea:	8bb6                	mv	s7,a3
    74ec:	bf61                	j	7484 <_svfprintf_r+0x14e2>
    74ee:	65b5                	lui	a1,0xd
    74f0:	05c58593          	addi	a1,a1,92 # d05c <zeroes.4369>
    74f4:	07c1                	addi	a5,a5,16
    74f6:	00bba023          	sw	a1,0(s7)
    74fa:	009ba223          	sw	s1,4(s7)
    74fe:	cfbe                	sw	a5,220(sp)
    7500:	cdba                	sw	a4,216(sp)
    7502:	00ec5963          	ble	a4,s8,7514 <_svfprintf_r+0x1572>
    7506:	09d0                	addi	a2,sp,212
    7508:	85ce                	mv	a1,s3
    750a:	854a                	mv	a0,s2
    750c:	621000ef          	jal	ra,832c <__ssprint_r>
    7510:	ed31                	bnez	a0,756c <_svfprintf_r+0x15ca>
    7512:	19f4                	addi	a3,sp,252
    7514:	1ac1                	addi	s5,s5,-16
    7516:	8bb6                	mv	s7,a3
    7518:	b77d                	j	74c6 <_svfprintf_r+0x1524>
    751a:	00e8a223          	sw	a4,4(a7)
    751e:	cfee                	sw	s11,220(sp)
    7520:	cdbe                	sw	a5,216(sp)
    7522:	471d                	li	a4,7
    7524:	f6f75ae3          	ble	a5,a4,7498 <_svfprintf_r+0x14f6>
    7528:	b785                	j	7488 <_svfprintf_r+0x14e6>
    752a:	4586                	lw	a1,64(sp)
    752c:	56d2                	lw	a3,52(sp)
    752e:	40d58433          	sub	s0,a1,a3
    7532:	a88053e3          	blez	s0,6fb8 <_svfprintf_r+0x1016>
    7536:	64b5                	lui	s1,0xd
    7538:	4ac1                	li	s5,16
    753a:	04c48493          	addi	s1,s1,76 # d04c <blanks.4368>
    753e:	4b9d                	li	s7,7
    7540:	47ee                	lw	a5,216(sp)
    7542:	0098a023          	sw	s1,0(a7)
    7546:	477e                	lw	a4,220(sp)
    7548:	0785                	addi	a5,a5,1
    754a:	028acb63          	blt	s5,s0,7580 <_svfprintf_r+0x15de>
    754e:	0088a223          	sw	s0,4(a7)
    7552:	943a                	add	s0,s0,a4
    7554:	cfa2                	sw	s0,220(sp)
    7556:	cdbe                	sw	a5,216(sp)
    7558:	471d                	li	a4,7
    755a:	a4f75fe3          	ble	a5,a4,6fb8 <_svfprintf_r+0x1016>
    755e:	09d0                	addi	a2,sp,212
    7560:	85ce                	mv	a1,s3
    7562:	854a                	mv	a0,s2
    7564:	5c9000ef          	jal	ra,832c <__ssprint_r>
    7568:	a40508e3          	beqz	a0,6fb8 <_svfprintf_r+0x1016>
    756c:	5792                	lw	a5,36(sp)
    756e:	e399                	bnez	a5,7574 <_svfprintf_r+0x15d2>
    7570:	eabfe06f          	j	641a <_svfprintf_r+0x478>
    7574:	85be                	mv	a1,a5
    7576:	854a                	mv	a0,s2
    7578:	e9efb0ef          	jal	ra,2c16 <_free_r>
    757c:	e9ffe06f          	j	641a <_svfprintf_r+0x478>
    7580:	0741                	addi	a4,a4,16
    7582:	0158a223          	sw	s5,4(a7)
    7586:	cfba                	sw	a4,220(sp)
    7588:	cdbe                	sw	a5,216(sp)
    758a:	08a1                	addi	a7,a7,8
    758c:	00fbda63          	ble	a5,s7,75a0 <_svfprintf_r+0x15fe>
    7590:	09d0                	addi	a2,sp,212
    7592:	85ce                	mv	a1,s3
    7594:	854a                	mv	a0,s2
    7596:	597000ef          	jal	ra,832c <__ssprint_r>
    759a:	f969                	bnez	a0,756c <_svfprintf_r+0x15ca>
    759c:	0fc10893          	addi	a7,sp,252
    75a0:	1441                	addi	s0,s0,-16
    75a2:	bf79                	j	7540 <_svfprintf_r+0x159e>
    75a4:	5592                	lw	a1,36(sp)
    75a6:	854a                	mv	a0,s2
    75a8:	e6efb0ef          	jal	ra,2c16 <_free_r>
    75ac:	bc1d                	j	6fe2 <_svfprintf_r+0x1040>
    75ae:	47fe                	lw	a5,220(sp)
    75b0:	e399                	bnez	a5,75b6 <_svfprintf_r+0x1614>
    75b2:	e69fe06f          	j	641a <_svfprintf_r+0x478>
    75b6:	09d0                	addi	a2,sp,212
    75b8:	85ce                	mv	a1,s3
    75ba:	854a                	mv	a0,s2
    75bc:	571000ef          	jal	ra,832c <__ssprint_r>
    75c0:	e5bfe06f          	j	641a <_svfprintf_r+0x478>

000075c4 <__sprint_r>:
    75c4:	7179                	addi	sp,sp,-48
    75c6:	461c                	lw	a5,8(a2)
    75c8:	d422                	sw	s0,40(sp)
    75ca:	d606                	sw	ra,44(sp)
    75cc:	d226                	sw	s1,36(sp)
    75ce:	d04a                	sw	s2,32(sp)
    75d0:	ce4e                	sw	s3,28(sp)
    75d2:	cc52                	sw	s4,24(sp)
    75d4:	ca56                	sw	s5,20(sp)
    75d6:	c85a                	sw	s6,16(sp)
    75d8:	c65e                	sw	s7,12(sp)
    75da:	c462                	sw	s8,8(sp)
    75dc:	8432                	mv	s0,a2
    75de:	e385                	bnez	a5,75fe <__sprint_r+0x3a>
    75e0:	00062223          	sw	zero,4(a2)
    75e4:	4501                	li	a0,0
    75e6:	50b2                	lw	ra,44(sp)
    75e8:	5422                	lw	s0,40(sp)
    75ea:	5492                	lw	s1,36(sp)
    75ec:	5902                	lw	s2,32(sp)
    75ee:	49f2                	lw	s3,28(sp)
    75f0:	4a62                	lw	s4,24(sp)
    75f2:	4ad2                	lw	s5,20(sp)
    75f4:	4b42                	lw	s6,16(sp)
    75f6:	4bb2                	lw	s7,12(sp)
    75f8:	4c22                	lw	s8,8(sp)
    75fa:	6145                	addi	sp,sp,48
    75fc:	8082                	ret
    75fe:	51fc                	lw	a5,100(a1)
    7600:	892e                	mv	s2,a1
    7602:	01279713          	slli	a4,a5,0x12
    7606:	04075a63          	bgez	a4,765a <__sprint_r+0x96>
    760a:	4204                	lw	s1,0(a2)
    760c:	8a2a                	mv	s4,a0
    760e:	5bfd                	li	s7,-1
    7610:	441c                	lw	a5,8(s0)
    7612:	e799                	bnez	a5,7620 <__sprint_r+0x5c>
    7614:	4501                	li	a0,0
    7616:	00042423          	sw	zero,8(s0)
    761a:	00042223          	sw	zero,4(s0)
    761e:	b7e1                	j	75e6 <__sprint_r+0x22>
    7620:	0044a983          	lw	s3,4(s1)
    7624:	0004ab03          	lw	s6,0(s1)
    7628:	0029dc13          	srli	s8,s3,0x2
    762c:	4a81                	li	s5,0
    762e:	018acb63          	blt	s5,s8,7644 <__sprint_r+0x80>
    7632:	441c                	lw	a5,8(s0)
    7634:	ffc9f993          	andi	s3,s3,-4
    7638:	413789b3          	sub	s3,a5,s3
    763c:	01342423          	sw	s3,8(s0)
    7640:	04a1                	addi	s1,s1,8
    7642:	b7f9                	j	7610 <__sprint_r+0x4c>
    7644:	000b2583          	lw	a1,0(s6)
    7648:	864a                	mv	a2,s2
    764a:	8552                	mv	a0,s4
    764c:	3db000ef          	jal	ra,8226 <_fputwc_r>
    7650:	0b11                	addi	s6,s6,4
    7652:	01750763          	beq	a0,s7,7660 <__sprint_r+0x9c>
    7656:	0a85                	addi	s5,s5,1
    7658:	bfd9                	j	762e <__sprint_r+0x6a>
    765a:	f5afb0ef          	jal	ra,2db4 <__sfvwrite_r>
    765e:	bf65                	j	7616 <__sprint_r+0x52>
    7660:	557d                	li	a0,-1
    7662:	bf55                	j	7616 <__sprint_r+0x52>

00007664 <_vfiprintf_r>:
    7664:	7169                	addi	sp,sp,-304
    7666:	12812423          	sw	s0,296(sp)
    766a:	13212023          	sw	s2,288(sp)
    766e:	11312e23          	sw	s3,284(sp)
    7672:	11412c23          	sw	s4,280(sp)
    7676:	12112623          	sw	ra,300(sp)
    767a:	12912223          	sw	s1,292(sp)
    767e:	11512a23          	sw	s5,276(sp)
    7682:	11612823          	sw	s6,272(sp)
    7686:	11712623          	sw	s7,268(sp)
    768a:	11812423          	sw	s8,264(sp)
    768e:	11912223          	sw	s9,260(sp)
    7692:	11a12023          	sw	s10,256(sp)
    7696:	dfee                	sw	s11,252(sp)
    7698:	89aa                	mv	s3,a0
    769a:	842e                	mv	s0,a1
    769c:	8a32                	mv	s4,a2
    769e:	8936                	mv	s2,a3
    76a0:	c509                	beqz	a0,76aa <_vfiprintf_r+0x46>
    76a2:	5d1c                	lw	a5,56(a0)
    76a4:	e399                	bnez	a5,76aa <_vfiprintf_r+0x46>
    76a6:	bacfb0ef          	jal	ra,2a52 <__sinit>
    76aa:	00c41783          	lh	a5,12(s0)
    76ae:	01279713          	slli	a4,a5,0x12
    76b2:	00074b63          	bltz	a4,76c8 <_vfiprintf_r+0x64>
    76b6:	6689                	lui	a3,0x2
    76b8:	8fd5                	or	a5,a5,a3
    76ba:	5078                	lw	a4,100(s0)
    76bc:	00f41623          	sh	a5,12(s0)
    76c0:	77f9                	lui	a5,0xffffe
    76c2:	17fd                	addi	a5,a5,-1
    76c4:	8ff9                	and	a5,a5,a4
    76c6:	d07c                	sw	a5,100(s0)
    76c8:	00c45783          	lhu	a5,12(s0)
    76cc:	8ba1                	andi	a5,a5,8
    76ce:	c3a5                	beqz	a5,772e <_vfiprintf_r+0xca>
    76d0:	481c                	lw	a5,16(s0)
    76d2:	cfb1                	beqz	a5,772e <_vfiprintf_r+0xca>
    76d4:	00c45783          	lhu	a5,12(s0)
    76d8:	4729                	li	a4,10
    76da:	8be9                	andi	a5,a5,26
    76dc:	06e79063          	bne	a5,a4,773c <_vfiprintf_r+0xd8>
    76e0:	00e41783          	lh	a5,14(s0)
    76e4:	0407cc63          	bltz	a5,773c <_vfiprintf_r+0xd8>
    76e8:	86ca                	mv	a3,s2
    76ea:	8652                	mv	a2,s4
    76ec:	85a2                	mv	a1,s0
    76ee:	854e                	mv	a0,s3
    76f0:	057000ef          	jal	ra,7f46 <__sbprintf>
    76f4:	8baa                	mv	s7,a0
    76f6:	12c12083          	lw	ra,300(sp)
    76fa:	12812403          	lw	s0,296(sp)
    76fe:	855e                	mv	a0,s7
    7700:	12412483          	lw	s1,292(sp)
    7704:	12012903          	lw	s2,288(sp)
    7708:	11c12983          	lw	s3,284(sp)
    770c:	11812a03          	lw	s4,280(sp)
    7710:	11412a83          	lw	s5,276(sp)
    7714:	11012b03          	lw	s6,272(sp)
    7718:	10c12b83          	lw	s7,268(sp)
    771c:	10812c03          	lw	s8,264(sp)
    7720:	10412c83          	lw	s9,260(sp)
    7724:	10012d03          	lw	s10,256(sp)
    7728:	5dfe                	lw	s11,252(sp)
    772a:	6155                	addi	sp,sp,304
    772c:	8082                	ret
    772e:	85a2                	mv	a1,s0
    7730:	854e                	mv	a0,s3
    7732:	ed3fa0ef          	jal	ra,2604 <__swsetup_r>
    7736:	dd59                	beqz	a0,76d4 <_vfiprintf_r+0x70>
    7738:	5bfd                	li	s7,-1
    773a:	bf75                	j	76f6 <_vfiprintf_r+0x92>
    773c:	04c10b13          	addi	s6,sp,76
    7740:	c0da                	sw	s6,64(sp)
    7742:	c482                	sw	zero,72(sp)
    7744:	c282                	sw	zero,68(sp)
    7746:	875a                	mv	a4,s6
    7748:	d202                	sw	zero,36(sp)
    774a:	ce02                	sw	zero,28(sp)
    774c:	d002                	sw	zero,32(sp)
    774e:	d402                	sw	zero,40(sp)
    7750:	4b81                	li	s7,0
    7752:	84d2                	mv	s1,s4
    7754:	02500693          	li	a3,37
    7758:	0004c783          	lbu	a5,0(s1)
    775c:	c399                	beqz	a5,7762 <_vfiprintf_r+0xfe>
    775e:	06d79b63          	bne	a5,a3,77d4 <_vfiprintf_r+0x170>
    7762:	41448ab3          	sub	s5,s1,s4
    7766:	020a8863          	beqz	s5,7796 <_vfiprintf_r+0x132>
    776a:	47a6                	lw	a5,72(sp)
    776c:	01472023          	sw	s4,0(a4)
    7770:	97d6                	add	a5,a5,s5
    7772:	c4be                	sw	a5,72(sp)
    7774:	4796                	lw	a5,68(sp)
    7776:	01572223          	sw	s5,4(a4)
    777a:	0785                	addi	a5,a5,1
    777c:	c2be                	sw	a5,68(sp)
    777e:	469d                	li	a3,7
    7780:	0721                	addi	a4,a4,8
    7782:	00f6d963          	ble	a5,a3,7794 <_vfiprintf_r+0x130>
    7786:	0090                	addi	a2,sp,64
    7788:	85a2                	mv	a1,s0
    778a:	854e                	mv	a0,s3
    778c:	3d25                	jal	75c4 <__sprint_r>
    778e:	76051463          	bnez	a0,7ef6 <_vfiprintf_r+0x892>
    7792:	875a                	mv	a4,s6
    7794:	9bd6                	add	s7,s7,s5
    7796:	0004c783          	lbu	a5,0(s1)
    779a:	78078763          	beqz	a5,7f28 <_vfiprintf_r+0x8c4>
    779e:	00148a13          	addi	s4,s1,1
    77a2:	02010da3          	sb	zero,59(sp)
    77a6:	54fd                	li	s1,-1
    77a8:	4a81                	li	s5,0
    77aa:	4d01                	li	s10,0
    77ac:	4c29                	li	s8,10
    77ae:	02a00c93          	li	s9,42
    77b2:	05a00813          	li	a6,90
    77b6:	45a5                	li	a1,9
    77b8:	000a4603          	lbu	a2,0(s4)
    77bc:	0a05                	addi	s4,s4,1
    77be:	fe060693          	addi	a3,a2,-32
    77c2:	66d86263          	bltu	a6,a3,7e26 <_vfiprintf_r+0x7c2>
    77c6:	67b5                	lui	a5,0xd
    77c8:	068a                	slli	a3,a3,0x2
    77ca:	06c78793          	addi	a5,a5,108 # d06c <zeroes.4369+0x10>
    77ce:	96be                	add	a3,a3,a5
    77d0:	4294                	lw	a3,0(a3)
    77d2:	8682                	jr	a3
    77d4:	0485                	addi	s1,s1,1
    77d6:	b749                	j	7758 <_vfiprintf_r+0xf4>
    77d8:	0000d6b7          	lui	a3,0xd
    77dc:	b1468693          	addi	a3,a3,-1260 # cb14 <zeroes.4384+0x68>
    77e0:	d236                	sw	a3,36(sp)
    77e2:	020d7693          	andi	a3,s10,32
    77e6:	4e068163          	beqz	a3,7cc8 <_vfiprintf_r+0x664>
    77ea:	091d                	addi	s2,s2,7
    77ec:	ff897913          	andi	s2,s2,-8
    77f0:	00092883          	lw	a7,0(s2)
    77f4:	00492c83          	lw	s9,4(s2)
    77f8:	00890c13          	addi	s8,s2,8
    77fc:	001d7693          	andi	a3,s10,1
    7800:	ce81                	beqz	a3,7818 <_vfiprintf_r+0x1b4>
    7802:	0198e6b3          	or	a3,a7,s9
    7806:	ca89                	beqz	a3,7818 <_vfiprintf_r+0x1b4>
    7808:	03000693          	li	a3,48
    780c:	02d10e23          	sb	a3,60(sp)
    7810:	02c10ea3          	sb	a2,61(sp)
    7814:	002d6d13          	ori	s10,s10,2
    7818:	bffd7d13          	andi	s10,s10,-1025
    781c:	a4b5                	j	7a88 <_vfiprintf_r+0x424>
    781e:	854e                	mv	a0,s3
    7820:	c83a                	sw	a4,16(sp)
    7822:	fbffc0ef          	jal	ra,47e0 <_localeconv_r>
    7826:	4148                	lw	a0,4(a0)
    7828:	d42a                	sw	a0,40(sp)
    782a:	ed8f90ef          	jal	ra,f02 <strlen>
    782e:	d02a                	sw	a0,32(sp)
    7830:	854e                	mv	a0,s3
    7832:	faffc0ef          	jal	ra,47e0 <_localeconv_r>
    7836:	4508                	lw	a0,8(a0)
    7838:	5782                	lw	a5,32(sp)
    783a:	ce2a                	sw	a0,28(sp)
    783c:	4742                	lw	a4,16(sp)
    783e:	dbb5                	beqz	a5,77b2 <_vfiprintf_r+0x14e>
    7840:	d92d                	beqz	a0,77b2 <_vfiprintf_r+0x14e>
    7842:	00054683          	lbu	a3,0(a0)
    7846:	d6b5                	beqz	a3,77b2 <_vfiprintf_r+0x14e>
    7848:	400d6d13          	ori	s10,s10,1024
    784c:	b79d                	j	77b2 <_vfiprintf_r+0x14e>
    784e:	03b14683          	lbu	a3,59(sp)
    7852:	f2a5                	bnez	a3,77b2 <_vfiprintf_r+0x14e>
    7854:	02000693          	li	a3,32
    7858:	02d10da3          	sb	a3,59(sp)
    785c:	bf99                	j	77b2 <_vfiprintf_r+0x14e>
    785e:	001d6d13          	ori	s10,s10,1
    7862:	bf81                	j	77b2 <_vfiprintf_r+0x14e>
    7864:	00092a83          	lw	s5,0(s2)
    7868:	0911                	addi	s2,s2,4
    786a:	f40ad4e3          	bgez	s5,77b2 <_vfiprintf_r+0x14e>
    786e:	41500ab3          	neg	s5,s5
    7872:	004d6d13          	ori	s10,s10,4
    7876:	bf35                	j	77b2 <_vfiprintf_r+0x14e>
    7878:	02b00693          	li	a3,43
    787c:	bff1                	j	7858 <_vfiprintf_r+0x1f4>
    787e:	000a4603          	lbu	a2,0(s4)
    7882:	001a0693          	addi	a3,s4,1
    7886:	03961863          	bne	a2,s9,78b6 <_vfiprintf_r+0x252>
    788a:	00092483          	lw	s1,0(s2)
    788e:	00490613          	addi	a2,s2,4
    7892:	0004d363          	bgez	s1,7898 <_vfiprintf_r+0x234>
    7896:	54fd                	li	s1,-1
    7898:	8932                	mv	s2,a2
    789a:	8a36                	mv	s4,a3
    789c:	bf19                	j	77b2 <_vfiprintf_r+0x14e>
    789e:	0685                	addi	a3,a3,1
    78a0:	038484b3          	mul	s1,s1,s8
    78a4:	fff6c603          	lbu	a2,-1(a3)
    78a8:	94aa                	add	s1,s1,a0
    78aa:	fd060513          	addi	a0,a2,-48
    78ae:	fea5f8e3          	bleu	a0,a1,789e <_vfiprintf_r+0x23a>
    78b2:	8a36                	mv	s4,a3
    78b4:	b729                	j	77be <_vfiprintf_r+0x15a>
    78b6:	4481                	li	s1,0
    78b8:	bfcd                	j	78aa <_vfiprintf_r+0x246>
    78ba:	080d6d13          	ori	s10,s10,128
    78be:	bdd5                	j	77b2 <_vfiprintf_r+0x14e>
    78c0:	86d2                	mv	a3,s4
    78c2:	4a81                	li	s5,0
    78c4:	fd060613          	addi	a2,a2,-48
    78c8:	038a8ab3          	mul	s5,s5,s8
    78cc:	0685                	addi	a3,a3,1
    78ce:	9ab2                	add	s5,s5,a2
    78d0:	fff6c603          	lbu	a2,-1(a3)
    78d4:	fd060513          	addi	a0,a2,-48
    78d8:	fea5f6e3          	bleu	a0,a1,78c4 <_vfiprintf_r+0x260>
    78dc:	bfd9                	j	78b2 <_vfiprintf_r+0x24e>
    78de:	000a4603          	lbu	a2,0(s4)
    78e2:	06800693          	li	a3,104
    78e6:	00d61663          	bne	a2,a3,78f2 <_vfiprintf_r+0x28e>
    78ea:	0a05                	addi	s4,s4,1
    78ec:	200d6d13          	ori	s10,s10,512
    78f0:	b5c9                	j	77b2 <_vfiprintf_r+0x14e>
    78f2:	040d6d13          	ori	s10,s10,64
    78f6:	bd75                	j	77b2 <_vfiprintf_r+0x14e>
    78f8:	000a4603          	lbu	a2,0(s4)
    78fc:	06c00693          	li	a3,108
    7900:	00d61663          	bne	a2,a3,790c <_vfiprintf_r+0x2a8>
    7904:	0a05                	addi	s4,s4,1
    7906:	020d6d13          	ori	s10,s10,32
    790a:	b565                	j	77b2 <_vfiprintf_r+0x14e>
    790c:	010d6d13          	ori	s10,s10,16
    7910:	b54d                	j	77b2 <_vfiprintf_r+0x14e>
    7912:	00092683          	lw	a3,0(s2)
    7916:	00490c13          	addi	s8,s2,4
    791a:	08d10623          	sb	a3,140(sp)
    791e:	02010da3          	sb	zero,59(sp)
    7922:	4485                	li	s1,1
    7924:	4c81                	li	s9,0
    7926:	08c10913          	addi	s2,sp,140
    792a:	a269                	j	7ab4 <_vfiprintf_r+0x450>
    792c:	010d6d13          	ori	s10,s10,16
    7930:	020d7693          	andi	a3,s10,32
    7934:	c6b9                	beqz	a3,7982 <_vfiprintf_r+0x31e>
    7936:	091d                	addi	s2,s2,7
    7938:	ff897913          	andi	s2,s2,-8
    793c:	00092883          	lw	a7,0(s2)
    7940:	00492c83          	lw	s9,4(s2)
    7944:	00890c13          	addi	s8,s2,8
    7948:	000cde63          	bgez	s9,7964 <_vfiprintf_r+0x300>
    794c:	411008b3          	neg	a7,a7
    7950:	011036b3          	snez	a3,a7
    7954:	41900333          	neg	t1,s9
    7958:	40d30cb3          	sub	s9,t1,a3
    795c:	02d00693          	li	a3,45
    7960:	02d10da3          	sb	a3,59(sp)
    7964:	56fd                	li	a3,-1
    7966:	38d49663          	bne	s1,a3,7cf2 <_vfiprintf_r+0x68e>
    796a:	3e0c9363          	bnez	s9,7d50 <_vfiprintf_r+0x6ec>
    796e:	46a5                	li	a3,9
    7970:	3f16e063          	bltu	a3,a7,7d50 <_vfiprintf_r+0x6ec>
    7974:	03088893          	addi	a7,a7,48
    7978:	0f1107a3          	sb	a7,239(sp)
    797c:	0ef10913          	addi	s2,sp,239
    7980:	a6c9                	j	7d42 <_vfiprintf_r+0x6de>
    7982:	010d7693          	andi	a3,s10,16
    7986:	00490c13          	addi	s8,s2,4
    798a:	c691                	beqz	a3,7996 <_vfiprintf_r+0x332>
    798c:	00092883          	lw	a7,0(s2)
    7990:	41f8dc93          	srai	s9,a7,0x1f
    7994:	bf55                	j	7948 <_vfiprintf_r+0x2e4>
    7996:	040d7693          	andi	a3,s10,64
    799a:	00092883          	lw	a7,0(s2)
    799e:	c689                	beqz	a3,79a8 <_vfiprintf_r+0x344>
    79a0:	08c2                	slli	a7,a7,0x10
    79a2:	4108d893          	srai	a7,a7,0x10
    79a6:	b7ed                	j	7990 <_vfiprintf_r+0x32c>
    79a8:	200d7693          	andi	a3,s10,512
    79ac:	d2f5                	beqz	a3,7990 <_vfiprintf_r+0x32c>
    79ae:	08e2                	slli	a7,a7,0x18
    79b0:	4188d893          	srai	a7,a7,0x18
    79b4:	bff1                	j	7990 <_vfiprintf_r+0x32c>
    79b6:	020d7613          	andi	a2,s10,32
    79ba:	00092683          	lw	a3,0(s2)
    79be:	0911                	addi	s2,s2,4
    79c0:	c619                	beqz	a2,79ce <_vfiprintf_r+0x36a>
    79c2:	41fbd793          	srai	a5,s7,0x1f
    79c6:	0176a023          	sw	s7,0(a3)
    79ca:	c2dc                	sw	a5,4(a3)
    79cc:	b359                	j	7752 <_vfiprintf_r+0xee>
    79ce:	010d7613          	andi	a2,s10,16
    79d2:	c601                	beqz	a2,79da <_vfiprintf_r+0x376>
    79d4:	0176a023          	sw	s7,0(a3)
    79d8:	bbad                	j	7752 <_vfiprintf_r+0xee>
    79da:	040d7613          	andi	a2,s10,64
    79de:	c609                	beqz	a2,79e8 <_vfiprintf_r+0x384>
    79e0:	87de                	mv	a5,s7
    79e2:	00f69023          	sh	a5,0(a3)
    79e6:	b3b5                	j	7752 <_vfiprintf_r+0xee>
    79e8:	200d7793          	andi	a5,s10,512
    79ec:	d7e5                	beqz	a5,79d4 <_vfiprintf_r+0x370>
    79ee:	87de                	mv	a5,s7
    79f0:	00f68023          	sb	a5,0(a3)
    79f4:	bbb9                	j	7752 <_vfiprintf_r+0xee>
    79f6:	010d6d13          	ori	s10,s10,16
    79fa:	020d7693          	andi	a3,s10,32
    79fe:	ce9d                	beqz	a3,7a3c <_vfiprintf_r+0x3d8>
    7a00:	091d                	addi	s2,s2,7
    7a02:	ff897913          	andi	s2,s2,-8
    7a06:	00092883          	lw	a7,0(s2)
    7a0a:	00492c83          	lw	s9,4(s2)
    7a0e:	00890c13          	addi	s8,s2,8
    7a12:	bffd7d13          	andi	s10,s10,-1025
    7a16:	4681                	li	a3,0
    7a18:	02010da3          	sb	zero,59(sp)
    7a1c:	567d                	li	a2,-1
    7a1e:	2cc48d63          	beq	s1,a2,7cf8 <_vfiprintf_r+0x694>
    7a22:	866a                	mv	a2,s10
    7a24:	0198e5b3          	or	a1,a7,s9
    7a28:	f7fd7d13          	andi	s10,s10,-129
    7a2c:	2c059663          	bnez	a1,7cf8 <_vfiprintf_r+0x694>
    7a30:	3e048163          	beqz	s1,7e12 <_vfiprintf_r+0x7ae>
    7a34:	4605                	li	a2,1
    7a36:	2cc69463          	bne	a3,a2,7cfe <_vfiprintf_r+0x69a>
    7a3a:	bf2d                	j	7974 <_vfiprintf_r+0x310>
    7a3c:	010d7693          	andi	a3,s10,16
    7a40:	00490c13          	addi	s8,s2,4
    7a44:	c681                	beqz	a3,7a4c <_vfiprintf_r+0x3e8>
    7a46:	00092883          	lw	a7,0(s2)
    7a4a:	a031                	j	7a56 <_vfiprintf_r+0x3f2>
    7a4c:	040d7693          	andi	a3,s10,64
    7a50:	c689                	beqz	a3,7a5a <_vfiprintf_r+0x3f6>
    7a52:	00095883          	lhu	a7,0(s2)
    7a56:	4c81                	li	s9,0
    7a58:	bf6d                	j	7a12 <_vfiprintf_r+0x3ae>
    7a5a:	200d7693          	andi	a3,s10,512
    7a5e:	d6e5                	beqz	a3,7a46 <_vfiprintf_r+0x3e2>
    7a60:	00094883          	lbu	a7,0(s2)
    7a64:	bfcd                	j	7a56 <_vfiprintf_r+0x3f2>
    7a66:	76e1                	lui	a3,0xffff8
    7a68:	8306c693          	xori	a3,a3,-2000
    7a6c:	02d11e23          	sh	a3,60(sp)
    7a70:	0000d6b7          	lui	a3,0xd
    7a74:	b0068693          	addi	a3,a3,-1280 # cb00 <zeroes.4384+0x54>
    7a78:	00092883          	lw	a7,0(s2)
    7a7c:	00490c13          	addi	s8,s2,4
    7a80:	4c81                	li	s9,0
    7a82:	002d6d13          	ori	s10,s10,2
    7a86:	d236                	sw	a3,36(sp)
    7a88:	4689                	li	a3,2
    7a8a:	b779                	j	7a18 <_vfiprintf_r+0x3b4>
    7a8c:	02010da3          	sb	zero,59(sp)
    7a90:	56fd                	li	a3,-1
    7a92:	00490c13          	addi	s8,s2,4
    7a96:	00092903          	lw	s2,0(s2)
    7a9a:	1cd48563          	beq	s1,a3,7c64 <_vfiprintf_r+0x600>
    7a9e:	8626                	mv	a2,s1
    7aa0:	4581                	li	a1,0
    7aa2:	854a                	mv	a0,s2
    7aa4:	c83a                	sw	a4,16(sp)
    7aa6:	bc0fd0ef          	jal	ra,4e66 <memchr>
    7aaa:	4c81                	li	s9,0
    7aac:	4742                	lw	a4,16(sp)
    7aae:	c119                	beqz	a0,7ab4 <_vfiprintf_r+0x450>
    7ab0:	412504b3          	sub	s1,a0,s2
    7ab4:	cc66                	sw	s9,24(sp)
    7ab6:	009cd363          	ble	s1,s9,7abc <_vfiprintf_r+0x458>
    7aba:	cc26                	sw	s1,24(sp)
    7abc:	03b14683          	lbu	a3,59(sp)
    7ac0:	c681                	beqz	a3,7ac8 <_vfiprintf_r+0x464>
    7ac2:	47e2                	lw	a5,24(sp)
    7ac4:	0785                	addi	a5,a5,1
    7ac6:	cc3e                	sw	a5,24(sp)
    7ac8:	002d7d93          	andi	s11,s10,2
    7acc:	000d8563          	beqz	s11,7ad6 <_vfiprintf_r+0x472>
    7ad0:	47e2                	lw	a5,24(sp)
    7ad2:	0789                	addi	a5,a5,2
    7ad4:	cc3e                	sw	a5,24(sp)
    7ad6:	084d7793          	andi	a5,s10,132
    7ada:	d63e                	sw	a5,44(sp)
    7adc:	e3b9                	bnez	a5,7b22 <_vfiprintf_r+0x4be>
    7ade:	47e2                	lw	a5,24(sp)
    7ae0:	40fa86b3          	sub	a3,s5,a5
    7ae4:	02d05f63          	blez	a3,7b22 <_vfiprintf_r+0x4be>
    7ae8:	67b5                	lui	a5,0xd
    7aea:	48c1                	li	a7,16
    7aec:	1d878813          	addi	a6,a5,472 # d1d8 <blanks.4359>
    7af0:	431d                	li	t1,7
    7af2:	4616                	lw	a2,68(sp)
    7af4:	01072023          	sw	a6,0(a4)
    7af8:	45a6                	lw	a1,72(sp)
    7afa:	0605                	addi	a2,a2,1
    7afc:	00870513          	addi	a0,a4,8
    7b00:	32d8cb63          	blt	a7,a3,7e36 <_vfiprintf_r+0x7d2>
    7b04:	c354                	sw	a3,4(a4)
    7b06:	96ae                	add	a3,a3,a1
    7b08:	c4b6                	sw	a3,72(sp)
    7b0a:	c2b2                	sw	a2,68(sp)
    7b0c:	469d                	li	a3,7
    7b0e:	872a                	mv	a4,a0
    7b10:	00c6d963          	ble	a2,a3,7b22 <_vfiprintf_r+0x4be>
    7b14:	0090                	addi	a2,sp,64
    7b16:	85a2                	mv	a1,s0
    7b18:	854e                	mv	a0,s3
    7b1a:	346d                	jal	75c4 <__sprint_r>
    7b1c:	3c051d63          	bnez	a0,7ef6 <_vfiprintf_r+0x892>
    7b20:	875a                	mv	a4,s6
    7b22:	03b14683          	lbu	a3,59(sp)
    7b26:	c69d                	beqz	a3,7b54 <_vfiprintf_r+0x4f0>
    7b28:	03b10613          	addi	a2,sp,59
    7b2c:	c310                	sw	a2,0(a4)
    7b2e:	4605                	li	a2,1
    7b30:	4696                	lw	a3,68(sp)
    7b32:	c350                	sw	a2,4(a4)
    7b34:	4626                	lw	a2,72(sp)
    7b36:	0685                	addi	a3,a3,1
    7b38:	0605                	addi	a2,a2,1
    7b3a:	c4b2                	sw	a2,72(sp)
    7b3c:	c2b6                	sw	a3,68(sp)
    7b3e:	461d                	li	a2,7
    7b40:	0721                	addi	a4,a4,8
    7b42:	00d65963          	ble	a3,a2,7b54 <_vfiprintf_r+0x4f0>
    7b46:	0090                	addi	a2,sp,64
    7b48:	85a2                	mv	a1,s0
    7b4a:	854e                	mv	a0,s3
    7b4c:	3ca5                	jal	75c4 <__sprint_r>
    7b4e:	3a051463          	bnez	a0,7ef6 <_vfiprintf_r+0x892>
    7b52:	875a                	mv	a4,s6
    7b54:	020d8763          	beqz	s11,7b82 <_vfiprintf_r+0x51e>
    7b58:	1870                	addi	a2,sp,60
    7b5a:	c310                	sw	a2,0(a4)
    7b5c:	4609                	li	a2,2
    7b5e:	4696                	lw	a3,68(sp)
    7b60:	c350                	sw	a2,4(a4)
    7b62:	4626                	lw	a2,72(sp)
    7b64:	0685                	addi	a3,a3,1
    7b66:	0609                	addi	a2,a2,2
    7b68:	c4b2                	sw	a2,72(sp)
    7b6a:	c2b6                	sw	a3,68(sp)
    7b6c:	461d                	li	a2,7
    7b6e:	0721                	addi	a4,a4,8
    7b70:	00d65963          	ble	a3,a2,7b82 <_vfiprintf_r+0x51e>
    7b74:	0090                	addi	a2,sp,64
    7b76:	85a2                	mv	a1,s0
    7b78:	854e                	mv	a0,s3
    7b7a:	34a9                	jal	75c4 <__sprint_r>
    7b7c:	36051d63          	bnez	a0,7ef6 <_vfiprintf_r+0x892>
    7b80:	875a                	mv	a4,s6
    7b82:	57b2                	lw	a5,44(sp)
    7b84:	08000693          	li	a3,128
    7b88:	04d79463          	bne	a5,a3,7bd0 <_vfiprintf_r+0x56c>
    7b8c:	47e2                	lw	a5,24(sp)
    7b8e:	40fa8db3          	sub	s11,s5,a5
    7b92:	03b05f63          	blez	s11,7bd0 <_vfiprintf_r+0x56c>
    7b96:	4841                	li	a6,16
    7b98:	489d                	li	a7,7
    7b9a:	67b5                	lui	a5,0xd
    7b9c:	4696                	lw	a3,68(sp)
    7b9e:	1e878793          	addi	a5,a5,488 # d1e8 <zeroes.4360>
    7ba2:	c31c                	sw	a5,0(a4)
    7ba4:	4626                	lw	a2,72(sp)
    7ba6:	0685                	addi	a3,a3,1
    7ba8:	00870593          	addi	a1,a4,8
    7bac:	2bb84e63          	blt	a6,s11,7e68 <_vfiprintf_r+0x804>
    7bb0:	01b72223          	sw	s11,4(a4)
    7bb4:	9db2                	add	s11,s11,a2
    7bb6:	c4ee                	sw	s11,72(sp)
    7bb8:	c2b6                	sw	a3,68(sp)
    7bba:	461d                	li	a2,7
    7bbc:	872e                	mv	a4,a1
    7bbe:	00d65963          	ble	a3,a2,7bd0 <_vfiprintf_r+0x56c>
    7bc2:	0090                	addi	a2,sp,64
    7bc4:	85a2                	mv	a1,s0
    7bc6:	854e                	mv	a0,s3
    7bc8:	3af5                	jal	75c4 <__sprint_r>
    7bca:	32051663          	bnez	a0,7ef6 <_vfiprintf_r+0x892>
    7bce:	875a                	mv	a4,s6
    7bd0:	409c8cb3          	sub	s9,s9,s1
    7bd4:	03905f63          	blez	s9,7c12 <_vfiprintf_r+0x5ae>
    7bd8:	4dc1                	li	s11,16
    7bda:	481d                	li	a6,7
    7bdc:	67b5                	lui	a5,0xd
    7bde:	4696                	lw	a3,68(sp)
    7be0:	1e878793          	addi	a5,a5,488 # d1e8 <zeroes.4360>
    7be4:	c31c                	sw	a5,0(a4)
    7be6:	4626                	lw	a2,72(sp)
    7be8:	0685                	addi	a3,a3,1
    7bea:	00870593          	addi	a1,a4,8
    7bee:	2b9dc263          	blt	s11,s9,7e92 <_vfiprintf_r+0x82e>
    7bf2:	01972223          	sw	s9,4(a4)
    7bf6:	9cb2                	add	s9,s9,a2
    7bf8:	c4e6                	sw	s9,72(sp)
    7bfa:	c2b6                	sw	a3,68(sp)
    7bfc:	461d                	li	a2,7
    7bfe:	872e                	mv	a4,a1
    7c00:	00d65963          	ble	a3,a2,7c12 <_vfiprintf_r+0x5ae>
    7c04:	0090                	addi	a2,sp,64
    7c06:	85a2                	mv	a1,s0
    7c08:	854e                	mv	a0,s3
    7c0a:	3a6d                	jal	75c4 <__sprint_r>
    7c0c:	2e051563          	bnez	a0,7ef6 <_vfiprintf_r+0x892>
    7c10:	875a                	mv	a4,s6
    7c12:	46a6                	lw	a3,72(sp)
    7c14:	c344                	sw	s1,4(a4)
    7c16:	94b6                	add	s1,s1,a3
    7c18:	4696                	lw	a3,68(sp)
    7c1a:	01272023          	sw	s2,0(a4)
    7c1e:	0685                	addi	a3,a3,1
    7c20:	c4a6                	sw	s1,72(sp)
    7c22:	c2b6                	sw	a3,68(sp)
    7c24:	461d                	li	a2,7
    7c26:	0721                	addi	a4,a4,8
    7c28:	00d65963          	ble	a3,a2,7c3a <_vfiprintf_r+0x5d6>
    7c2c:	0090                	addi	a2,sp,64
    7c2e:	85a2                	mv	a1,s0
    7c30:	854e                	mv	a0,s3
    7c32:	3a49                	jal	75c4 <__sprint_r>
    7c34:	2c051163          	bnez	a0,7ef6 <_vfiprintf_r+0x892>
    7c38:	875a                	mv	a4,s6
    7c3a:	004d7793          	andi	a5,s10,4
    7c3e:	26079d63          	bnez	a5,7eb8 <_vfiprintf_r+0x854>
    7c42:	4762                	lw	a4,24(sp)
    7c44:	00ead363          	ble	a4,s5,7c4a <_vfiprintf_r+0x5e6>
    7c48:	8aba                	mv	s5,a4
    7c4a:	47a6                	lw	a5,72(sp)
    7c4c:	9bd6                	add	s7,s7,s5
    7c4e:	c799                	beqz	a5,7c5c <_vfiprintf_r+0x5f8>
    7c50:	0090                	addi	a2,sp,64
    7c52:	85a2                	mv	a1,s0
    7c54:	854e                	mv	a0,s3
    7c56:	32bd                	jal	75c4 <__sprint_r>
    7c58:	28051f63          	bnez	a0,7ef6 <_vfiprintf_r+0x892>
    7c5c:	c282                	sw	zero,68(sp)
    7c5e:	8962                	mv	s2,s8
    7c60:	875a                	mv	a4,s6
    7c62:	bcc5                	j	7752 <_vfiprintf_r+0xee>
    7c64:	854a                	mv	a0,s2
    7c66:	c83a                	sw	a4,16(sp)
    7c68:	a9af90ef          	jal	ra,f02 <strlen>
    7c6c:	84aa                	mv	s1,a0
    7c6e:	4c81                	li	s9,0
    7c70:	4742                	lw	a4,16(sp)
    7c72:	b589                	j	7ab4 <_vfiprintf_r+0x450>
    7c74:	010d6d13          	ori	s10,s10,16
    7c78:	020d7693          	andi	a3,s10,32
    7c7c:	ce81                	beqz	a3,7c94 <_vfiprintf_r+0x630>
    7c7e:	091d                	addi	s2,s2,7
    7c80:	ff897913          	andi	s2,s2,-8
    7c84:	00092883          	lw	a7,0(s2)
    7c88:	00492c83          	lw	s9,4(s2)
    7c8c:	00890c13          	addi	s8,s2,8
    7c90:	4685                	li	a3,1
    7c92:	b359                	j	7a18 <_vfiprintf_r+0x3b4>
    7c94:	010d7693          	andi	a3,s10,16
    7c98:	00490c13          	addi	s8,s2,4
    7c9c:	c681                	beqz	a3,7ca4 <_vfiprintf_r+0x640>
    7c9e:	00092883          	lw	a7,0(s2)
    7ca2:	a031                	j	7cae <_vfiprintf_r+0x64a>
    7ca4:	040d7693          	andi	a3,s10,64
    7ca8:	c689                	beqz	a3,7cb2 <_vfiprintf_r+0x64e>
    7caa:	00095883          	lhu	a7,0(s2)
    7cae:	4c81                	li	s9,0
    7cb0:	b7c5                	j	7c90 <_vfiprintf_r+0x62c>
    7cb2:	200d7693          	andi	a3,s10,512
    7cb6:	d6e5                	beqz	a3,7c9e <_vfiprintf_r+0x63a>
    7cb8:	00094883          	lbu	a7,0(s2)
    7cbc:	bfcd                	j	7cae <_vfiprintf_r+0x64a>
    7cbe:	0000d6b7          	lui	a3,0xd
    7cc2:	b0068693          	addi	a3,a3,-1280 # cb00 <zeroes.4384+0x54>
    7cc6:	be29                	j	77e0 <_vfiprintf_r+0x17c>
    7cc8:	010d7693          	andi	a3,s10,16
    7ccc:	00490c13          	addi	s8,s2,4
    7cd0:	c681                	beqz	a3,7cd8 <_vfiprintf_r+0x674>
    7cd2:	00092883          	lw	a7,0(s2)
    7cd6:	a031                	j	7ce2 <_vfiprintf_r+0x67e>
    7cd8:	040d7693          	andi	a3,s10,64
    7cdc:	c689                	beqz	a3,7ce6 <_vfiprintf_r+0x682>
    7cde:	00095883          	lhu	a7,0(s2)
    7ce2:	4c81                	li	s9,0
    7ce4:	be21                	j	77fc <_vfiprintf_r+0x198>
    7ce6:	200d7693          	andi	a3,s10,512
    7cea:	d6e5                	beqz	a3,7cd2 <_vfiprintf_r+0x66e>
    7cec:	00094883          	lbu	a7,0(s2)
    7cf0:	bfcd                	j	7ce2 <_vfiprintf_r+0x67e>
    7cf2:	866a                	mv	a2,s10
    7cf4:	4685                	li	a3,1
    7cf6:	b33d                	j	7a24 <_vfiprintf_r+0x3c0>
    7cf8:	4605                	li	a2,1
    7cfa:	c6c688e3          	beq	a3,a2,796a <_vfiprintf_r+0x306>
    7cfe:	4609                	li	a2,2
    7d00:	0ec68263          	beq	a3,a2,7de4 <_vfiprintf_r+0x780>
    7d04:	1994                	addi	a3,sp,240
    7d06:	01dc9593          	slli	a1,s9,0x1d
    7d0a:	0078f613          	andi	a2,a7,7
    7d0e:	0038d893          	srli	a7,a7,0x3
    7d12:	03060613          	addi	a2,a2,48
    7d16:	0115e8b3          	or	a7,a1,a7
    7d1a:	003cdc93          	srli	s9,s9,0x3
    7d1e:	fec68fa3          	sb	a2,-1(a3)
    7d22:	0198e5b3          	or	a1,a7,s9
    7d26:	fff68913          	addi	s2,a3,-1
    7d2a:	e18d                	bnez	a1,7d4c <_vfiprintf_r+0x6e8>
    7d2c:	001d7593          	andi	a1,s10,1
    7d30:	c989                	beqz	a1,7d42 <_vfiprintf_r+0x6de>
    7d32:	03000593          	li	a1,48
    7d36:	00b60663          	beq	a2,a1,7d42 <_vfiprintf_r+0x6de>
    7d3a:	feb90fa3          	sb	a1,-1(s2)
    7d3e:	ffe68913          	addi	s2,a3,-2
    7d42:	199c                	addi	a5,sp,240
    7d44:	8ca6                	mv	s9,s1
    7d46:	412784b3          	sub	s1,a5,s2
    7d4a:	b3ad                	j	7ab4 <_vfiprintf_r+0x450>
    7d4c:	86ca                	mv	a3,s2
    7d4e:	bf65                	j	7d06 <_vfiprintf_r+0x6a2>
    7d50:	400d7793          	andi	a5,s10,1024
    7d54:	4d81                	li	s11,0
    7d56:	0f010e13          	addi	t3,sp,240
    7d5a:	cc3e                	sw	a5,24(sp)
    7d5c:	8546                	mv	a0,a7
    7d5e:	4629                	li	a2,10
    7d60:	4681                	li	a3,0
    7d62:	85e6                	mv	a1,s9
    7d64:	fffe0913          	addi	s2,t3,-1
    7d68:	c83a                	sw	a4,16(sp)
    7d6a:	c446                	sw	a7,8(sp)
    7d6c:	ca72                	sw	t3,20(sp)
    7d6e:	3ec010ef          	jal	ra,915a <__umoddi3>
    7d72:	4e52                	lw	t3,20(sp)
    7d74:	03050513          	addi	a0,a0,48
    7d78:	47e2                	lw	a5,24(sp)
    7d7a:	feae0fa3          	sb	a0,-1(t3)
    7d7e:	0d85                	addi	s11,s11,1
    7d80:	4742                	lw	a4,16(sp)
    7d82:	48a2                	lw	a7,8(sp)
    7d84:	c3b1                	beqz	a5,7dc8 <_vfiprintf_r+0x764>
    7d86:	47f2                	lw	a5,28(sp)
    7d88:	0007c683          	lbu	a3,0(a5)
    7d8c:	03b69e63          	bne	a3,s11,7dc8 <_vfiprintf_r+0x764>
    7d90:	0ff00793          	li	a5,255
    7d94:	02fd8a63          	beq	s11,a5,7dc8 <_vfiprintf_r+0x764>
    7d98:	000c9563          	bnez	s9,7da2 <_vfiprintf_r+0x73e>
    7d9c:	47a5                	li	a5,9
    7d9e:	0317f563          	bleu	a7,a5,7dc8 <_vfiprintf_r+0x764>
    7da2:	5782                	lw	a5,32(sp)
    7da4:	55a2                	lw	a1,40(sp)
    7da6:	40f90933          	sub	s2,s2,a5
    7daa:	863e                	mv	a2,a5
    7dac:	854a                	mv	a0,s2
    7dae:	c83a                	sw	a4,16(sp)
    7db0:	c446                	sw	a7,8(sp)
    7db2:	9c0fe0ef          	jal	ra,5f72 <strncpy>
    7db6:	47f2                	lw	a5,28(sp)
    7db8:	4d81                	li	s11,0
    7dba:	0017c683          	lbu	a3,1(a5)
    7dbe:	4742                	lw	a4,16(sp)
    7dc0:	48a2                	lw	a7,8(sp)
    7dc2:	c299                	beqz	a3,7dc8 <_vfiprintf_r+0x764>
    7dc4:	0785                	addi	a5,a5,1
    7dc6:	ce3e                	sw	a5,28(sp)
    7dc8:	8546                	mv	a0,a7
    7dca:	85e6                	mv	a1,s9
    7dcc:	4629                	li	a2,10
    7dce:	4681                	li	a3,0
    7dd0:	c83a                	sw	a4,16(sp)
    7dd2:	02e010ef          	jal	ra,8e00 <__udivdi3>
    7dd6:	8cae                	mv	s9,a1
    7dd8:	8dc9                	or	a1,a1,a0
    7dda:	88aa                	mv	a7,a0
    7ddc:	4742                	lw	a4,16(sp)
    7dde:	d1b5                	beqz	a1,7d42 <_vfiprintf_r+0x6de>
    7de0:	8e4a                	mv	t3,s2
    7de2:	bfad                	j	7d5c <_vfiprintf_r+0x6f8>
    7de4:	0f010913          	addi	s2,sp,240
    7de8:	5792                	lw	a5,36(sp)
    7dea:	00f8f693          	andi	a3,a7,15
    7dee:	96be                	add	a3,a3,a5
    7df0:	0006c683          	lbu	a3,0(a3)
    7df4:	197d                	addi	s2,s2,-1
    7df6:	00d90023          	sb	a3,0(s2)
    7dfa:	0048d893          	srli	a7,a7,0x4
    7dfe:	01cc9693          	slli	a3,s9,0x1c
    7e02:	0116e8b3          	or	a7,a3,a7
    7e06:	004cdc93          	srli	s9,s9,0x4
    7e0a:	0198e6b3          	or	a3,a7,s9
    7e0e:	fee9                	bnez	a3,7de8 <_vfiprintf_r+0x784>
    7e10:	bf0d                	j	7d42 <_vfiprintf_r+0x6de>
    7e12:	0f010913          	addi	s2,sp,240
    7e16:	f695                	bnez	a3,7d42 <_vfiprintf_r+0x6de>
    7e18:	8a05                	andi	a2,a2,1
    7e1a:	d605                	beqz	a2,7d42 <_vfiprintf_r+0x6de>
    7e1c:	03000693          	li	a3,48
    7e20:	0ed107a3          	sb	a3,239(sp)
    7e24:	bea1                	j	797c <_vfiprintf_r+0x318>
    7e26:	10060163          	beqz	a2,7f28 <_vfiprintf_r+0x8c4>
    7e2a:	08c10623          	sb	a2,140(sp)
    7e2e:	02010da3          	sb	zero,59(sp)
    7e32:	8c4a                	mv	s8,s2
    7e34:	b4fd                	j	7922 <_vfiprintf_r+0x2be>
    7e36:	05c1                	addi	a1,a1,16
    7e38:	01172223          	sw	a7,4(a4)
    7e3c:	c4ae                	sw	a1,72(sp)
    7e3e:	c2b2                	sw	a2,68(sp)
    7e40:	02c35163          	ble	a2,t1,7e62 <_vfiprintf_r+0x7fe>
    7e44:	0090                	addi	a2,sp,64
    7e46:	85a2                	mv	a1,s0
    7e48:	854e                	mv	a0,s3
    7e4a:	c81a                	sw	t1,16(sp)
    7e4c:	ca36                	sw	a3,20(sp)
    7e4e:	c642                	sw	a6,12(sp)
    7e50:	c446                	sw	a7,8(sp)
    7e52:	f72ff0ef          	jal	ra,75c4 <__sprint_r>
    7e56:	4342                	lw	t1,16(sp)
    7e58:	46d2                	lw	a3,20(sp)
    7e5a:	4832                	lw	a6,12(sp)
    7e5c:	48a2                	lw	a7,8(sp)
    7e5e:	ed41                	bnez	a0,7ef6 <_vfiprintf_r+0x892>
    7e60:	855a                	mv	a0,s6
    7e62:	16c1                	addi	a3,a3,-16
    7e64:	872a                	mv	a4,a0
    7e66:	b171                	j	7af2 <_vfiprintf_r+0x48e>
    7e68:	0641                	addi	a2,a2,16
    7e6a:	01072223          	sw	a6,4(a4)
    7e6e:	c4b2                	sw	a2,72(sp)
    7e70:	c2b6                	sw	a3,68(sp)
    7e72:	00d8dd63          	ble	a3,a7,7e8c <_vfiprintf_r+0x828>
    7e76:	0090                	addi	a2,sp,64
    7e78:	85a2                	mv	a1,s0
    7e7a:	854e                	mv	a0,s3
    7e7c:	c642                	sw	a6,12(sp)
    7e7e:	c446                	sw	a7,8(sp)
    7e80:	f44ff0ef          	jal	ra,75c4 <__sprint_r>
    7e84:	4832                	lw	a6,12(sp)
    7e86:	48a2                	lw	a7,8(sp)
    7e88:	e53d                	bnez	a0,7ef6 <_vfiprintf_r+0x892>
    7e8a:	85da                	mv	a1,s6
    7e8c:	1dc1                	addi	s11,s11,-16
    7e8e:	872e                	mv	a4,a1
    7e90:	b329                	j	7b9a <_vfiprintf_r+0x536>
    7e92:	0641                	addi	a2,a2,16
    7e94:	01b72223          	sw	s11,4(a4)
    7e98:	c4b2                	sw	a2,72(sp)
    7e9a:	c2b6                	sw	a3,68(sp)
    7e9c:	00d85b63          	ble	a3,a6,7eb2 <_vfiprintf_r+0x84e>
    7ea0:	0090                	addi	a2,sp,64
    7ea2:	85a2                	mv	a1,s0
    7ea4:	854e                	mv	a0,s3
    7ea6:	c642                	sw	a6,12(sp)
    7ea8:	f1cff0ef          	jal	ra,75c4 <__sprint_r>
    7eac:	4832                	lw	a6,12(sp)
    7eae:	e521                	bnez	a0,7ef6 <_vfiprintf_r+0x892>
    7eb0:	85da                	mv	a1,s6
    7eb2:	1cc1                	addi	s9,s9,-16
    7eb4:	872e                	mv	a4,a1
    7eb6:	b31d                	j	7bdc <_vfiprintf_r+0x578>
    7eb8:	47e2                	lw	a5,24(sp)
    7eba:	40fa84b3          	sub	s1,s5,a5
    7ebe:	d89052e3          	blez	s1,7c42 <_vfiprintf_r+0x5de>
    7ec2:	67b5                	lui	a5,0xd
    7ec4:	4cc1                	li	s9,16
    7ec6:	1d878913          	addi	s2,a5,472 # d1d8 <blanks.4359>
    7eca:	4d9d                	li	s11,7
    7ecc:	4796                	lw	a5,68(sp)
    7ece:	01272023          	sw	s2,0(a4)
    7ed2:	46a6                	lw	a3,72(sp)
    7ed4:	0785                	addi	a5,a5,1
    7ed6:	029cc863          	blt	s9,s1,7f06 <_vfiprintf_r+0x8a2>
    7eda:	c344                	sw	s1,4(a4)
    7edc:	94b6                	add	s1,s1,a3
    7ede:	c4a6                	sw	s1,72(sp)
    7ee0:	c2be                	sw	a5,68(sp)
    7ee2:	471d                	li	a4,7
    7ee4:	d4f75fe3          	ble	a5,a4,7c42 <_vfiprintf_r+0x5de>
    7ee8:	0090                	addi	a2,sp,64
    7eea:	85a2                	mv	a1,s0
    7eec:	854e                	mv	a0,s3
    7eee:	ed6ff0ef          	jal	ra,75c4 <__sprint_r>
    7ef2:	d40508e3          	beqz	a0,7c42 <_vfiprintf_r+0x5de>
    7ef6:	00c45783          	lhu	a5,12(s0)
    7efa:	0407f793          	andi	a5,a5,64
    7efe:	fe078c63          	beqz	a5,76f6 <_vfiprintf_r+0x92>
    7f02:	837ff06f          	j	7738 <_vfiprintf_r+0xd4>
    7f06:	06c1                	addi	a3,a3,16
    7f08:	01972223          	sw	s9,4(a4)
    7f0c:	c4b6                	sw	a3,72(sp)
    7f0e:	c2be                	sw	a5,68(sp)
    7f10:	0721                	addi	a4,a4,8
    7f12:	00fdd963          	ble	a5,s11,7f24 <_vfiprintf_r+0x8c0>
    7f16:	0090                	addi	a2,sp,64
    7f18:	85a2                	mv	a1,s0
    7f1a:	854e                	mv	a0,s3
    7f1c:	ea8ff0ef          	jal	ra,75c4 <__sprint_r>
    7f20:	f979                	bnez	a0,7ef6 <_vfiprintf_r+0x892>
    7f22:	875a                	mv	a4,s6
    7f24:	14c1                	addi	s1,s1,-16
    7f26:	b75d                	j	7ecc <_vfiprintf_r+0x868>
    7f28:	47a6                	lw	a5,72(sp)
    7f2a:	d7f1                	beqz	a5,7ef6 <_vfiprintf_r+0x892>
    7f2c:	0090                	addi	a2,sp,64
    7f2e:	85a2                	mv	a1,s0
    7f30:	854e                	mv	a0,s3
    7f32:	e92ff0ef          	jal	ra,75c4 <__sprint_r>
    7f36:	b7c1                	j	7ef6 <_vfiprintf_r+0x892>

00007f38 <vfiprintf>:
    7f38:	86b2                	mv	a3,a2
    7f3a:	862e                	mv	a2,a1
    7f3c:	85aa                	mv	a1,a0
    7f3e:	1c01a503          	lw	a0,448(gp) # e038 <_impure_ptr>
    7f42:	f22ff06f          	j	7664 <_vfiprintf_r>

00007f46 <__sbprintf>:
    7f46:	00c5d783          	lhu	a5,12(a1)
    7f4a:	b8010113          	addi	sp,sp,-1152
    7f4e:	9bf5                	andi	a5,a5,-3
    7f50:	00f11a23          	sh	a5,20(sp)
    7f54:	51fc                	lw	a5,100(a1)
    7f56:	46812c23          	sw	s0,1144(sp)
    7f5a:	d6be                	sw	a5,108(sp)
    7f5c:	00e5d783          	lhu	a5,14(a1)
    7f60:	842e                	mv	s0,a1
    7f62:	00f11b23          	sh	a5,22(sp)
    7f66:	4ddc                	lw	a5,28(a1)
    7f68:	46912a23          	sw	s1,1140(sp)
    7f6c:	d23e                	sw	a5,36(sp)
    7f6e:	51dc                	lw	a5,36(a1)
    7f70:	002c                	addi	a1,sp,8
    7f72:	d63e                	sw	a5,44(sp)
    7f74:	189c                	addi	a5,sp,112
    7f76:	c43e                	sw	a5,8(sp)
    7f78:	cc3e                	sw	a5,24(sp)
    7f7a:	40000793          	li	a5,1024
    7f7e:	47212823          	sw	s2,1136(sp)
    7f82:	46112e23          	sw	ra,1148(sp)
    7f86:	892a                	mv	s2,a0
    7f88:	c83e                	sw	a5,16(sp)
    7f8a:	ce3e                	sw	a5,28(sp)
    7f8c:	d002                	sw	zero,32(sp)
    7f8e:	ed6ff0ef          	jal	ra,7664 <_vfiprintf_r>
    7f92:	84aa                	mv	s1,a0
    7f94:	00054863          	bltz	a0,7fa4 <__sbprintf+0x5e>
    7f98:	002c                	addi	a1,sp,8
    7f9a:	854a                	mv	a0,s2
    7f9c:	9a3fa0ef          	jal	ra,293e <_fflush_r>
    7fa0:	c111                	beqz	a0,7fa4 <__sbprintf+0x5e>
    7fa2:	54fd                	li	s1,-1
    7fa4:	01415783          	lhu	a5,20(sp)
    7fa8:	0407f793          	andi	a5,a5,64
    7fac:	c799                	beqz	a5,7fba <__sbprintf+0x74>
    7fae:	00c45783          	lhu	a5,12(s0)
    7fb2:	0407e793          	ori	a5,a5,64
    7fb6:	00f41623          	sh	a5,12(s0)
    7fba:	47c12083          	lw	ra,1148(sp)
    7fbe:	47812403          	lw	s0,1144(sp)
    7fc2:	8526                	mv	a0,s1
    7fc4:	47012903          	lw	s2,1136(sp)
    7fc8:	47412483          	lw	s1,1140(sp)
    7fcc:	48010113          	addi	sp,sp,1152
    7fd0:	8082                	ret

00007fd2 <_wctomb_r>:
    7fd2:	1c01a783          	lw	a5,448(gp) # e038 <_impure_ptr>
    7fd6:	5bdc                	lw	a5,52(a5)
    7fd8:	e399                	bnez	a5,7fde <_wctomb_r+0xc>
    7fda:	c2818793          	addi	a5,gp,-984 # daa0 <__global_locale>
    7fde:	0e07a303          	lw	t1,224(a5)
    7fe2:	8302                	jr	t1

00007fe4 <__ascii_wctomb>:
    7fe4:	cd91                	beqz	a1,8000 <__ascii_wctomb+0x1c>
    7fe6:	0ff00793          	li	a5,255
    7fea:	00c7f763          	bleu	a2,a5,7ff8 <__ascii_wctomb+0x14>
    7fee:	08a00793          	li	a5,138
    7ff2:	c11c                	sw	a5,0(a0)
    7ff4:	557d                	li	a0,-1
    7ff6:	8082                	ret
    7ff8:	00c58023          	sb	a2,0(a1)
    7ffc:	4505                	li	a0,1
    7ffe:	8082                	ret
    8000:	4501                	li	a0,0
    8002:	8082                	ret

00008004 <_write_r>:
    8004:	1141                	addi	sp,sp,-16
    8006:	c422                	sw	s0,8(sp)
    8008:	c226                	sw	s1,4(sp)
    800a:	84aa                	mv	s1,a0
    800c:	852e                	mv	a0,a1
    800e:	85b2                	mv	a1,a2
    8010:	8636                	mv	a2,a3
    8012:	c606                	sw	ra,12(sp)
    8014:	2001a223          	sw	zero,516(gp) # e07c <errno>
    8018:	a95f80ef          	jal	ra,aac <write>
    801c:	57fd                	li	a5,-1
    801e:	00f51663          	bne	a0,a5,802a <_write_r+0x26>
    8022:	2041a783          	lw	a5,516(gp) # e07c <errno>
    8026:	c391                	beqz	a5,802a <_write_r+0x26>
    8028:	c09c                	sw	a5,0(s1)
    802a:	40b2                	lw	ra,12(sp)
    802c:	4422                	lw	s0,8(sp)
    802e:	4492                	lw	s1,4(sp)
    8030:	0141                	addi	sp,sp,16
    8032:	8082                	ret

00008034 <_calloc_r>:
    8034:	1141                	addi	sp,sp,-16
    8036:	02c585b3          	mul	a1,a1,a2
    803a:	c422                	sw	s0,8(sp)
    803c:	c606                	sw	ra,12(sp)
    803e:	94dfc0ef          	jal	ra,498a <_malloc_r>
    8042:	842a                	mv	s0,a0
    8044:	cd05                	beqz	a0,807c <_calloc_r+0x48>
    8046:	ffc52603          	lw	a2,-4(a0)
    804a:	02400713          	li	a4,36
    804e:	9a71                	andi	a2,a2,-4
    8050:	1671                	addi	a2,a2,-4
    8052:	04c76963          	bltu	a4,a2,80a4 <_calloc_r+0x70>
    8056:	46cd                	li	a3,19
    8058:	87aa                	mv	a5,a0
    805a:	00c6fb63          	bleu	a2,a3,8070 <_calloc_r+0x3c>
    805e:	00052023          	sw	zero,0(a0)
    8062:	00052223          	sw	zero,4(a0)
    8066:	47ed                	li	a5,27
    8068:	00c7ef63          	bltu	a5,a2,8086 <_calloc_r+0x52>
    806c:	00850793          	addi	a5,a0,8
    8070:	0007a023          	sw	zero,0(a5)
    8074:	0007a223          	sw	zero,4(a5)
    8078:	0007a423          	sw	zero,8(a5)
    807c:	8522                	mv	a0,s0
    807e:	40b2                	lw	ra,12(sp)
    8080:	4422                	lw	s0,8(sp)
    8082:	0141                	addi	sp,sp,16
    8084:	8082                	ret
    8086:	00052423          	sw	zero,8(a0)
    808a:	00052623          	sw	zero,12(a0)
    808e:	01050793          	addi	a5,a0,16
    8092:	fce61fe3          	bne	a2,a4,8070 <_calloc_r+0x3c>
    8096:	00052823          	sw	zero,16(a0)
    809a:	01850793          	addi	a5,a0,24
    809e:	00052a23          	sw	zero,20(a0)
    80a2:	b7f9                	j	8070 <_calloc_r+0x3c>
    80a4:	4581                	li	a1,0
    80a6:	c2bf80ef          	jal	ra,cd0 <memset>
    80aa:	bfc9                	j	807c <_calloc_r+0x48>

000080ac <_close_r>:
    80ac:	1141                	addi	sp,sp,-16
    80ae:	c422                	sw	s0,8(sp)
    80b0:	c226                	sw	s1,4(sp)
    80b2:	84aa                	mv	s1,a0
    80b4:	852e                	mv	a0,a1
    80b6:	c606                	sw	ra,12(sp)
    80b8:	2001a223          	sw	zero,516(gp) # e07c <errno>
    80bc:	915f80ef          	jal	ra,9d0 <close>
    80c0:	57fd                	li	a5,-1
    80c2:	00f51663          	bne	a0,a5,80ce <_close_r+0x22>
    80c6:	2041a783          	lw	a5,516(gp) # e07c <errno>
    80ca:	c391                	beqz	a5,80ce <_close_r+0x22>
    80cc:	c09c                	sw	a5,0(s1)
    80ce:	40b2                	lw	ra,12(sp)
    80d0:	4422                	lw	s0,8(sp)
    80d2:	4492                	lw	s1,4(sp)
    80d4:	0141                	addi	sp,sp,16
    80d6:	8082                	ret

000080d8 <_fclose_r>:
    80d8:	1141                	addi	sp,sp,-16
    80da:	c606                	sw	ra,12(sp)
    80dc:	c422                	sw	s0,8(sp)
    80de:	c226                	sw	s1,4(sp)
    80e0:	c04a                	sw	s2,0(sp)
    80e2:	e989                	bnez	a1,80f4 <_fclose_r+0x1c>
    80e4:	4901                	li	s2,0
    80e6:	40b2                	lw	ra,12(sp)
    80e8:	4422                	lw	s0,8(sp)
    80ea:	854a                	mv	a0,s2
    80ec:	4492                	lw	s1,4(sp)
    80ee:	4902                	lw	s2,0(sp)
    80f0:	0141                	addi	sp,sp,16
    80f2:	8082                	ret
    80f4:	84aa                	mv	s1,a0
    80f6:	842e                	mv	s0,a1
    80f8:	c509                	beqz	a0,8102 <_fclose_r+0x2a>
    80fa:	5d1c                	lw	a5,56(a0)
    80fc:	e399                	bnez	a5,8102 <_fclose_r+0x2a>
    80fe:	955fa0ef          	jal	ra,2a52 <__sinit>
    8102:	00c41783          	lh	a5,12(s0)
    8106:	dff9                	beqz	a5,80e4 <_fclose_r+0xc>
    8108:	85a2                	mv	a1,s0
    810a:	8526                	mv	a0,s1
    810c:	ed8fa0ef          	jal	ra,27e4 <__sflush_r>
    8110:	545c                	lw	a5,44(s0)
    8112:	892a                	mv	s2,a0
    8114:	c799                	beqz	a5,8122 <_fclose_r+0x4a>
    8116:	4c4c                	lw	a1,28(s0)
    8118:	8526                	mv	a0,s1
    811a:	9782                	jalr	a5
    811c:	00055363          	bgez	a0,8122 <_fclose_r+0x4a>
    8120:	597d                	li	s2,-1
    8122:	00c45783          	lhu	a5,12(s0)
    8126:	0807f793          	andi	a5,a5,128
    812a:	c789                	beqz	a5,8134 <_fclose_r+0x5c>
    812c:	480c                	lw	a1,16(s0)
    812e:	8526                	mv	a0,s1
    8130:	ae7fa0ef          	jal	ra,2c16 <_free_r>
    8134:	580c                	lw	a1,48(s0)
    8136:	c991                	beqz	a1,814a <_fclose_r+0x72>
    8138:	04040793          	addi	a5,s0,64
    813c:	00f58563          	beq	a1,a5,8146 <_fclose_r+0x6e>
    8140:	8526                	mv	a0,s1
    8142:	ad5fa0ef          	jal	ra,2c16 <_free_r>
    8146:	02042823          	sw	zero,48(s0)
    814a:	406c                	lw	a1,68(s0)
    814c:	c591                	beqz	a1,8158 <_fclose_r+0x80>
    814e:	8526                	mv	a0,s1
    8150:	ac7fa0ef          	jal	ra,2c16 <_free_r>
    8154:	04042223          	sw	zero,68(s0)
    8158:	9e3fa0ef          	jal	ra,2b3a <__sfp_lock_acquire>
    815c:	00041623          	sh	zero,12(s0)
    8160:	9ddfa0ef          	jal	ra,2b3c <__sfp_lock_release>
    8164:	b749                	j	80e6 <_fclose_r+0xe>

00008166 <fclose>:
    8166:	85aa                	mv	a1,a0
    8168:	1c01a503          	lw	a0,448(gp) # e038 <_impure_ptr>
    816c:	b7b5                	j	80d8 <_fclose_r>

0000816e <__fputwc>:
    816e:	7179                	addi	sp,sp,-48
    8170:	d422                	sw	s0,40(sp)
    8172:	d226                	sw	s1,36(sp)
    8174:	cc52                	sw	s4,24(sp)
    8176:	d606                	sw	ra,44(sp)
    8178:	d04a                	sw	s2,32(sp)
    817a:	ce4e                	sw	s3,28(sp)
    817c:	ca56                	sw	s5,20(sp)
    817e:	c85a                	sw	s6,16(sp)
    8180:	8a2a                	mv	s4,a0
    8182:	84ae                	mv	s1,a1
    8184:	8432                	mv	s0,a2
    8186:	eccfc0ef          	jal	ra,4852 <__locale_mb_cur_max>
    818a:	4785                	li	a5,1
    818c:	02f51c63          	bne	a0,a5,81c4 <__fputwc+0x56>
    8190:	fff48793          	addi	a5,s1,-1
    8194:	0fe00713          	li	a4,254
    8198:	02f76663          	bltu	a4,a5,81c4 <__fputwc+0x56>
    819c:	87a6                	mv	a5,s1
    819e:	00f10623          	sb	a5,12(sp)
    81a2:	4985                	li	s3,1
    81a4:	4901                	li	s2,0
    81a6:	5afd                	li	s5,-1
    81a8:	4b29                	li	s6,10
    81aa:	05391063          	bne	s2,s3,81ea <__fputwc+0x7c>
    81ae:	8526                	mv	a0,s1
    81b0:	50b2                	lw	ra,44(sp)
    81b2:	5422                	lw	s0,40(sp)
    81b4:	5492                	lw	s1,36(sp)
    81b6:	5902                	lw	s2,32(sp)
    81b8:	49f2                	lw	s3,28(sp)
    81ba:	4a62                	lw	s4,24(sp)
    81bc:	4ad2                	lw	s5,20(sp)
    81be:	4b42                	lw	s6,16(sp)
    81c0:	6145                	addi	sp,sp,48
    81c2:	8082                	ret
    81c4:	05c40693          	addi	a3,s0,92
    81c8:	8626                	mv	a2,s1
    81ca:	006c                	addi	a1,sp,12
    81cc:	8552                	mv	a0,s4
    81ce:	3d7000ef          	jal	ra,8da4 <_wcrtomb_r>
    81d2:	57fd                	li	a5,-1
    81d4:	89aa                	mv	s3,a0
    81d6:	fcf517e3          	bne	a0,a5,81a4 <__fputwc+0x36>
    81da:	00c45783          	lhu	a5,12(s0)
    81de:	0407e793          	ori	a5,a5,64
    81e2:	00f41623          	sh	a5,12(s0)
    81e6:	557d                	li	a0,-1
    81e8:	b7e1                	j	81b0 <__fputwc+0x42>
    81ea:	0078                	addi	a4,sp,12
    81ec:	012707b3          	add	a5,a4,s2
    81f0:	0007c583          	lbu	a1,0(a5)
    81f4:	441c                	lw	a5,8(s0)
    81f6:	17fd                	addi	a5,a5,-1
    81f8:	c41c                	sw	a5,8(s0)
    81fa:	0007d763          	bgez	a5,8208 <__fputwc+0x9a>
    81fe:	4c18                	lw	a4,24(s0)
    8200:	00e7cc63          	blt	a5,a4,8218 <__fputwc+0xaa>
    8204:	01658a63          	beq	a1,s6,8218 <__fputwc+0xaa>
    8208:	401c                	lw	a5,0(s0)
    820a:	00178713          	addi	a4,a5,1
    820e:	c018                	sw	a4,0(s0)
    8210:	00b78023          	sb	a1,0(a5)
    8214:	0905                	addi	s2,s2,1
    8216:	bf51                	j	81aa <__fputwc+0x3c>
    8218:	8622                	mv	a2,s0
    821a:	8552                	mv	a0,s4
    821c:	2c5000ef          	jal	ra,8ce0 <__swbuf_r>
    8220:	ff551ae3          	bne	a0,s5,8214 <__fputwc+0xa6>
    8224:	b7c9                	j	81e6 <__fputwc+0x78>

00008226 <_fputwc_r>:
    8226:	00c61783          	lh	a5,12(a2)
    822a:	01279713          	slli	a4,a5,0x12
    822e:	00074a63          	bltz	a4,8242 <_fputwc_r+0x1c>
    8232:	6689                	lui	a3,0x2
    8234:	5278                	lw	a4,100(a2)
    8236:	8fd5                	or	a5,a5,a3
    8238:	00f61623          	sh	a5,12(a2)
    823c:	6789                	lui	a5,0x2
    823e:	8fd9                	or	a5,a5,a4
    8240:	d27c                	sw	a5,100(a2)
    8242:	b735                	j	816e <__fputwc>

00008244 <fputwc>:
    8244:	1101                	addi	sp,sp,-32
    8246:	cc22                	sw	s0,24(sp)
    8248:	1c01a403          	lw	s0,448(gp) # e038 <_impure_ptr>
    824c:	ca26                	sw	s1,20(sp)
    824e:	ce06                	sw	ra,28(sp)
    8250:	84aa                	mv	s1,a0
    8252:	862e                	mv	a2,a1
    8254:	c801                	beqz	s0,8264 <fputwc+0x20>
    8256:	5c1c                	lw	a5,56(s0)
    8258:	e791                	bnez	a5,8264 <fputwc+0x20>
    825a:	8522                	mv	a0,s0
    825c:	c62e                	sw	a1,12(sp)
    825e:	ff4fa0ef          	jal	ra,2a52 <__sinit>
    8262:	4632                	lw	a2,12(sp)
    8264:	8522                	mv	a0,s0
    8266:	4462                	lw	s0,24(sp)
    8268:	40f2                	lw	ra,28(sp)
    826a:	85a6                	mv	a1,s1
    826c:	44d2                	lw	s1,20(sp)
    826e:	6105                	addi	sp,sp,32
    8270:	bf5d                	j	8226 <_fputwc_r>

00008272 <_fstat_r>:
    8272:	1141                	addi	sp,sp,-16
    8274:	c422                	sw	s0,8(sp)
    8276:	c226                	sw	s1,4(sp)
    8278:	84aa                	mv	s1,a0
    827a:	852e                	mv	a0,a1
    827c:	85b2                	mv	a1,a2
    827e:	c606                	sw	ra,12(sp)
    8280:	2001a223          	sw	zero,516(gp) # e07c <errno>
    8284:	f7cf80ef          	jal	ra,a00 <fstat>
    8288:	57fd                	li	a5,-1
    828a:	00f51663          	bne	a0,a5,8296 <_fstat_r+0x24>
    828e:	2041a783          	lw	a5,516(gp) # e07c <errno>
    8292:	c391                	beqz	a5,8296 <_fstat_r+0x24>
    8294:	c09c                	sw	a5,0(s1)
    8296:	40b2                	lw	ra,12(sp)
    8298:	4422                	lw	s0,8(sp)
    829a:	4492                	lw	s1,4(sp)
    829c:	0141                	addi	sp,sp,16
    829e:	8082                	ret

000082a0 <_isatty_r>:
    82a0:	1141                	addi	sp,sp,-16
    82a2:	c422                	sw	s0,8(sp)
    82a4:	c226                	sw	s1,4(sp)
    82a6:	84aa                	mv	s1,a0
    82a8:	852e                	mv	a0,a1
    82aa:	c606                	sw	ra,12(sp)
    82ac:	2001a223          	sw	zero,516(gp) # e07c <errno>
    82b0:	f8cf80ef          	jal	ra,a3c <isatty>
    82b4:	57fd                	li	a5,-1
    82b6:	00f51663          	bne	a0,a5,82c2 <_isatty_r+0x22>
    82ba:	2041a783          	lw	a5,516(gp) # e07c <errno>
    82be:	c391                	beqz	a5,82c2 <_isatty_r+0x22>
    82c0:	c09c                	sw	a5,0(s1)
    82c2:	40b2                	lw	ra,12(sp)
    82c4:	4422                	lw	s0,8(sp)
    82c6:	4492                	lw	s1,4(sp)
    82c8:	0141                	addi	sp,sp,16
    82ca:	8082                	ret

000082cc <_lseek_r>:
    82cc:	1141                	addi	sp,sp,-16
    82ce:	c422                	sw	s0,8(sp)
    82d0:	c226                	sw	s1,4(sp)
    82d2:	84aa                	mv	s1,a0
    82d4:	852e                	mv	a0,a1
    82d6:	85b2                	mv	a1,a2
    82d8:	8636                	mv	a2,a3
    82da:	c606                	sw	ra,12(sp)
    82dc:	2001a223          	sw	zero,516(gp) # e07c <errno>
    82e0:	f78f80ef          	jal	ra,a58 <lseek>
    82e4:	57fd                	li	a5,-1
    82e6:	00f51663          	bne	a0,a5,82f2 <_lseek_r+0x26>
    82ea:	2041a783          	lw	a5,516(gp) # e07c <errno>
    82ee:	c391                	beqz	a5,82f2 <_lseek_r+0x26>
    82f0:	c09c                	sw	a5,0(s1)
    82f2:	40b2                	lw	ra,12(sp)
    82f4:	4422                	lw	s0,8(sp)
    82f6:	4492                	lw	s1,4(sp)
    82f8:	0141                	addi	sp,sp,16
    82fa:	8082                	ret

000082fc <_read_r>:
    82fc:	1141                	addi	sp,sp,-16
    82fe:	c422                	sw	s0,8(sp)
    8300:	c226                	sw	s1,4(sp)
    8302:	84aa                	mv	s1,a0
    8304:	852e                	mv	a0,a1
    8306:	85b2                	mv	a1,a2
    8308:	8636                	mv	a2,a3
    830a:	c606                	sw	ra,12(sp)
    830c:	2001a223          	sw	zero,516(gp) # e07c <errno>
    8310:	f68f80ef          	jal	ra,a78 <read>
    8314:	57fd                	li	a5,-1
    8316:	00f51663          	bne	a0,a5,8322 <_read_r+0x26>
    831a:	2041a783          	lw	a5,516(gp) # e07c <errno>
    831e:	c391                	beqz	a5,8322 <_read_r+0x26>
    8320:	c09c                	sw	a5,0(s1)
    8322:	40b2                	lw	ra,12(sp)
    8324:	4422                	lw	s0,8(sp)
    8326:	4492                	lw	s1,4(sp)
    8328:	0141                	addi	sp,sp,16
    832a:	8082                	ret

0000832c <__ssprint_r>:
    832c:	7179                	addi	sp,sp,-48
    832e:	461c                	lw	a5,8(a2)
    8330:	ce4e                	sw	s3,28(sp)
    8332:	d606                	sw	ra,44(sp)
    8334:	d422                	sw	s0,40(sp)
    8336:	d226                	sw	s1,36(sp)
    8338:	d04a                	sw	s2,32(sp)
    833a:	cc52                	sw	s4,24(sp)
    833c:	ca56                	sw	s5,20(sp)
    833e:	c85a                	sw	s6,16(sp)
    8340:	c65e                	sw	s7,12(sp)
    8342:	c462                	sw	s8,8(sp)
    8344:	c266                	sw	s9,4(sp)
    8346:	c06a                	sw	s10,0(sp)
    8348:	89b2                	mv	s3,a2
    834a:	cff9                	beqz	a5,8428 <__ssprint_r+0xfc>
    834c:	00062a83          	lw	s5,0(a2)
    8350:	8a2a                	mv	s4,a0
    8352:	842e                	mv	s0,a1
    8354:	4b01                	li	s6,0
    8356:	4901                	li	s2,0
    8358:	4b8d                	li	s7,3
    835a:	4c09                	li	s8,2
    835c:	06090263          	beqz	s2,83c0 <__ssprint_r+0x94>
    8360:	00842d03          	lw	s10,8(s0)
    8364:	09a96a63          	bltu	s2,s10,83f8 <__ssprint_r+0xcc>
    8368:	00c45783          	lhu	a5,12(s0)
    836c:	4807f713          	andi	a4,a5,1152
    8370:	c741                	beqz	a4,83f8 <__ssprint_r+0xcc>
    8372:	4004                	lw	s1,0(s0)
    8374:	480c                	lw	a1,16(s0)
    8376:	40b48cb3          	sub	s9,s1,a1
    837a:	4844                	lw	s1,20(s0)
    837c:	001c8713          	addi	a4,s9,1
    8380:	029b84b3          	mul	s1,s7,s1
    8384:	0384c4b3          	div	s1,s1,s8
    8388:	974a                	add	a4,a4,s2
    838a:	00e4f363          	bleu	a4,s1,8390 <__ssprint_r+0x64>
    838e:	84ba                	mv	s1,a4
    8390:	4007f793          	andi	a5,a5,1024
    8394:	cbdd                	beqz	a5,844a <__ssprint_r+0x11e>
    8396:	85a6                	mv	a1,s1
    8398:	8552                	mv	a0,s4
    839a:	df0fc0ef          	jal	ra,498a <_malloc_r>
    839e:	8d2a                	mv	s10,a0
    83a0:	e515                	bnez	a0,83cc <__ssprint_r+0xa0>
    83a2:	47b1                	li	a5,12
    83a4:	00fa2023          	sw	a5,0(s4)
    83a8:	00c45783          	lhu	a5,12(s0)
    83ac:	557d                	li	a0,-1
    83ae:	0407e793          	ori	a5,a5,64
    83b2:	00f41623          	sh	a5,12(s0)
    83b6:	0009a423          	sw	zero,8(s3)
    83ba:	0009a223          	sw	zero,4(s3)
    83be:	a885                	j	842e <__ssprint_r+0x102>
    83c0:	000aab03          	lw	s6,0(s5)
    83c4:	004aa903          	lw	s2,4(s5)
    83c8:	0aa1                	addi	s5,s5,8
    83ca:	bf49                	j	835c <__ssprint_r+0x30>
    83cc:	480c                	lw	a1,16(s0)
    83ce:	8666                	mv	a2,s9
    83d0:	ab1fc0ef          	jal	ra,4e80 <memcpy>
    83d4:	00c45783          	lhu	a5,12(s0)
    83d8:	b7f7f793          	andi	a5,a5,-1153
    83dc:	0807e793          	ori	a5,a5,128
    83e0:	00f41623          	sh	a5,12(s0)
    83e4:	01a42823          	sw	s10,16(s0)
    83e8:	c844                	sw	s1,20(s0)
    83ea:	9d66                	add	s10,s10,s9
    83ec:	419484b3          	sub	s1,s1,s9
    83f0:	01a42023          	sw	s10,0(s0)
    83f4:	c404                	sw	s1,8(s0)
    83f6:	8d4a                	mv	s10,s2
    83f8:	01a97363          	bleu	s10,s2,83fe <__ssprint_r+0xd2>
    83fc:	8d4a                	mv	s10,s2
    83fe:	4008                	lw	a0,0(s0)
    8400:	866a                	mv	a2,s10
    8402:	85da                	mv	a1,s6
    8404:	b3bfc0ef          	jal	ra,4f3e <memmove>
    8408:	441c                	lw	a5,8(s0)
    840a:	41a787b3          	sub	a5,a5,s10
    840e:	c41c                	sw	a5,8(s0)
    8410:	401c                	lw	a5,0(s0)
    8412:	9d3e                	add	s10,s10,a5
    8414:	0089a783          	lw	a5,8(s3)
    8418:	01a42023          	sw	s10,0(s0)
    841c:	41278933          	sub	s2,a5,s2
    8420:	0129a423          	sw	s2,8(s3)
    8424:	f8091ee3          	bnez	s2,83c0 <__ssprint_r+0x94>
    8428:	0009a223          	sw	zero,4(s3)
    842c:	4501                	li	a0,0
    842e:	50b2                	lw	ra,44(sp)
    8430:	5422                	lw	s0,40(sp)
    8432:	5492                	lw	s1,36(sp)
    8434:	5902                	lw	s2,32(sp)
    8436:	49f2                	lw	s3,28(sp)
    8438:	4a62                	lw	s4,24(sp)
    843a:	4ad2                	lw	s5,20(sp)
    843c:	4b42                	lw	s6,16(sp)
    843e:	4bb2                	lw	s7,12(sp)
    8440:	4c22                	lw	s8,8(sp)
    8442:	4c92                	lw	s9,4(sp)
    8444:	4d02                	lw	s10,0(sp)
    8446:	6145                	addi	sp,sp,48
    8448:	8082                	ret
    844a:	8626                	mv	a2,s1
    844c:	8552                	mv	a0,s4
    844e:	c6afd0ef          	jal	ra,58b8 <_realloc_r>
    8452:	8d2a                	mv	s10,a0
    8454:	f941                	bnez	a0,83e4 <__ssprint_r+0xb8>
    8456:	480c                	lw	a1,16(s0)
    8458:	8552                	mv	a0,s4
    845a:	fbcfa0ef          	jal	ra,2c16 <_free_r>
    845e:	b791                	j	83a2 <__ssprint_r+0x76>

00008460 <_svfiprintf_r>:
    8460:	00c5d783          	lhu	a5,12(a1)
    8464:	7169                	addi	sp,sp,-304
    8466:	12912223          	sw	s1,292(sp)
    846a:	13212023          	sw	s2,288(sp)
    846e:	11312e23          	sw	s3,284(sp)
    8472:	11512a23          	sw	s5,276(sp)
    8476:	12112623          	sw	ra,300(sp)
    847a:	12812423          	sw	s0,296(sp)
    847e:	11412c23          	sw	s4,280(sp)
    8482:	11612823          	sw	s6,272(sp)
    8486:	11712623          	sw	s7,268(sp)
    848a:	11812423          	sw	s8,264(sp)
    848e:	11912223          	sw	s9,260(sp)
    8492:	11a12023          	sw	s10,256(sp)
    8496:	dfee                	sw	s11,252(sp)
    8498:	0807f793          	andi	a5,a5,128
    849c:	8aaa                	mv	s5,a0
    849e:	892e                	mv	s2,a1
    84a0:	89b2                	mv	s3,a2
    84a2:	84b6                	mv	s1,a3
    84a4:	c795                	beqz	a5,84d0 <_svfiprintf_r+0x70>
    84a6:	499c                	lw	a5,16(a1)
    84a8:	e785                	bnez	a5,84d0 <_svfiprintf_r+0x70>
    84aa:	04000593          	li	a1,64
    84ae:	cdcfc0ef          	jal	ra,498a <_malloc_r>
    84b2:	00a92023          	sw	a0,0(s2)
    84b6:	00a92823          	sw	a0,16(s2)
    84ba:	e519                	bnez	a0,84c8 <_svfiprintf_r+0x68>
    84bc:	47b1                	li	a5,12
    84be:	00faa023          	sw	a5,0(s5)
    84c2:	5bfd                	li	s7,-1
    84c4:	7b20006f          	j	8c76 <_svfiprintf_r+0x816>
    84c8:	04000793          	li	a5,64
    84cc:	00f92a23          	sw	a5,20(s2)
    84d0:	04c10b13          	addi	s6,sp,76
    84d4:	c0da                	sw	s6,64(sp)
    84d6:	c482                	sw	zero,72(sp)
    84d8:	c282                	sw	zero,68(sp)
    84da:	875a                	mv	a4,s6
    84dc:	d202                	sw	zero,36(sp)
    84de:	ce02                	sw	zero,28(sp)
    84e0:	d002                	sw	zero,32(sp)
    84e2:	d402                	sw	zero,40(sp)
    84e4:	4b81                	li	s7,0
    84e6:	844e                	mv	s0,s3
    84e8:	02500693          	li	a3,37
    84ec:	00044783          	lbu	a5,0(s0)
    84f0:	c399                	beqz	a5,84f6 <_svfiprintf_r+0x96>
    84f2:	06d79b63          	bne	a5,a3,8568 <_svfiprintf_r+0x108>
    84f6:	41340a33          	sub	s4,s0,s3
    84fa:	020a0863          	beqz	s4,852a <_svfiprintf_r+0xca>
    84fe:	47a6                	lw	a5,72(sp)
    8500:	01372023          	sw	s3,0(a4)
    8504:	97d2                	add	a5,a5,s4
    8506:	c4be                	sw	a5,72(sp)
    8508:	4796                	lw	a5,68(sp)
    850a:	01472223          	sw	s4,4(a4)
    850e:	0785                	addi	a5,a5,1
    8510:	c2be                	sw	a5,68(sp)
    8512:	469d                	li	a3,7
    8514:	0721                	addi	a4,a4,8
    8516:	00f6d963          	ble	a5,a3,8528 <_svfiprintf_r+0xc8>
    851a:	0090                	addi	a2,sp,64
    851c:	85ca                	mv	a1,s2
    851e:	8556                	mv	a0,s5
    8520:	3531                	jal	832c <__ssprint_r>
    8522:	74051463          	bnez	a0,8c6a <_svfiprintf_r+0x80a>
    8526:	875a                	mv	a4,s6
    8528:	9bd2                	add	s7,s7,s4
    852a:	00044783          	lbu	a5,0(s0)
    852e:	7a078163          	beqz	a5,8cd0 <_svfiprintf_r+0x870>
    8532:	00140993          	addi	s3,s0,1
    8536:	02010da3          	sb	zero,59(sp)
    853a:	547d                	li	s0,-1
    853c:	4a01                	li	s4,0
    853e:	4d01                	li	s10,0
    8540:	4c29                	li	s8,10
    8542:	02a00c93          	li	s9,42
    8546:	05a00813          	li	a6,90
    854a:	45a5                	li	a1,9
    854c:	0009c603          	lbu	a2,0(s3)
    8550:	0985                	addi	s3,s3,1
    8552:	fe060693          	addi	a3,a2,-32
    8556:	64d86363          	bltu	a6,a3,8b9c <_svfiprintf_r+0x73c>
    855a:	67b5                	lui	a5,0xd
    855c:	068a                	slli	a3,a3,0x2
    855e:	2fc78793          	addi	a5,a5,764 # d2fc <_ctype_+0x104>
    8562:	96be                	add	a3,a3,a5
    8564:	4294                	lw	a3,0(a3)
    8566:	8682                	jr	a3
    8568:	0405                	addi	s0,s0,1
    856a:	b749                	j	84ec <_svfiprintf_r+0x8c>
    856c:	0000d6b7          	lui	a3,0xd
    8570:	b1468693          	addi	a3,a3,-1260 # cb14 <zeroes.4384+0x68>
    8574:	d236                	sw	a3,36(sp)
    8576:	020d7693          	andi	a3,s10,32
    857a:	4c068763          	beqz	a3,8a48 <_svfiprintf_r+0x5e8>
    857e:	049d                	addi	s1,s1,7
    8580:	98e1                	andi	s1,s1,-8
    8582:	0004a883          	lw	a7,0(s1)
    8586:	0044ac83          	lw	s9,4(s1)
    858a:	00848c13          	addi	s8,s1,8
    858e:	001d7693          	andi	a3,s10,1
    8592:	ce81                	beqz	a3,85aa <_svfiprintf_r+0x14a>
    8594:	0198e6b3          	or	a3,a7,s9
    8598:	ca89                	beqz	a3,85aa <_svfiprintf_r+0x14a>
    859a:	03000693          	li	a3,48
    859e:	02d10e23          	sb	a3,60(sp)
    85a2:	02c10ea3          	sb	a2,61(sp)
    85a6:	002d6d13          	ori	s10,s10,2
    85aa:	bffd7d13          	andi	s10,s10,-1025
    85ae:	a485                	j	880e <_svfiprintf_r+0x3ae>
    85b0:	8556                	mv	a0,s5
    85b2:	c83a                	sw	a4,16(sp)
    85b4:	a2cfc0ef          	jal	ra,47e0 <_localeconv_r>
    85b8:	4148                	lw	a0,4(a0)
    85ba:	d42a                	sw	a0,40(sp)
    85bc:	947f80ef          	jal	ra,f02 <strlen>
    85c0:	d02a                	sw	a0,32(sp)
    85c2:	8556                	mv	a0,s5
    85c4:	a1cfc0ef          	jal	ra,47e0 <_localeconv_r>
    85c8:	4508                	lw	a0,8(a0)
    85ca:	5782                	lw	a5,32(sp)
    85cc:	ce2a                	sw	a0,28(sp)
    85ce:	4742                	lw	a4,16(sp)
    85d0:	dbbd                	beqz	a5,8546 <_svfiprintf_r+0xe6>
    85d2:	d935                	beqz	a0,8546 <_svfiprintf_r+0xe6>
    85d4:	00054683          	lbu	a3,0(a0)
    85d8:	d6bd                	beqz	a3,8546 <_svfiprintf_r+0xe6>
    85da:	400d6d13          	ori	s10,s10,1024
    85de:	b7a5                	j	8546 <_svfiprintf_r+0xe6>
    85e0:	03b14683          	lbu	a3,59(sp)
    85e4:	f2ad                	bnez	a3,8546 <_svfiprintf_r+0xe6>
    85e6:	02000693          	li	a3,32
    85ea:	02d10da3          	sb	a3,59(sp)
    85ee:	bfa1                	j	8546 <_svfiprintf_r+0xe6>
    85f0:	001d6d13          	ori	s10,s10,1
    85f4:	bf89                	j	8546 <_svfiprintf_r+0xe6>
    85f6:	0004aa03          	lw	s4,0(s1)
    85fa:	0491                	addi	s1,s1,4
    85fc:	f40a55e3          	bgez	s4,8546 <_svfiprintf_r+0xe6>
    8600:	41400a33          	neg	s4,s4
    8604:	004d6d13          	ori	s10,s10,4
    8608:	bf3d                	j	8546 <_svfiprintf_r+0xe6>
    860a:	02b00693          	li	a3,43
    860e:	bff1                	j	85ea <_svfiprintf_r+0x18a>
    8610:	0009c603          	lbu	a2,0(s3)
    8614:	00198693          	addi	a3,s3,1
    8618:	03961763          	bne	a2,s9,8646 <_svfiprintf_r+0x1e6>
    861c:	4080                	lw	s0,0(s1)
    861e:	00448613          	addi	a2,s1,4
    8622:	00045363          	bgez	s0,8628 <_svfiprintf_r+0x1c8>
    8626:	547d                	li	s0,-1
    8628:	84b2                	mv	s1,a2
    862a:	89b6                	mv	s3,a3
    862c:	bf29                	j	8546 <_svfiprintf_r+0xe6>
    862e:	0685                	addi	a3,a3,1
    8630:	03840433          	mul	s0,s0,s8
    8634:	fff6c603          	lbu	a2,-1(a3)
    8638:	942a                	add	s0,s0,a0
    863a:	fd060513          	addi	a0,a2,-48
    863e:	fea5f8e3          	bleu	a0,a1,862e <_svfiprintf_r+0x1ce>
    8642:	89b6                	mv	s3,a3
    8644:	b739                	j	8552 <_svfiprintf_r+0xf2>
    8646:	4401                	li	s0,0
    8648:	bfcd                	j	863a <_svfiprintf_r+0x1da>
    864a:	080d6d13          	ori	s10,s10,128
    864e:	bde5                	j	8546 <_svfiprintf_r+0xe6>
    8650:	86ce                	mv	a3,s3
    8652:	4a01                	li	s4,0
    8654:	fd060613          	addi	a2,a2,-48
    8658:	038a0a33          	mul	s4,s4,s8
    865c:	0685                	addi	a3,a3,1
    865e:	9a32                	add	s4,s4,a2
    8660:	fff6c603          	lbu	a2,-1(a3)
    8664:	fd060513          	addi	a0,a2,-48
    8668:	fea5f6e3          	bleu	a0,a1,8654 <_svfiprintf_r+0x1f4>
    866c:	bfd9                	j	8642 <_svfiprintf_r+0x1e2>
    866e:	0009c603          	lbu	a2,0(s3)
    8672:	06800693          	li	a3,104
    8676:	00d61663          	bne	a2,a3,8682 <_svfiprintf_r+0x222>
    867a:	0985                	addi	s3,s3,1
    867c:	200d6d13          	ori	s10,s10,512
    8680:	b5d9                	j	8546 <_svfiprintf_r+0xe6>
    8682:	040d6d13          	ori	s10,s10,64
    8686:	b5c1                	j	8546 <_svfiprintf_r+0xe6>
    8688:	0009c603          	lbu	a2,0(s3)
    868c:	06c00693          	li	a3,108
    8690:	00d61663          	bne	a2,a3,869c <_svfiprintf_r+0x23c>
    8694:	0985                	addi	s3,s3,1
    8696:	020d6d13          	ori	s10,s10,32
    869a:	b575                	j	8546 <_svfiprintf_r+0xe6>
    869c:	010d6d13          	ori	s10,s10,16
    86a0:	b55d                	j	8546 <_svfiprintf_r+0xe6>
    86a2:	4094                	lw	a3,0(s1)
    86a4:	00448c13          	addi	s8,s1,4
    86a8:	08d10623          	sb	a3,140(sp)
    86ac:	02010da3          	sb	zero,59(sp)
    86b0:	4405                	li	s0,1
    86b2:	4c81                	li	s9,0
    86b4:	0164                	addi	s1,sp,140
    86b6:	a249                	j	8838 <_svfiprintf_r+0x3d8>
    86b8:	010d6d13          	ori	s10,s10,16
    86bc:	020d7693          	andi	a3,s10,32
    86c0:	c6b1                	beqz	a3,870c <_svfiprintf_r+0x2ac>
    86c2:	049d                	addi	s1,s1,7
    86c4:	98e1                	andi	s1,s1,-8
    86c6:	0004a883          	lw	a7,0(s1)
    86ca:	0044ac83          	lw	s9,4(s1)
    86ce:	00848c13          	addi	s8,s1,8
    86d2:	000cde63          	bgez	s9,86ee <_svfiprintf_r+0x28e>
    86d6:	411008b3          	neg	a7,a7
    86da:	011036b3          	snez	a3,a7
    86de:	41900333          	neg	t1,s9
    86e2:	40d30cb3          	sub	s9,t1,a3
    86e6:	02d00693          	li	a3,45
    86ea:	02d10da3          	sb	a3,59(sp)
    86ee:	56fd                	li	a3,-1
    86f0:	38d41163          	bne	s0,a3,8a72 <_svfiprintf_r+0x612>
    86f4:	3c0c9e63          	bnez	s9,8ad0 <_svfiprintf_r+0x670>
    86f8:	46a5                	li	a3,9
    86fa:	3d16eb63          	bltu	a3,a7,8ad0 <_svfiprintf_r+0x670>
    86fe:	03088893          	addi	a7,a7,48
    8702:	0f1107a3          	sb	a7,239(sp)
    8706:	0ef10493          	addi	s1,sp,239
    870a:	ae65                	j	8ac2 <_svfiprintf_r+0x662>
    870c:	010d7693          	andi	a3,s10,16
    8710:	00448c13          	addi	s8,s1,4
    8714:	c691                	beqz	a3,8720 <_svfiprintf_r+0x2c0>
    8716:	0004a883          	lw	a7,0(s1)
    871a:	41f8dc93          	srai	s9,a7,0x1f
    871e:	bf55                	j	86d2 <_svfiprintf_r+0x272>
    8720:	040d7693          	andi	a3,s10,64
    8724:	0004a883          	lw	a7,0(s1)
    8728:	c689                	beqz	a3,8732 <_svfiprintf_r+0x2d2>
    872a:	08c2                	slli	a7,a7,0x10
    872c:	4108d893          	srai	a7,a7,0x10
    8730:	b7ed                	j	871a <_svfiprintf_r+0x2ba>
    8732:	200d7693          	andi	a3,s10,512
    8736:	d2f5                	beqz	a3,871a <_svfiprintf_r+0x2ba>
    8738:	08e2                	slli	a7,a7,0x18
    873a:	4188d893          	srai	a7,a7,0x18
    873e:	bff1                	j	871a <_svfiprintf_r+0x2ba>
    8740:	020d7613          	andi	a2,s10,32
    8744:	4094                	lw	a3,0(s1)
    8746:	0491                	addi	s1,s1,4
    8748:	c619                	beqz	a2,8756 <_svfiprintf_r+0x2f6>
    874a:	41fbd793          	srai	a5,s7,0x1f
    874e:	0176a023          	sw	s7,0(a3)
    8752:	c2dc                	sw	a5,4(a3)
    8754:	bb49                	j	84e6 <_svfiprintf_r+0x86>
    8756:	010d7613          	andi	a2,s10,16
    875a:	c601                	beqz	a2,8762 <_svfiprintf_r+0x302>
    875c:	0176a023          	sw	s7,0(a3)
    8760:	b359                	j	84e6 <_svfiprintf_r+0x86>
    8762:	040d7613          	andi	a2,s10,64
    8766:	c609                	beqz	a2,8770 <_svfiprintf_r+0x310>
    8768:	87de                	mv	a5,s7
    876a:	00f69023          	sh	a5,0(a3)
    876e:	bba5                	j	84e6 <_svfiprintf_r+0x86>
    8770:	200d7793          	andi	a5,s10,512
    8774:	d7e5                	beqz	a5,875c <_svfiprintf_r+0x2fc>
    8776:	87de                	mv	a5,s7
    8778:	00f68023          	sb	a5,0(a3)
    877c:	b3ad                	j	84e6 <_svfiprintf_r+0x86>
    877e:	010d6d13          	ori	s10,s10,16
    8782:	020d7693          	andi	a3,s10,32
    8786:	ce95                	beqz	a3,87c2 <_svfiprintf_r+0x362>
    8788:	049d                	addi	s1,s1,7
    878a:	98e1                	andi	s1,s1,-8
    878c:	0004a883          	lw	a7,0(s1)
    8790:	0044ac83          	lw	s9,4(s1)
    8794:	00848c13          	addi	s8,s1,8
    8798:	bffd7d13          	andi	s10,s10,-1025
    879c:	4681                	li	a3,0
    879e:	02010da3          	sb	zero,59(sp)
    87a2:	567d                	li	a2,-1
    87a4:	2cc40a63          	beq	s0,a2,8a78 <_svfiprintf_r+0x618>
    87a8:	866a                	mv	a2,s10
    87aa:	0198e5b3          	or	a1,a7,s9
    87ae:	f7fd7d13          	andi	s10,s10,-129
    87b2:	2c059363          	bnez	a1,8a78 <_svfiprintf_r+0x618>
    87b6:	3c040a63          	beqz	s0,8b8a <_svfiprintf_r+0x72a>
    87ba:	4605                	li	a2,1
    87bc:	2cc69163          	bne	a3,a2,8a7e <_svfiprintf_r+0x61e>
    87c0:	bf3d                	j	86fe <_svfiprintf_r+0x29e>
    87c2:	010d7693          	andi	a3,s10,16
    87c6:	00448c13          	addi	s8,s1,4
    87ca:	c681                	beqz	a3,87d2 <_svfiprintf_r+0x372>
    87cc:	0004a883          	lw	a7,0(s1)
    87d0:	a031                	j	87dc <_svfiprintf_r+0x37c>
    87d2:	040d7693          	andi	a3,s10,64
    87d6:	c689                	beqz	a3,87e0 <_svfiprintf_r+0x380>
    87d8:	0004d883          	lhu	a7,0(s1)
    87dc:	4c81                	li	s9,0
    87de:	bf6d                	j	8798 <_svfiprintf_r+0x338>
    87e0:	200d7693          	andi	a3,s10,512
    87e4:	d6e5                	beqz	a3,87cc <_svfiprintf_r+0x36c>
    87e6:	0004c883          	lbu	a7,0(s1)
    87ea:	bfcd                	j	87dc <_svfiprintf_r+0x37c>
    87ec:	76e1                	lui	a3,0xffff8
    87ee:	8306c693          	xori	a3,a3,-2000
    87f2:	02d11e23          	sh	a3,60(sp)
    87f6:	0000d6b7          	lui	a3,0xd
    87fa:	b0068693          	addi	a3,a3,-1280 # cb00 <zeroes.4384+0x54>
    87fe:	0004a883          	lw	a7,0(s1)
    8802:	00448c13          	addi	s8,s1,4
    8806:	4c81                	li	s9,0
    8808:	002d6d13          	ori	s10,s10,2
    880c:	d236                	sw	a3,36(sp)
    880e:	4689                	li	a3,2
    8810:	b779                	j	879e <_svfiprintf_r+0x33e>
    8812:	02010da3          	sb	zero,59(sp)
    8816:	56fd                	li	a3,-1
    8818:	00448c13          	addi	s8,s1,4
    881c:	4084                	lw	s1,0(s1)
    881e:	1cd40463          	beq	s0,a3,89e6 <_svfiprintf_r+0x586>
    8822:	8622                	mv	a2,s0
    8824:	4581                	li	a1,0
    8826:	8526                	mv	a0,s1
    8828:	c83a                	sw	a4,16(sp)
    882a:	e3cfc0ef          	jal	ra,4e66 <memchr>
    882e:	4c81                	li	s9,0
    8830:	4742                	lw	a4,16(sp)
    8832:	c119                	beqz	a0,8838 <_svfiprintf_r+0x3d8>
    8834:	40950433          	sub	s0,a0,s1
    8838:	cc66                	sw	s9,24(sp)
    883a:	008cd363          	ble	s0,s9,8840 <_svfiprintf_r+0x3e0>
    883e:	cc22                	sw	s0,24(sp)
    8840:	03b14683          	lbu	a3,59(sp)
    8844:	c681                	beqz	a3,884c <_svfiprintf_r+0x3ec>
    8846:	47e2                	lw	a5,24(sp)
    8848:	0785                	addi	a5,a5,1
    884a:	cc3e                	sw	a5,24(sp)
    884c:	002d7d93          	andi	s11,s10,2
    8850:	000d8563          	beqz	s11,885a <_svfiprintf_r+0x3fa>
    8854:	47e2                	lw	a5,24(sp)
    8856:	0789                	addi	a5,a5,2
    8858:	cc3e                	sw	a5,24(sp)
    885a:	084d7793          	andi	a5,s10,132
    885e:	d63e                	sw	a5,44(sp)
    8860:	e3b9                	bnez	a5,88a6 <_svfiprintf_r+0x446>
    8862:	47e2                	lw	a5,24(sp)
    8864:	40fa06b3          	sub	a3,s4,a5
    8868:	02d05f63          	blez	a3,88a6 <_svfiprintf_r+0x446>
    886c:	67b5                	lui	a5,0xd
    886e:	48c1                	li	a7,16
    8870:	46878813          	addi	a6,a5,1128 # d468 <blanks.4345>
    8874:	431d                	li	t1,7
    8876:	4616                	lw	a2,68(sp)
    8878:	01072023          	sw	a6,0(a4)
    887c:	45a6                	lw	a1,72(sp)
    887e:	0605                	addi	a2,a2,1
    8880:	00870513          	addi	a0,a4,8
    8884:	32d8c463          	blt	a7,a3,8bac <_svfiprintf_r+0x74c>
    8888:	c354                	sw	a3,4(a4)
    888a:	96ae                	add	a3,a3,a1
    888c:	c4b6                	sw	a3,72(sp)
    888e:	c2b2                	sw	a2,68(sp)
    8890:	469d                	li	a3,7
    8892:	872a                	mv	a4,a0
    8894:	00c6d963          	ble	a2,a3,88a6 <_svfiprintf_r+0x446>
    8898:	0090                	addi	a2,sp,64
    889a:	85ca                	mv	a1,s2
    889c:	8556                	mv	a0,s5
    889e:	3479                	jal	832c <__ssprint_r>
    88a0:	3c051563          	bnez	a0,8c6a <_svfiprintf_r+0x80a>
    88a4:	875a                	mv	a4,s6
    88a6:	03b14683          	lbu	a3,59(sp)
    88aa:	c69d                	beqz	a3,88d8 <_svfiprintf_r+0x478>
    88ac:	03b10613          	addi	a2,sp,59
    88b0:	c310                	sw	a2,0(a4)
    88b2:	4605                	li	a2,1
    88b4:	4696                	lw	a3,68(sp)
    88b6:	c350                	sw	a2,4(a4)
    88b8:	4626                	lw	a2,72(sp)
    88ba:	0685                	addi	a3,a3,1
    88bc:	0605                	addi	a2,a2,1
    88be:	c4b2                	sw	a2,72(sp)
    88c0:	c2b6                	sw	a3,68(sp)
    88c2:	461d                	li	a2,7
    88c4:	0721                	addi	a4,a4,8
    88c6:	00d65963          	ble	a3,a2,88d8 <_svfiprintf_r+0x478>
    88ca:	0090                	addi	a2,sp,64
    88cc:	85ca                	mv	a1,s2
    88ce:	8556                	mv	a0,s5
    88d0:	3cb1                	jal	832c <__ssprint_r>
    88d2:	38051c63          	bnez	a0,8c6a <_svfiprintf_r+0x80a>
    88d6:	875a                	mv	a4,s6
    88d8:	020d8763          	beqz	s11,8906 <_svfiprintf_r+0x4a6>
    88dc:	1870                	addi	a2,sp,60
    88de:	c310                	sw	a2,0(a4)
    88e0:	4609                	li	a2,2
    88e2:	4696                	lw	a3,68(sp)
    88e4:	c350                	sw	a2,4(a4)
    88e6:	4626                	lw	a2,72(sp)
    88e8:	0685                	addi	a3,a3,1
    88ea:	0609                	addi	a2,a2,2
    88ec:	c4b2                	sw	a2,72(sp)
    88ee:	c2b6                	sw	a3,68(sp)
    88f0:	461d                	li	a2,7
    88f2:	0721                	addi	a4,a4,8
    88f4:	00d65963          	ble	a3,a2,8906 <_svfiprintf_r+0x4a6>
    88f8:	0090                	addi	a2,sp,64
    88fa:	85ca                	mv	a1,s2
    88fc:	8556                	mv	a0,s5
    88fe:	343d                	jal	832c <__ssprint_r>
    8900:	36051563          	bnez	a0,8c6a <_svfiprintf_r+0x80a>
    8904:	875a                	mv	a4,s6
    8906:	57b2                	lw	a5,44(sp)
    8908:	08000693          	li	a3,128
    890c:	04d79463          	bne	a5,a3,8954 <_svfiprintf_r+0x4f4>
    8910:	47e2                	lw	a5,24(sp)
    8912:	40fa0db3          	sub	s11,s4,a5
    8916:	03b05f63          	blez	s11,8954 <_svfiprintf_r+0x4f4>
    891a:	4841                	li	a6,16
    891c:	489d                	li	a7,7
    891e:	67b5                	lui	a5,0xd
    8920:	4696                	lw	a3,68(sp)
    8922:	47878793          	addi	a5,a5,1144 # d478 <zeroes.4346>
    8926:	c31c                	sw	a5,0(a4)
    8928:	4626                	lw	a2,72(sp)
    892a:	0685                	addi	a3,a3,1
    892c:	00870593          	addi	a1,a4,8
    8930:	2bb84763          	blt	a6,s11,8bde <_svfiprintf_r+0x77e>
    8934:	966e                	add	a2,a2,s11
    8936:	01b72223          	sw	s11,4(a4)
    893a:	c4b2                	sw	a2,72(sp)
    893c:	c2b6                	sw	a3,68(sp)
    893e:	461d                	li	a2,7
    8940:	872e                	mv	a4,a1
    8942:	00d65963          	ble	a3,a2,8954 <_svfiprintf_r+0x4f4>
    8946:	0090                	addi	a2,sp,64
    8948:	85ca                	mv	a1,s2
    894a:	8556                	mv	a0,s5
    894c:	32c5                	jal	832c <__ssprint_r>
    894e:	30051e63          	bnez	a0,8c6a <_svfiprintf_r+0x80a>
    8952:	875a                	mv	a4,s6
    8954:	408c8cb3          	sub	s9,s9,s0
    8958:	03905f63          	blez	s9,8996 <_svfiprintf_r+0x536>
    895c:	4dc1                	li	s11,16
    895e:	481d                	li	a6,7
    8960:	67b5                	lui	a5,0xd
    8962:	4696                	lw	a3,68(sp)
    8964:	47878793          	addi	a5,a5,1144 # d478 <zeroes.4346>
    8968:	c31c                	sw	a5,0(a4)
    896a:	4626                	lw	a2,72(sp)
    896c:	0685                	addi	a3,a3,1
    896e:	00870593          	addi	a1,a4,8
    8972:	299dcb63          	blt	s11,s9,8c08 <_svfiprintf_r+0x7a8>
    8976:	01972223          	sw	s9,4(a4)
    897a:	9cb2                	add	s9,s9,a2
    897c:	c4e6                	sw	s9,72(sp)
    897e:	c2b6                	sw	a3,68(sp)
    8980:	461d                	li	a2,7
    8982:	872e                	mv	a4,a1
    8984:	00d65963          	ble	a3,a2,8996 <_svfiprintf_r+0x536>
    8988:	0090                	addi	a2,sp,64
    898a:	85ca                	mv	a1,s2
    898c:	8556                	mv	a0,s5
    898e:	3a79                	jal	832c <__ssprint_r>
    8990:	2c051d63          	bnez	a0,8c6a <_svfiprintf_r+0x80a>
    8994:	875a                	mv	a4,s6
    8996:	46a6                	lw	a3,72(sp)
    8998:	c340                	sw	s0,4(a4)
    899a:	9436                	add	s0,s0,a3
    899c:	4696                	lw	a3,68(sp)
    899e:	c304                	sw	s1,0(a4)
    89a0:	0685                	addi	a3,a3,1
    89a2:	c4a2                	sw	s0,72(sp)
    89a4:	c2b6                	sw	a3,68(sp)
    89a6:	461d                	li	a2,7
    89a8:	0721                	addi	a4,a4,8
    89aa:	00d65963          	ble	a3,a2,89bc <_svfiprintf_r+0x55c>
    89ae:	0090                	addi	a2,sp,64
    89b0:	85ca                	mv	a1,s2
    89b2:	8556                	mv	a0,s5
    89b4:	3aa5                	jal	832c <__ssprint_r>
    89b6:	2a051a63          	bnez	a0,8c6a <_svfiprintf_r+0x80a>
    89ba:	875a                	mv	a4,s6
    89bc:	004d7793          	andi	a5,s10,4
    89c0:	26079763          	bnez	a5,8c2e <_svfiprintf_r+0x7ce>
    89c4:	47e2                	lw	a5,24(sp)
    89c6:	00fa5363          	ble	a5,s4,89cc <_svfiprintf_r+0x56c>
    89ca:	8a3e                	mv	s4,a5
    89cc:	47a6                	lw	a5,72(sp)
    89ce:	9bd2                	add	s7,s7,s4
    89d0:	c799                	beqz	a5,89de <_svfiprintf_r+0x57e>
    89d2:	0090                	addi	a2,sp,64
    89d4:	85ca                	mv	a1,s2
    89d6:	8556                	mv	a0,s5
    89d8:	3a91                	jal	832c <__ssprint_r>
    89da:	28051863          	bnez	a0,8c6a <_svfiprintf_r+0x80a>
    89de:	c282                	sw	zero,68(sp)
    89e0:	84e2                	mv	s1,s8
    89e2:	875a                	mv	a4,s6
    89e4:	b609                	j	84e6 <_svfiprintf_r+0x86>
    89e6:	8526                	mv	a0,s1
    89e8:	c83a                	sw	a4,16(sp)
    89ea:	d18f80ef          	jal	ra,f02 <strlen>
    89ee:	842a                	mv	s0,a0
    89f0:	4c81                	li	s9,0
    89f2:	4742                	lw	a4,16(sp)
    89f4:	b591                	j	8838 <_svfiprintf_r+0x3d8>
    89f6:	010d6d13          	ori	s10,s10,16
    89fa:	020d7693          	andi	a3,s10,32
    89fe:	ca99                	beqz	a3,8a14 <_svfiprintf_r+0x5b4>
    8a00:	049d                	addi	s1,s1,7
    8a02:	98e1                	andi	s1,s1,-8
    8a04:	0004a883          	lw	a7,0(s1)
    8a08:	0044ac83          	lw	s9,4(s1)
    8a0c:	00848c13          	addi	s8,s1,8
    8a10:	4685                	li	a3,1
    8a12:	b371                	j	879e <_svfiprintf_r+0x33e>
    8a14:	010d7693          	andi	a3,s10,16
    8a18:	00448c13          	addi	s8,s1,4
    8a1c:	c681                	beqz	a3,8a24 <_svfiprintf_r+0x5c4>
    8a1e:	0004a883          	lw	a7,0(s1)
    8a22:	a031                	j	8a2e <_svfiprintf_r+0x5ce>
    8a24:	040d7693          	andi	a3,s10,64
    8a28:	c689                	beqz	a3,8a32 <_svfiprintf_r+0x5d2>
    8a2a:	0004d883          	lhu	a7,0(s1)
    8a2e:	4c81                	li	s9,0
    8a30:	b7c5                	j	8a10 <_svfiprintf_r+0x5b0>
    8a32:	200d7693          	andi	a3,s10,512
    8a36:	d6e5                	beqz	a3,8a1e <_svfiprintf_r+0x5be>
    8a38:	0004c883          	lbu	a7,0(s1)
    8a3c:	bfcd                	j	8a2e <_svfiprintf_r+0x5ce>
    8a3e:	0000d6b7          	lui	a3,0xd
    8a42:	b0068693          	addi	a3,a3,-1280 # cb00 <zeroes.4384+0x54>
    8a46:	b63d                	j	8574 <_svfiprintf_r+0x114>
    8a48:	010d7693          	andi	a3,s10,16
    8a4c:	00448c13          	addi	s8,s1,4
    8a50:	c681                	beqz	a3,8a58 <_svfiprintf_r+0x5f8>
    8a52:	0004a883          	lw	a7,0(s1)
    8a56:	a031                	j	8a62 <_svfiprintf_r+0x602>
    8a58:	040d7693          	andi	a3,s10,64
    8a5c:	c689                	beqz	a3,8a66 <_svfiprintf_r+0x606>
    8a5e:	0004d883          	lhu	a7,0(s1)
    8a62:	4c81                	li	s9,0
    8a64:	b62d                	j	858e <_svfiprintf_r+0x12e>
    8a66:	200d7693          	andi	a3,s10,512
    8a6a:	d6e5                	beqz	a3,8a52 <_svfiprintf_r+0x5f2>
    8a6c:	0004c883          	lbu	a7,0(s1)
    8a70:	bfcd                	j	8a62 <_svfiprintf_r+0x602>
    8a72:	866a                	mv	a2,s10
    8a74:	4685                	li	a3,1
    8a76:	bb15                	j	87aa <_svfiprintf_r+0x34a>
    8a78:	4605                	li	a2,1
    8a7a:	c6c68de3          	beq	a3,a2,86f4 <_svfiprintf_r+0x294>
    8a7e:	4609                	li	a2,2
    8a80:	0cc68f63          	beq	a3,a2,8b5e <_svfiprintf_r+0x6fe>
    8a84:	1994                	addi	a3,sp,240
    8a86:	01dc9593          	slli	a1,s9,0x1d
    8a8a:	0078f613          	andi	a2,a7,7
    8a8e:	0038d893          	srli	a7,a7,0x3
    8a92:	03060613          	addi	a2,a2,48
    8a96:	0115e8b3          	or	a7,a1,a7
    8a9a:	003cdc93          	srli	s9,s9,0x3
    8a9e:	fec68fa3          	sb	a2,-1(a3)
    8aa2:	0198e5b3          	or	a1,a7,s9
    8aa6:	fff68493          	addi	s1,a3,-1
    8aaa:	e18d                	bnez	a1,8acc <_svfiprintf_r+0x66c>
    8aac:	001d7593          	andi	a1,s10,1
    8ab0:	c989                	beqz	a1,8ac2 <_svfiprintf_r+0x662>
    8ab2:	03000593          	li	a1,48
    8ab6:	00b60663          	beq	a2,a1,8ac2 <_svfiprintf_r+0x662>
    8aba:	feb48fa3          	sb	a1,-1(s1)
    8abe:	ffe68493          	addi	s1,a3,-2
    8ac2:	199c                	addi	a5,sp,240
    8ac4:	8ca2                	mv	s9,s0
    8ac6:	40978433          	sub	s0,a5,s1
    8aca:	b3bd                	j	8838 <_svfiprintf_r+0x3d8>
    8acc:	86a6                	mv	a3,s1
    8ace:	bf65                	j	8a86 <_svfiprintf_r+0x626>
    8ad0:	400d7793          	andi	a5,s10,1024
    8ad4:	4d81                	li	s11,0
    8ad6:	0f010e13          	addi	t3,sp,240
    8ada:	cc3e                	sw	a5,24(sp)
    8adc:	8546                	mv	a0,a7
    8ade:	4629                	li	a2,10
    8ae0:	4681                	li	a3,0
    8ae2:	85e6                	mv	a1,s9
    8ae4:	fffe0493          	addi	s1,t3,-1
    8ae8:	c83a                	sw	a4,16(sp)
    8aea:	c446                	sw	a7,8(sp)
    8aec:	ca72                	sw	t3,20(sp)
    8aee:	25b5                	jal	915a <__umoddi3>
    8af0:	4e52                	lw	t3,20(sp)
    8af2:	03050513          	addi	a0,a0,48
    8af6:	47e2                	lw	a5,24(sp)
    8af8:	feae0fa3          	sb	a0,-1(t3)
    8afc:	0d85                	addi	s11,s11,1
    8afe:	4742                	lw	a4,16(sp)
    8b00:	48a2                	lw	a7,8(sp)
    8b02:	c3a9                	beqz	a5,8b44 <_svfiprintf_r+0x6e4>
    8b04:	47f2                	lw	a5,28(sp)
    8b06:	0007c683          	lbu	a3,0(a5)
    8b0a:	03b69d63          	bne	a3,s11,8b44 <_svfiprintf_r+0x6e4>
    8b0e:	0ff00793          	li	a5,255
    8b12:	02fd8963          	beq	s11,a5,8b44 <_svfiprintf_r+0x6e4>
    8b16:	000c9563          	bnez	s9,8b20 <_svfiprintf_r+0x6c0>
    8b1a:	47a5                	li	a5,9
    8b1c:	0317f463          	bleu	a7,a5,8b44 <_svfiprintf_r+0x6e4>
    8b20:	5782                	lw	a5,32(sp)
    8b22:	55a2                	lw	a1,40(sp)
    8b24:	8c9d                	sub	s1,s1,a5
    8b26:	863e                	mv	a2,a5
    8b28:	8526                	mv	a0,s1
    8b2a:	c83a                	sw	a4,16(sp)
    8b2c:	c446                	sw	a7,8(sp)
    8b2e:	c44fd0ef          	jal	ra,5f72 <strncpy>
    8b32:	47f2                	lw	a5,28(sp)
    8b34:	4d81                	li	s11,0
    8b36:	0017c683          	lbu	a3,1(a5)
    8b3a:	4742                	lw	a4,16(sp)
    8b3c:	48a2                	lw	a7,8(sp)
    8b3e:	c299                	beqz	a3,8b44 <_svfiprintf_r+0x6e4>
    8b40:	0785                	addi	a5,a5,1
    8b42:	ce3e                	sw	a5,28(sp)
    8b44:	8546                	mv	a0,a7
    8b46:	85e6                	mv	a1,s9
    8b48:	4629                	li	a2,10
    8b4a:	4681                	li	a3,0
    8b4c:	c83a                	sw	a4,16(sp)
    8b4e:	2c4d                	jal	8e00 <__udivdi3>
    8b50:	8cae                	mv	s9,a1
    8b52:	8dc9                	or	a1,a1,a0
    8b54:	88aa                	mv	a7,a0
    8b56:	4742                	lw	a4,16(sp)
    8b58:	d5ad                	beqz	a1,8ac2 <_svfiprintf_r+0x662>
    8b5a:	8e26                	mv	t3,s1
    8b5c:	b741                	j	8adc <_svfiprintf_r+0x67c>
    8b5e:	1984                	addi	s1,sp,240
    8b60:	5792                	lw	a5,36(sp)
    8b62:	00f8f693          	andi	a3,a7,15
    8b66:	96be                	add	a3,a3,a5
    8b68:	0006c683          	lbu	a3,0(a3)
    8b6c:	14fd                	addi	s1,s1,-1
    8b6e:	00d48023          	sb	a3,0(s1)
    8b72:	0048d893          	srli	a7,a7,0x4
    8b76:	01cc9693          	slli	a3,s9,0x1c
    8b7a:	0116e8b3          	or	a7,a3,a7
    8b7e:	004cdc93          	srli	s9,s9,0x4
    8b82:	0198e6b3          	or	a3,a7,s9
    8b86:	fee9                	bnez	a3,8b60 <_svfiprintf_r+0x700>
    8b88:	bf2d                	j	8ac2 <_svfiprintf_r+0x662>
    8b8a:	1984                	addi	s1,sp,240
    8b8c:	fa9d                	bnez	a3,8ac2 <_svfiprintf_r+0x662>
    8b8e:	8a05                	andi	a2,a2,1
    8b90:	da0d                	beqz	a2,8ac2 <_svfiprintf_r+0x662>
    8b92:	03000693          	li	a3,48
    8b96:	0ed107a3          	sb	a3,239(sp)
    8b9a:	b6b5                	j	8706 <_svfiprintf_r+0x2a6>
    8b9c:	12060a63          	beqz	a2,8cd0 <_svfiprintf_r+0x870>
    8ba0:	08c10623          	sb	a2,140(sp)
    8ba4:	02010da3          	sb	zero,59(sp)
    8ba8:	8c26                	mv	s8,s1
    8baa:	b619                	j	86b0 <_svfiprintf_r+0x250>
    8bac:	05c1                	addi	a1,a1,16
    8bae:	01172223          	sw	a7,4(a4)
    8bb2:	c4ae                	sw	a1,72(sp)
    8bb4:	c2b2                	sw	a2,68(sp)
    8bb6:	02c35163          	ble	a2,t1,8bd8 <_svfiprintf_r+0x778>
    8bba:	0090                	addi	a2,sp,64
    8bbc:	85ca                	mv	a1,s2
    8bbe:	8556                	mv	a0,s5
    8bc0:	c81a                	sw	t1,16(sp)
    8bc2:	ca36                	sw	a3,20(sp)
    8bc4:	c642                	sw	a6,12(sp)
    8bc6:	c446                	sw	a7,8(sp)
    8bc8:	f64ff0ef          	jal	ra,832c <__ssprint_r>
    8bcc:	4342                	lw	t1,16(sp)
    8bce:	46d2                	lw	a3,20(sp)
    8bd0:	4832                	lw	a6,12(sp)
    8bd2:	48a2                	lw	a7,8(sp)
    8bd4:	e959                	bnez	a0,8c6a <_svfiprintf_r+0x80a>
    8bd6:	855a                	mv	a0,s6
    8bd8:	16c1                	addi	a3,a3,-16
    8bda:	872a                	mv	a4,a0
    8bdc:	b969                	j	8876 <_svfiprintf_r+0x416>
    8bde:	0641                	addi	a2,a2,16
    8be0:	01072223          	sw	a6,4(a4)
    8be4:	c4b2                	sw	a2,72(sp)
    8be6:	c2b6                	sw	a3,68(sp)
    8be8:	00d8dd63          	ble	a3,a7,8c02 <_svfiprintf_r+0x7a2>
    8bec:	0090                	addi	a2,sp,64
    8bee:	85ca                	mv	a1,s2
    8bf0:	8556                	mv	a0,s5
    8bf2:	c642                	sw	a6,12(sp)
    8bf4:	c446                	sw	a7,8(sp)
    8bf6:	f36ff0ef          	jal	ra,832c <__ssprint_r>
    8bfa:	4832                	lw	a6,12(sp)
    8bfc:	48a2                	lw	a7,8(sp)
    8bfe:	e535                	bnez	a0,8c6a <_svfiprintf_r+0x80a>
    8c00:	85da                	mv	a1,s6
    8c02:	1dc1                	addi	s11,s11,-16
    8c04:	872e                	mv	a4,a1
    8c06:	bb21                	j	891e <_svfiprintf_r+0x4be>
    8c08:	0641                	addi	a2,a2,16
    8c0a:	01b72223          	sw	s11,4(a4)
    8c0e:	c4b2                	sw	a2,72(sp)
    8c10:	c2b6                	sw	a3,68(sp)
    8c12:	00d85b63          	ble	a3,a6,8c28 <_svfiprintf_r+0x7c8>
    8c16:	0090                	addi	a2,sp,64
    8c18:	85ca                	mv	a1,s2
    8c1a:	8556                	mv	a0,s5
    8c1c:	c642                	sw	a6,12(sp)
    8c1e:	f0eff0ef          	jal	ra,832c <__ssprint_r>
    8c22:	4832                	lw	a6,12(sp)
    8c24:	e139                	bnez	a0,8c6a <_svfiprintf_r+0x80a>
    8c26:	85da                	mv	a1,s6
    8c28:	1cc1                	addi	s9,s9,-16
    8c2a:	872e                	mv	a4,a1
    8c2c:	bb15                	j	8960 <_svfiprintf_r+0x500>
    8c2e:	47e2                	lw	a5,24(sp)
    8c30:	40fa0433          	sub	s0,s4,a5
    8c34:	d88058e3          	blez	s0,89c4 <_svfiprintf_r+0x564>
    8c38:	67b5                	lui	a5,0xd
    8c3a:	4cc1                	li	s9,16
    8c3c:	46878493          	addi	s1,a5,1128 # d468 <blanks.4345>
    8c40:	4d9d                	li	s11,7
    8c42:	4796                	lw	a5,68(sp)
    8c44:	c304                	sw	s1,0(a4)
    8c46:	46a6                	lw	a3,72(sp)
    8c48:	0785                	addi	a5,a5,1
    8c4a:	068cc263          	blt	s9,s0,8cae <_svfiprintf_r+0x84e>
    8c4e:	c340                	sw	s0,4(a4)
    8c50:	9436                	add	s0,s0,a3
    8c52:	c4a2                	sw	s0,72(sp)
    8c54:	c2be                	sw	a5,68(sp)
    8c56:	471d                	li	a4,7
    8c58:	d6f756e3          	ble	a5,a4,89c4 <_svfiprintf_r+0x564>
    8c5c:	0090                	addi	a2,sp,64
    8c5e:	85ca                	mv	a1,s2
    8c60:	8556                	mv	a0,s5
    8c62:	ecaff0ef          	jal	ra,832c <__ssprint_r>
    8c66:	d4050fe3          	beqz	a0,89c4 <_svfiprintf_r+0x564>
    8c6a:	00c95783          	lhu	a5,12(s2)
    8c6e:	0407f793          	andi	a5,a5,64
    8c72:	840798e3          	bnez	a5,84c2 <_svfiprintf_r+0x62>
    8c76:	12c12083          	lw	ra,300(sp)
    8c7a:	12812403          	lw	s0,296(sp)
    8c7e:	855e                	mv	a0,s7
    8c80:	12412483          	lw	s1,292(sp)
    8c84:	12012903          	lw	s2,288(sp)
    8c88:	11c12983          	lw	s3,284(sp)
    8c8c:	11812a03          	lw	s4,280(sp)
    8c90:	11412a83          	lw	s5,276(sp)
    8c94:	11012b03          	lw	s6,272(sp)
    8c98:	10c12b83          	lw	s7,268(sp)
    8c9c:	10812c03          	lw	s8,264(sp)
    8ca0:	10412c83          	lw	s9,260(sp)
    8ca4:	10012d03          	lw	s10,256(sp)
    8ca8:	5dfe                	lw	s11,252(sp)
    8caa:	6155                	addi	sp,sp,304
    8cac:	8082                	ret
    8cae:	06c1                	addi	a3,a3,16
    8cb0:	01972223          	sw	s9,4(a4)
    8cb4:	c4b6                	sw	a3,72(sp)
    8cb6:	c2be                	sw	a5,68(sp)
    8cb8:	0721                	addi	a4,a4,8
    8cba:	00fdd963          	ble	a5,s11,8ccc <_svfiprintf_r+0x86c>
    8cbe:	0090                	addi	a2,sp,64
    8cc0:	85ca                	mv	a1,s2
    8cc2:	8556                	mv	a0,s5
    8cc4:	e68ff0ef          	jal	ra,832c <__ssprint_r>
    8cc8:	f14d                	bnez	a0,8c6a <_svfiprintf_r+0x80a>
    8cca:	875a                	mv	a4,s6
    8ccc:	1441                	addi	s0,s0,-16
    8cce:	bf95                	j	8c42 <_svfiprintf_r+0x7e2>
    8cd0:	47a6                	lw	a5,72(sp)
    8cd2:	dfc1                	beqz	a5,8c6a <_svfiprintf_r+0x80a>
    8cd4:	0090                	addi	a2,sp,64
    8cd6:	85ca                	mv	a1,s2
    8cd8:	8556                	mv	a0,s5
    8cda:	e52ff0ef          	jal	ra,832c <__ssprint_r>
    8cde:	b771                	j	8c6a <_svfiprintf_r+0x80a>

00008ce0 <__swbuf_r>:
    8ce0:	1101                	addi	sp,sp,-32
    8ce2:	cc22                	sw	s0,24(sp)
    8ce4:	ca26                	sw	s1,20(sp)
    8ce6:	c84a                	sw	s2,16(sp)
    8ce8:	ce06                	sw	ra,28(sp)
    8cea:	c64e                	sw	s3,12(sp)
    8cec:	892a                	mv	s2,a0
    8cee:	84ae                	mv	s1,a1
    8cf0:	8432                	mv	s0,a2
    8cf2:	c509                	beqz	a0,8cfc <__swbuf_r+0x1c>
    8cf4:	5d1c                	lw	a5,56(a0)
    8cf6:	e399                	bnez	a5,8cfc <__swbuf_r+0x1c>
    8cf8:	d5bf90ef          	jal	ra,2a52 <__sinit>
    8cfc:	4c1c                	lw	a5,24(s0)
    8cfe:	c41c                	sw	a5,8(s0)
    8d00:	00c45783          	lhu	a5,12(s0)
    8d04:	8ba1                	andi	a5,a5,8
    8d06:	c3b5                	beqz	a5,8d6a <__swbuf_r+0x8a>
    8d08:	481c                	lw	a5,16(s0)
    8d0a:	c3a5                	beqz	a5,8d6a <__swbuf_r+0x8a>
    8d0c:	00c41783          	lh	a5,12(s0)
    8d10:	0ff4f993          	andi	s3,s1,255
    8d14:	01279713          	slli	a4,a5,0x12
    8d18:	0ff4f493          	andi	s1,s1,255
    8d1c:	06075563          	bgez	a4,8d86 <__swbuf_r+0xa6>
    8d20:	481c                	lw	a5,16(s0)
    8d22:	4008                	lw	a0,0(s0)
    8d24:	8d1d                	sub	a0,a0,a5
    8d26:	485c                	lw	a5,20(s0)
    8d28:	00f54763          	blt	a0,a5,8d36 <__swbuf_r+0x56>
    8d2c:	85a2                	mv	a1,s0
    8d2e:	854a                	mv	a0,s2
    8d30:	c0ff90ef          	jal	ra,293e <_fflush_r>
    8d34:	e121                	bnez	a0,8d74 <__swbuf_r+0x94>
    8d36:	441c                	lw	a5,8(s0)
    8d38:	0505                	addi	a0,a0,1
    8d3a:	17fd                	addi	a5,a5,-1
    8d3c:	c41c                	sw	a5,8(s0)
    8d3e:	401c                	lw	a5,0(s0)
    8d40:	00178713          	addi	a4,a5,1
    8d44:	c018                	sw	a4,0(s0)
    8d46:	01378023          	sb	s3,0(a5)
    8d4a:	485c                	lw	a5,20(s0)
    8d4c:	00a78963          	beq	a5,a0,8d5e <__swbuf_r+0x7e>
    8d50:	00c45783          	lhu	a5,12(s0)
    8d54:	8b85                	andi	a5,a5,1
    8d56:	c385                	beqz	a5,8d76 <__swbuf_r+0x96>
    8d58:	47a9                	li	a5,10
    8d5a:	00f49e63          	bne	s1,a5,8d76 <__swbuf_r+0x96>
    8d5e:	85a2                	mv	a1,s0
    8d60:	854a                	mv	a0,s2
    8d62:	bddf90ef          	jal	ra,293e <_fflush_r>
    8d66:	c901                	beqz	a0,8d76 <__swbuf_r+0x96>
    8d68:	a031                	j	8d74 <__swbuf_r+0x94>
    8d6a:	85a2                	mv	a1,s0
    8d6c:	854a                	mv	a0,s2
    8d6e:	897f90ef          	jal	ra,2604 <__swsetup_r>
    8d72:	dd49                	beqz	a0,8d0c <__swbuf_r+0x2c>
    8d74:	54fd                	li	s1,-1
    8d76:	40f2                	lw	ra,28(sp)
    8d78:	4462                	lw	s0,24(sp)
    8d7a:	8526                	mv	a0,s1
    8d7c:	4942                	lw	s2,16(sp)
    8d7e:	44d2                	lw	s1,20(sp)
    8d80:	49b2                	lw	s3,12(sp)
    8d82:	6105                	addi	sp,sp,32
    8d84:	8082                	ret
    8d86:	6709                	lui	a4,0x2
    8d88:	8fd9                	or	a5,a5,a4
    8d8a:	00f41623          	sh	a5,12(s0)
    8d8e:	7779                	lui	a4,0xffffe
    8d90:	507c                	lw	a5,100(s0)
    8d92:	177d                	addi	a4,a4,-1
    8d94:	8ff9                	and	a5,a5,a4
    8d96:	d07c                	sw	a5,100(s0)
    8d98:	b761                	j	8d20 <__swbuf_r+0x40>

00008d9a <__swbuf>:
    8d9a:	862e                	mv	a2,a1
    8d9c:	85aa                	mv	a1,a0
    8d9e:	1c01a503          	lw	a0,448(gp) # e038 <_impure_ptr>
    8da2:	bf3d                	j	8ce0 <__swbuf_r>

00008da4 <_wcrtomb_r>:
    8da4:	1101                	addi	sp,sp,-32
    8da6:	1c01a783          	lw	a5,448(gp) # e038 <_impure_ptr>
    8daa:	cc22                	sw	s0,24(sp)
    8dac:	ca26                	sw	s1,20(sp)
    8dae:	ce06                	sw	ra,28(sp)
    8db0:	842a                	mv	s0,a0
    8db2:	84b6                	mv	s1,a3
    8db4:	5bdc                	lw	a5,52(a5)
    8db6:	e985                	bnez	a1,8de6 <_wcrtomb_r+0x42>
    8db8:	e399                	bnez	a5,8dbe <_wcrtomb_r+0x1a>
    8dba:	c2818793          	addi	a5,gp,-984 # daa0 <__global_locale>
    8dbe:	0e07a783          	lw	a5,224(a5)
    8dc2:	86a6                	mv	a3,s1
    8dc4:	4601                	li	a2,0
    8dc6:	004c                	addi	a1,sp,4
    8dc8:	8522                	mv	a0,s0
    8dca:	9782                	jalr	a5
    8dcc:	57fd                	li	a5,-1
    8dce:	00f51763          	bne	a0,a5,8ddc <_wcrtomb_r+0x38>
    8dd2:	0004a023          	sw	zero,0(s1)
    8dd6:	08a00793          	li	a5,138
    8dda:	c01c                	sw	a5,0(s0)
    8ddc:	40f2                	lw	ra,28(sp)
    8dde:	4462                	lw	s0,24(sp)
    8de0:	44d2                	lw	s1,20(sp)
    8de2:	6105                	addi	sp,sp,32
    8de4:	8082                	ret
    8de6:	e399                	bnez	a5,8dec <_wcrtomb_r+0x48>
    8de8:	c2818793          	addi	a5,gp,-984 # daa0 <__global_locale>
    8dec:	0e07a783          	lw	a5,224(a5)
    8df0:	86a6                	mv	a3,s1
    8df2:	bfd9                	j	8dc8 <_wcrtomb_r+0x24>

00008df4 <wcrtomb>:
    8df4:	86b2                	mv	a3,a2
    8df6:	862e                	mv	a2,a1
    8df8:	85aa                	mv	a1,a0
    8dfa:	1c01a503          	lw	a0,448(gp) # e038 <_impure_ptr>
    8dfe:	b75d                	j	8da4 <_wcrtomb_r>

00008e00 <__udivdi3>:
    8e00:	87ae                	mv	a5,a1
    8e02:	8832                	mv	a6,a2
    8e04:	88b6                	mv	a7,a3
    8e06:	832a                	mv	t1,a0
    8e08:	20069563          	bnez	a3,9012 <__udivdi3+0x212>
    8e0c:	6735                	lui	a4,0xd
    8e0e:	53c70713          	addi	a4,a4,1340 # d53c <__clz_tab>
    8e12:	0ac5fe63          	bleu	a2,a1,8ece <__udivdi3+0xce>
    8e16:	66c1                	lui	a3,0x10
    8e18:	0ad67463          	bleu	a3,a2,8ec0 <__udivdi3+0xc0>
    8e1c:	0ff00693          	li	a3,255
    8e20:	00c6b6b3          	sltu	a3,a3,a2
    8e24:	068e                	slli	a3,a3,0x3
    8e26:	00d658b3          	srl	a7,a2,a3
    8e2a:	9746                	add	a4,a4,a7
    8e2c:	00074703          	lbu	a4,0(a4)
    8e30:	96ba                	add	a3,a3,a4
    8e32:	02000713          	li	a4,32
    8e36:	8f15                	sub	a4,a4,a3
    8e38:	cb19                	beqz	a4,8e4e <__udivdi3+0x4e>
    8e3a:	00e797b3          	sll	a5,a5,a4
    8e3e:	00d556b3          	srl	a3,a0,a3
    8e42:	00e61833          	sll	a6,a2,a4
    8e46:	00f6e5b3          	or	a1,a3,a5
    8e4a:	00e51333          	sll	t1,a0,a4
    8e4e:	01085513          	srli	a0,a6,0x10
    8e52:	02a5f733          	remu	a4,a1,a0
    8e56:	02a5d7b3          	divu	a5,a1,a0
    8e5a:	01081613          	slli	a2,a6,0x10
    8e5e:	0742                	slli	a4,a4,0x10
    8e60:	8241                	srli	a2,a2,0x10
    8e62:	01035693          	srli	a3,t1,0x10
    8e66:	8ed9                	or	a3,a3,a4
    8e68:	02f605b3          	mul	a1,a2,a5
    8e6c:	873e                	mv	a4,a5
    8e6e:	00b6fc63          	bleu	a1,a3,8e86 <__udivdi3+0x86>
    8e72:	96c2                	add	a3,a3,a6
    8e74:	fff78713          	addi	a4,a5,-1
    8e78:	0106e763          	bltu	a3,a6,8e86 <__udivdi3+0x86>
    8e7c:	00b6f563          	bleu	a1,a3,8e86 <__udivdi3+0x86>
    8e80:	ffe78713          	addi	a4,a5,-2
    8e84:	96c2                	add	a3,a3,a6
    8e86:	8e8d                	sub	a3,a3,a1
    8e88:	02a6f7b3          	remu	a5,a3,a0
    8e8c:	02a6d6b3          	divu	a3,a3,a0
    8e90:	0342                	slli	t1,t1,0x10
    8e92:	07c2                	slli	a5,a5,0x10
    8e94:	01035313          	srli	t1,t1,0x10
    8e98:	02d605b3          	mul	a1,a2,a3
    8e9c:	0067e333          	or	t1,a5,t1
    8ea0:	8536                	mv	a0,a3
    8ea2:	00b37b63          	bleu	a1,t1,8eb8 <__udivdi3+0xb8>
    8ea6:	9342                	add	t1,t1,a6
    8ea8:	fff68513          	addi	a0,a3,-1 # ffff <__bss_end+0x1f7f>
    8eac:	01036663          	bltu	t1,a6,8eb8 <__udivdi3+0xb8>
    8eb0:	00b37463          	bleu	a1,t1,8eb8 <__udivdi3+0xb8>
    8eb4:	ffe68513          	addi	a0,a3,-2
    8eb8:	0742                	slli	a4,a4,0x10
    8eba:	8f49                	or	a4,a4,a0
    8ebc:	4581                	li	a1,0
    8ebe:	a84d                	j	8f70 <__udivdi3+0x170>
    8ec0:	010008b7          	lui	a7,0x1000
    8ec4:	46c1                	li	a3,16
    8ec6:	f71660e3          	bltu	a2,a7,8e26 <__udivdi3+0x26>
    8eca:	46e1                	li	a3,24
    8ecc:	bfa9                	j	8e26 <__udivdi3+0x26>
    8ece:	e601                	bnez	a2,8ed6 <__udivdi3+0xd6>
    8ed0:	4685                	li	a3,1
    8ed2:	02c6d833          	divu	a6,a3,a2
    8ed6:	66c1                	lui	a3,0x10
    8ed8:	08d87e63          	bleu	a3,a6,8f74 <__udivdi3+0x174>
    8edc:	0ff00693          	li	a3,255
    8ee0:	0106f363          	bleu	a6,a3,8ee6 <__udivdi3+0xe6>
    8ee4:	48a1                	li	a7,8
    8ee6:	011856b3          	srl	a3,a6,a7
    8eea:	9736                	add	a4,a4,a3
    8eec:	00074683          	lbu	a3,0(a4)
    8ef0:	02000713          	li	a4,32
    8ef4:	96c6                	add	a3,a3,a7
    8ef6:	8f15                	sub	a4,a4,a3
    8ef8:	e749                	bnez	a4,8f82 <__udivdi3+0x182>
    8efa:	410787b3          	sub	a5,a5,a6
    8efe:	4585                	li	a1,1
    8f00:	01085613          	srli	a2,a6,0x10
    8f04:	02c7f733          	remu	a4,a5,a2
    8f08:	02c7d7b3          	divu	a5,a5,a2
    8f0c:	01081893          	slli	a7,a6,0x10
    8f10:	0742                	slli	a4,a4,0x10
    8f12:	0108d893          	srli	a7,a7,0x10
    8f16:	01035693          	srli	a3,t1,0x10
    8f1a:	8ed9                	or	a3,a3,a4
    8f1c:	02f88533          	mul	a0,a7,a5
    8f20:	873e                	mv	a4,a5
    8f22:	00a6fc63          	bleu	a0,a3,8f3a <__udivdi3+0x13a>
    8f26:	96c2                	add	a3,a3,a6
    8f28:	fff78713          	addi	a4,a5,-1
    8f2c:	0106e763          	bltu	a3,a6,8f3a <__udivdi3+0x13a>
    8f30:	00a6f563          	bleu	a0,a3,8f3a <__udivdi3+0x13a>
    8f34:	ffe78713          	addi	a4,a5,-2
    8f38:	96c2                	add	a3,a3,a6
    8f3a:	8e89                	sub	a3,a3,a0
    8f3c:	02c6f7b3          	remu	a5,a3,a2
    8f40:	02c6d6b3          	divu	a3,a3,a2
    8f44:	0342                	slli	t1,t1,0x10
    8f46:	07c2                	slli	a5,a5,0x10
    8f48:	01035313          	srli	t1,t1,0x10
    8f4c:	02d888b3          	mul	a7,a7,a3
    8f50:	0067e333          	or	t1,a5,t1
    8f54:	8536                	mv	a0,a3
    8f56:	01137b63          	bleu	a7,t1,8f6c <__udivdi3+0x16c>
    8f5a:	9342                	add	t1,t1,a6
    8f5c:	fff68513          	addi	a0,a3,-1 # ffff <__bss_end+0x1f7f>
    8f60:	01036663          	bltu	t1,a6,8f6c <__udivdi3+0x16c>
    8f64:	01137463          	bleu	a7,t1,8f6c <__udivdi3+0x16c>
    8f68:	ffe68513          	addi	a0,a3,-2
    8f6c:	0742                	slli	a4,a4,0x10
    8f6e:	8f49                	or	a4,a4,a0
    8f70:	853a                	mv	a0,a4
    8f72:	8082                	ret
    8f74:	010006b7          	lui	a3,0x1000
    8f78:	48c1                	li	a7,16
    8f7a:	f6d866e3          	bltu	a6,a3,8ee6 <__udivdi3+0xe6>
    8f7e:	48e1                	li	a7,24
    8f80:	b79d                	j	8ee6 <__udivdi3+0xe6>
    8f82:	00e81833          	sll	a6,a6,a4
    8f86:	00d7d5b3          	srl	a1,a5,a3
    8f8a:	00e51333          	sll	t1,a0,a4
    8f8e:	00d556b3          	srl	a3,a0,a3
    8f92:	01085513          	srli	a0,a6,0x10
    8f96:	00e797b3          	sll	a5,a5,a4
    8f9a:	02a5f733          	remu	a4,a1,a0
    8f9e:	02a5d5b3          	divu	a1,a1,a0
    8fa2:	00f6e8b3          	or	a7,a3,a5
    8fa6:	01081793          	slli	a5,a6,0x10
    8faa:	0108d613          	srli	a2,a7,0x10
    8fae:	83c1                	srli	a5,a5,0x10
    8fb0:	0742                	slli	a4,a4,0x10
    8fb2:	8f51                	or	a4,a4,a2
    8fb4:	02b786b3          	mul	a3,a5,a1
    8fb8:	862e                	mv	a2,a1
    8fba:	00d77c63          	bleu	a3,a4,8fd2 <__udivdi3+0x1d2>
    8fbe:	9742                	add	a4,a4,a6
    8fc0:	fff58613          	addi	a2,a1,-1
    8fc4:	01076763          	bltu	a4,a6,8fd2 <__udivdi3+0x1d2>
    8fc8:	00d77563          	bleu	a3,a4,8fd2 <__udivdi3+0x1d2>
    8fcc:	ffe58613          	addi	a2,a1,-2
    8fd0:	9742                	add	a4,a4,a6
    8fd2:	40d706b3          	sub	a3,a4,a3
    8fd6:	02a6f733          	remu	a4,a3,a0
    8fda:	02a6d6b3          	divu	a3,a3,a0
    8fde:	08c2                	slli	a7,a7,0x10
    8fe0:	0742                	slli	a4,a4,0x10
    8fe2:	0108d893          	srli	a7,a7,0x10
    8fe6:	02d785b3          	mul	a1,a5,a3
    8fea:	011767b3          	or	a5,a4,a7
    8fee:	8736                	mv	a4,a3
    8ff0:	00b7fc63          	bleu	a1,a5,9008 <__udivdi3+0x208>
    8ff4:	97c2                	add	a5,a5,a6
    8ff6:	fff68713          	addi	a4,a3,-1 # ffffff <__heap_end+0xbfffff>
    8ffa:	0107e763          	bltu	a5,a6,9008 <__udivdi3+0x208>
    8ffe:	00b7f563          	bleu	a1,a5,9008 <__udivdi3+0x208>
    9002:	ffe68713          	addi	a4,a3,-2
    9006:	97c2                	add	a5,a5,a6
    9008:	8f8d                	sub	a5,a5,a1
    900a:	01061593          	slli	a1,a2,0x10
    900e:	8dd9                	or	a1,a1,a4
    9010:	bdc5                	j	8f00 <__udivdi3+0x100>
    9012:	14d5e163          	bltu	a1,a3,9154 <__udivdi3+0x354>
    9016:	6741                	lui	a4,0x10
    9018:	02e6fd63          	bleu	a4,a3,9052 <__udivdi3+0x252>
    901c:	0ff00813          	li	a6,255
    9020:	00d83733          	sltu	a4,a6,a3
    9024:	070e                	slli	a4,a4,0x3
    9026:	6835                	lui	a6,0xd
    9028:	53c80813          	addi	a6,a6,1340 # d53c <__clz_tab>
    902c:	00e6d5b3          	srl	a1,a3,a4
    9030:	95c2                	add	a1,a1,a6
    9032:	0005c803          	lbu	a6,0(a1)
    9036:	02000593          	li	a1,32
    903a:	983a                	add	a6,a6,a4
    903c:	410585b3          	sub	a1,a1,a6
    9040:	e185                	bnez	a1,9060 <__udivdi3+0x260>
    9042:	4705                	li	a4,1
    9044:	f2f6e6e3          	bltu	a3,a5,8f70 <__udivdi3+0x170>
    9048:	00c53533          	sltu	a0,a0,a2
    904c:	00154713          	xori	a4,a0,1
    9050:	b705                	j	8f70 <__udivdi3+0x170>
    9052:	010005b7          	lui	a1,0x1000
    9056:	4741                	li	a4,16
    9058:	fcb6e7e3          	bltu	a3,a1,9026 <__udivdi3+0x226>
    905c:	4761                	li	a4,24
    905e:	b7e1                	j	9026 <__udivdi3+0x226>
    9060:	01065733          	srl	a4,a2,a6
    9064:	00b696b3          	sll	a3,a3,a1
    9068:	8ed9                	or	a3,a3,a4
    906a:	0106de93          	srli	t4,a3,0x10
    906e:	0107d733          	srl	a4,a5,a6
    9072:	03d778b3          	remu	a7,a4,t4
    9076:	00b797b3          	sll	a5,a5,a1
    907a:	01055833          	srl	a6,a0,a6
    907e:	03d75733          	divu	a4,a4,t4
    9082:	00f86333          	or	t1,a6,a5
    9086:	01069793          	slli	a5,a3,0x10
    908a:	83c1                	srli	a5,a5,0x10
    908c:	08c2                	slli	a7,a7,0x10
    908e:	01035813          	srli	a6,t1,0x10
    9092:	02e78f33          	mul	t5,a5,a4
    9096:	0108e833          	or	a6,a7,a6
    909a:	00b61633          	sll	a2,a2,a1
    909e:	8e3a                	mv	t3,a4
    90a0:	01e87c63          	bleu	t5,a6,90b8 <__udivdi3+0x2b8>
    90a4:	9836                	add	a6,a6,a3
    90a6:	fff70e13          	addi	t3,a4,-1 # ffff <__bss_end+0x1f7f>
    90aa:	00d86763          	bltu	a6,a3,90b8 <__udivdi3+0x2b8>
    90ae:	01e87563          	bleu	t5,a6,90b8 <__udivdi3+0x2b8>
    90b2:	ffe70e13          	addi	t3,a4,-2
    90b6:	9836                	add	a6,a6,a3
    90b8:	41e80833          	sub	a6,a6,t5
    90bc:	03d878b3          	remu	a7,a6,t4
    90c0:	03d85833          	divu	a6,a6,t4
    90c4:	03078eb3          	mul	t4,a5,a6
    90c8:	01031793          	slli	a5,t1,0x10
    90cc:	08c2                	slli	a7,a7,0x10
    90ce:	83c1                	srli	a5,a5,0x10
    90d0:	00f8e7b3          	or	a5,a7,a5
    90d4:	8742                	mv	a4,a6
    90d6:	01d7fc63          	bleu	t4,a5,90ee <__udivdi3+0x2ee>
    90da:	97b6                	add	a5,a5,a3
    90dc:	fff80713          	addi	a4,a6,-1
    90e0:	00d7e763          	bltu	a5,a3,90ee <__udivdi3+0x2ee>
    90e4:	01d7f563          	bleu	t4,a5,90ee <__udivdi3+0x2ee>
    90e8:	ffe80713          	addi	a4,a6,-2
    90ec:	97b6                	add	a5,a5,a3
    90ee:	0e42                	slli	t3,t3,0x10
    90f0:	41d787b3          	sub	a5,a5,t4
    90f4:	6ec1                	lui	t4,0x10
    90f6:	00ee6733          	or	a4,t3,a4
    90fa:	fffe8813          	addi	a6,t4,-1 # ffff <__bss_end+0x1f7f>
    90fe:	01077333          	and	t1,a4,a6
    9102:	01075893          	srli	a7,a4,0x10
    9106:	01067833          	and	a6,a2,a6
    910a:	8241                	srli	a2,a2,0x10
    910c:	03030e33          	mul	t3,t1,a6
    9110:	03088833          	mul	a6,a7,a6
    9114:	02c30333          	mul	t1,t1,a2
    9118:	9342                	add	t1,t1,a6
    911a:	010e5693          	srli	a3,t3,0x10
    911e:	969a                	add	a3,a3,t1
    9120:	02c888b3          	mul	a7,a7,a2
    9124:	0106f363          	bleu	a6,a3,912a <__udivdi3+0x32a>
    9128:	98f6                	add	a7,a7,t4
    912a:	0106d613          	srli	a2,a3,0x10
    912e:	98b2                	add	a7,a7,a2
    9130:	0317e063          	bltu	a5,a7,9150 <__udivdi3+0x350>
    9134:	d91794e3          	bne	a5,a7,8ebc <__udivdi3+0xbc>
    9138:	67c1                	lui	a5,0x10
    913a:	17fd                	addi	a5,a5,-1
    913c:	8efd                	and	a3,a3,a5
    913e:	06c2                	slli	a3,a3,0x10
    9140:	00fe7e33          	and	t3,t3,a5
    9144:	00b51533          	sll	a0,a0,a1
    9148:	96f2                	add	a3,a3,t3
    914a:	4581                	li	a1,0
    914c:	e2d572e3          	bleu	a3,a0,8f70 <__udivdi3+0x170>
    9150:	177d                	addi	a4,a4,-1
    9152:	b3ad                	j	8ebc <__udivdi3+0xbc>
    9154:	4581                	li	a1,0
    9156:	4701                	li	a4,0
    9158:	bd21                	j	8f70 <__udivdi3+0x170>

0000915a <__umoddi3>:
    915a:	88b2                	mv	a7,a2
    915c:	8736                	mv	a4,a3
    915e:	87aa                	mv	a5,a0
    9160:	882e                	mv	a6,a1
    9162:	1c069763          	bnez	a3,9330 <__umoddi3+0x1d6>
    9166:	66b5                	lui	a3,0xd
    9168:	53c68693          	addi	a3,a3,1340 # d53c <__clz_tab>
    916c:	0ac5f863          	bleu	a2,a1,921c <__umoddi3+0xc2>
    9170:	6341                	lui	t1,0x10
    9172:	08667e63          	bleu	t1,a2,920e <__umoddi3+0xb4>
    9176:	0ff00313          	li	t1,255
    917a:	00c37363          	bleu	a2,t1,9180 <__umoddi3+0x26>
    917e:	4721                	li	a4,8
    9180:	00e65333          	srl	t1,a2,a4
    9184:	969a                	add	a3,a3,t1
    9186:	0006ce03          	lbu	t3,0(a3)
    918a:	02000313          	li	t1,32
    918e:	9e3a                	add	t3,t3,a4
    9190:	41c30333          	sub	t1,t1,t3
    9194:	00030c63          	beqz	t1,91ac <__umoddi3+0x52>
    9198:	006595b3          	sll	a1,a1,t1
    919c:	01c55e33          	srl	t3,a0,t3
    91a0:	006618b3          	sll	a7,a2,t1
    91a4:	00be6833          	or	a6,t3,a1
    91a8:	006517b3          	sll	a5,a0,t1
    91ac:	0108d613          	srli	a2,a7,0x10
    91b0:	02c87733          	remu	a4,a6,a2
    91b4:	02c85833          	divu	a6,a6,a2
    91b8:	01089513          	slli	a0,a7,0x10
    91bc:	8141                	srli	a0,a0,0x10
    91be:	0742                	slli	a4,a4,0x10
    91c0:	0107d693          	srli	a3,a5,0x10
    91c4:	03050833          	mul	a6,a0,a6
    91c8:	8ed9                	or	a3,a3,a4
    91ca:	0106f863          	bleu	a6,a3,91da <__umoddi3+0x80>
    91ce:	96c6                	add	a3,a3,a7
    91d0:	0116e563          	bltu	a3,a7,91da <__umoddi3+0x80>
    91d4:	0106f363          	bleu	a6,a3,91da <__umoddi3+0x80>
    91d8:	96c6                	add	a3,a3,a7
    91da:	410686b3          	sub	a3,a3,a6
    91de:	02c6f733          	remu	a4,a3,a2
    91e2:	02c6d6b3          	divu	a3,a3,a2
    91e6:	07c2                	slli	a5,a5,0x10
    91e8:	02d506b3          	mul	a3,a0,a3
    91ec:	83c1                	srli	a5,a5,0x10
    91ee:	01071513          	slli	a0,a4,0x10
    91f2:	8fc9                	or	a5,a5,a0
    91f4:	00d7f863          	bleu	a3,a5,9204 <__umoddi3+0xaa>
    91f8:	97c6                	add	a5,a5,a7
    91fa:	0117e563          	bltu	a5,a7,9204 <__umoddi3+0xaa>
    91fe:	00d7f363          	bleu	a3,a5,9204 <__umoddi3+0xaa>
    9202:	97c6                	add	a5,a5,a7
    9204:	8f95                	sub	a5,a5,a3
    9206:	0067d533          	srl	a0,a5,t1
    920a:	4581                	li	a1,0
    920c:	8082                	ret
    920e:	01000337          	lui	t1,0x1000
    9212:	4741                	li	a4,16
    9214:	f66666e3          	bltu	a2,t1,9180 <__umoddi3+0x26>
    9218:	4761                	li	a4,24
    921a:	b79d                	j	9180 <__umoddi3+0x26>
    921c:	e601                	bnez	a2,9224 <__umoddi3+0xca>
    921e:	4605                	li	a2,1
    9220:	031658b3          	divu	a7,a2,a7
    9224:	6641                	lui	a2,0x10
    9226:	08c8f363          	bleu	a2,a7,92ac <__umoddi3+0x152>
    922a:	0ff00613          	li	a2,255
    922e:	01167363          	bleu	a7,a2,9234 <__umoddi3+0xda>
    9232:	4721                	li	a4,8
    9234:	00e8d633          	srl	a2,a7,a4
    9238:	96b2                	add	a3,a3,a2
    923a:	0006ce03          	lbu	t3,0(a3)
    923e:	02000313          	li	t1,32
    9242:	9e3a                	add	t3,t3,a4
    9244:	41c30333          	sub	t1,t1,t3
    9248:	06031963          	bnez	t1,92ba <__umoddi3+0x160>
    924c:	411585b3          	sub	a1,a1,a7
    9250:	0108d713          	srli	a4,a7,0x10
    9254:	02e5f6b3          	remu	a3,a1,a4
    9258:	02e5d5b3          	divu	a1,a1,a4
    925c:	01089513          	slli	a0,a7,0x10
    9260:	8141                	srli	a0,a0,0x10
    9262:	06c2                	slli	a3,a3,0x10
    9264:	0107d613          	srli	a2,a5,0x10
    9268:	02b505b3          	mul	a1,a0,a1
    926c:	8ed1                	or	a3,a3,a2
    926e:	00b6f863          	bleu	a1,a3,927e <__umoddi3+0x124>
    9272:	96c6                	add	a3,a3,a7
    9274:	0116e563          	bltu	a3,a7,927e <__umoddi3+0x124>
    9278:	00b6f363          	bleu	a1,a3,927e <__umoddi3+0x124>
    927c:	96c6                	add	a3,a3,a7
    927e:	40b685b3          	sub	a1,a3,a1
    9282:	02e5f6b3          	remu	a3,a1,a4
    9286:	02e5d5b3          	divu	a1,a1,a4
    928a:	07c2                	slli	a5,a5,0x10
    928c:	02b505b3          	mul	a1,a0,a1
    9290:	83c1                	srli	a5,a5,0x10
    9292:	01069513          	slli	a0,a3,0x10
    9296:	8fc9                	or	a5,a5,a0
    9298:	00b7f863          	bleu	a1,a5,92a8 <__umoddi3+0x14e>
    929c:	97c6                	add	a5,a5,a7
    929e:	0117e563          	bltu	a5,a7,92a8 <__umoddi3+0x14e>
    92a2:	00b7f363          	bleu	a1,a5,92a8 <__umoddi3+0x14e>
    92a6:	97c6                	add	a5,a5,a7
    92a8:	8f8d                	sub	a5,a5,a1
    92aa:	bfb1                	j	9206 <__umoddi3+0xac>
    92ac:	01000637          	lui	a2,0x1000
    92b0:	4741                	li	a4,16
    92b2:	f8c8e1e3          	bltu	a7,a2,9234 <__umoddi3+0xda>
    92b6:	4761                	li	a4,24
    92b8:	bfb5                	j	9234 <__umoddi3+0xda>
    92ba:	006898b3          	sll	a7,a7,t1
    92be:	01c5d733          	srl	a4,a1,t3
    92c2:	006517b3          	sll	a5,a0,t1
    92c6:	01c55e33          	srl	t3,a0,t3
    92ca:	0108d513          	srli	a0,a7,0x10
    92ce:	02a776b3          	remu	a3,a4,a0
    92d2:	006595b3          	sll	a1,a1,t1
    92d6:	02a75733          	divu	a4,a4,a0
    92da:	00be6e33          	or	t3,t3,a1
    92de:	01089593          	slli	a1,a7,0x10
    92e2:	81c1                	srli	a1,a1,0x10
    92e4:	06c2                	slli	a3,a3,0x10
    92e6:	010e5613          	srli	a2,t3,0x10
    92ea:	02e58733          	mul	a4,a1,a4
    92ee:	8ed1                	or	a3,a3,a2
    92f0:	00e6f863          	bleu	a4,a3,9300 <__umoddi3+0x1a6>
    92f4:	96c6                	add	a3,a3,a7
    92f6:	0116e563          	bltu	a3,a7,9300 <__umoddi3+0x1a6>
    92fa:	00e6f363          	bleu	a4,a3,9300 <__umoddi3+0x1a6>
    92fe:	96c6                	add	a3,a3,a7
    9300:	40e68633          	sub	a2,a3,a4
    9304:	02a676b3          	remu	a3,a2,a0
    9308:	02a65633          	divu	a2,a2,a0
    930c:	0e42                	slli	t3,t3,0x10
    930e:	06c2                	slli	a3,a3,0x10
    9310:	010e5e13          	srli	t3,t3,0x10
    9314:	02c58633          	mul	a2,a1,a2
    9318:	01c6e5b3          	or	a1,a3,t3
    931c:	00c5f863          	bleu	a2,a1,932c <__umoddi3+0x1d2>
    9320:	95c6                	add	a1,a1,a7
    9322:	0115e563          	bltu	a1,a7,932c <__umoddi3+0x1d2>
    9326:	00c5f363          	bleu	a2,a1,932c <__umoddi3+0x1d2>
    932a:	95c6                	add	a1,a1,a7
    932c:	8d91                	sub	a1,a1,a2
    932e:	b70d                	j	9250 <__umoddi3+0xf6>
    9330:	ecd5eee3          	bltu	a1,a3,920c <__umoddi3+0xb2>
    9334:	6741                	lui	a4,0x10
    9336:	04e6f463          	bleu	a4,a3,937e <__umoddi3+0x224>
    933a:	0ff00e93          	li	t4,255
    933e:	00deb733          	sltu	a4,t4,a3
    9342:	070e                	slli	a4,a4,0x3
    9344:	6335                	lui	t1,0xd
    9346:	00e6d8b3          	srl	a7,a3,a4
    934a:	53c30313          	addi	t1,t1,1340 # d53c <__clz_tab>
    934e:	989a                	add	a7,a7,t1
    9350:	0008ce83          	lbu	t4,0(a7) # 1000000 <__heap_end+0xc00000>
    9354:	02000e13          	li	t3,32
    9358:	9eba                	add	t4,t4,a4
    935a:	41de0e33          	sub	t3,t3,t4
    935e:	020e1763          	bnez	t3,938c <__umoddi3+0x232>
    9362:	00b6e463          	bltu	a3,a1,936a <__umoddi3+0x210>
    9366:	00c56963          	bltu	a0,a2,9378 <__umoddi3+0x21e>
    936a:	40c507b3          	sub	a5,a0,a2
    936e:	8d95                	sub	a1,a1,a3
    9370:	00f53533          	sltu	a0,a0,a5
    9374:	40a58833          	sub	a6,a1,a0
    9378:	853e                	mv	a0,a5
    937a:	85c2                	mv	a1,a6
    937c:	bd41                	j	920c <__umoddi3+0xb2>
    937e:	010008b7          	lui	a7,0x1000
    9382:	4741                	li	a4,16
    9384:	fd16e0e3          	bltu	a3,a7,9344 <__umoddi3+0x1ea>
    9388:	4761                	li	a4,24
    938a:	bf6d                	j	9344 <__umoddi3+0x1ea>
    938c:	01d65733          	srl	a4,a2,t4
    9390:	01c696b3          	sll	a3,a3,t3
    9394:	8ed9                	or	a3,a3,a4
    9396:	01d557b3          	srl	a5,a0,t4
    939a:	01d5d733          	srl	a4,a1,t4
    939e:	01c595b3          	sll	a1,a1,t3
    93a2:	8fcd                	or	a5,a5,a1
    93a4:	0106d593          	srli	a1,a3,0x10
    93a8:	02b77333          	remu	t1,a4,a1
    93ac:	02b75733          	divu	a4,a4,a1
    93b0:	01069f13          	slli	t5,a3,0x10
    93b4:	0342                	slli	t1,t1,0x10
    93b6:	010f5f13          	srli	t5,t5,0x10
    93ba:	0107d893          	srli	a7,a5,0x10
    93be:	011368b3          	or	a7,t1,a7
    93c2:	02ef0833          	mul	a6,t5,a4
    93c6:	01c61633          	sll	a2,a2,t3
    93ca:	01c51533          	sll	a0,a0,t3
    93ce:	833a                	mv	t1,a4
    93d0:	0108fc63          	bleu	a6,a7,93e8 <__umoddi3+0x28e>
    93d4:	98b6                	add	a7,a7,a3
    93d6:	fff70313          	addi	t1,a4,-1 # ffff <__bss_end+0x1f7f>
    93da:	00d8e763          	bltu	a7,a3,93e8 <__umoddi3+0x28e>
    93de:	0108f563          	bleu	a6,a7,93e8 <__umoddi3+0x28e>
    93e2:	ffe70313          	addi	t1,a4,-2
    93e6:	98b6                	add	a7,a7,a3
    93e8:	410888b3          	sub	a7,a7,a6
    93ec:	02b8ffb3          	remu	t6,a7,a1
    93f0:	02b8d8b3          	divu	a7,a7,a1
    93f4:	031f05b3          	mul	a1,t5,a7
    93f8:	01079f13          	slli	t5,a5,0x10
    93fc:	0fc2                	slli	t6,t6,0x10
    93fe:	010f5f13          	srli	t5,t5,0x10
    9402:	01efef33          	or	t5,t6,t5
    9406:	8746                	mv	a4,a7
    9408:	00bf7c63          	bleu	a1,t5,9420 <__umoddi3+0x2c6>
    940c:	9f36                	add	t5,t5,a3
    940e:	fff88713          	addi	a4,a7,-1 # ffffff <__heap_end+0xbfffff>
    9412:	00df6763          	bltu	t5,a3,9420 <__umoddi3+0x2c6>
    9416:	00bf7563          	bleu	a1,t5,9420 <__umoddi3+0x2c6>
    941a:	ffe88713          	addi	a4,a7,-2
    941e:	9f36                	add	t5,t5,a3
    9420:	0342                	slli	t1,t1,0x10
    9422:	68c1                	lui	a7,0x10
    9424:	00e36333          	or	t1,t1,a4
    9428:	fff88793          	addi	a5,a7,-1 # ffff <__bss_end+0x1f7f>
    942c:	01065813          	srli	a6,a2,0x10
    9430:	40bf0f33          	sub	t5,t5,a1
    9434:	00f375b3          	and	a1,t1,a5
    9438:	01035313          	srli	t1,t1,0x10
    943c:	8ff1                	and	a5,a5,a2
    943e:	02f58733          	mul	a4,a1,a5
    9442:	02f307b3          	mul	a5,t1,a5
    9446:	030585b3          	mul	a1,a1,a6
    944a:	03030333          	mul	t1,t1,a6
    944e:	95be                	add	a1,a1,a5
    9450:	01075813          	srli	a6,a4,0x10
    9454:	982e                	add	a6,a6,a1
    9456:	00f87363          	bleu	a5,a6,945c <__umoddi3+0x302>
    945a:	9346                	add	t1,t1,a7
    945c:	67c1                	lui	a5,0x10
    945e:	17fd                	addi	a5,a5,-1
    9460:	01085593          	srli	a1,a6,0x10
    9464:	00f87833          	and	a6,a6,a5
    9468:	0842                	slli	a6,a6,0x10
    946a:	8f7d                	and	a4,a4,a5
    946c:	959a                	add	a1,a1,t1
    946e:	9742                	add	a4,a4,a6
    9470:	00bf6663          	bltu	t5,a1,947c <__umoddi3+0x322>
    9474:	00bf1b63          	bne	t5,a1,948a <__umoddi3+0x330>
    9478:	00e57963          	bleu	a4,a0,948a <__umoddi3+0x330>
    947c:	40c70633          	sub	a2,a4,a2
    9480:	00c73733          	sltu	a4,a4,a2
    9484:	8d95                	sub	a1,a1,a3
    9486:	8d99                	sub	a1,a1,a4
    9488:	8732                	mv	a4,a2
    948a:	40e50733          	sub	a4,a0,a4
    948e:	00e53533          	sltu	a0,a0,a4
    9492:	40bf05b3          	sub	a1,t5,a1
    9496:	8d89                	sub	a1,a1,a0
    9498:	01d597b3          	sll	a5,a1,t4
    949c:	01c75733          	srl	a4,a4,t3
    94a0:	00e7e533          	or	a0,a5,a4
    94a4:	01c5d5b3          	srl	a1,a1,t3
    94a8:	b395                	j	920c <__umoddi3+0xb2>

000094aa <__divdf3>:
    94aa:	7179                	addi	sp,sp,-48
    94ac:	d422                	sw	s0,40(sp)
    94ae:	d226                	sw	s1,36(sp)
    94b0:	c85a                	sw	s6,16(sp)
    94b2:	842a                	mv	s0,a0
    94b4:	8b2a                	mv	s6,a0
    94b6:	001004b7          	lui	s1,0x100
    94ba:	0145d513          	srli	a0,a1,0x14
    94be:	d04a                	sw	s2,32(sp)
    94c0:	ce4e                	sw	s3,28(sp)
    94c2:	c65e                	sw	s7,12(sp)
    94c4:	14fd                	addi	s1,s1,-1
    94c6:	d606                	sw	ra,44(sp)
    94c8:	cc52                	sw	s4,24(sp)
    94ca:	ca56                	sw	s5,20(sp)
    94cc:	7ff57513          	andi	a0,a0,2047
    94d0:	8bb2                	mv	s7,a2
    94d2:	89b6                	mv	s3,a3
    94d4:	8ced                	and	s1,s1,a1
    94d6:	01f5d913          	srli	s2,a1,0x1f
    94da:	c149                	beqz	a0,955c <__divdf3+0xb2>
    94dc:	7ff00793          	li	a5,2047
    94e0:	0cf50963          	beq	a0,a5,95b2 <__divdf3+0x108>
    94e4:	048e                	slli	s1,s1,0x3
    94e6:	008006b7          	lui	a3,0x800
    94ea:	8cd5                	or	s1,s1,a3
    94ec:	01db5a93          	srli	s5,s6,0x1d
    94f0:	009aeab3          	or	s5,s5,s1
    94f4:	003b1413          	slli	s0,s6,0x3
    94f8:	c0150a13          	addi	s4,a0,-1023
    94fc:	4b01                	li	s6,0
    94fe:	0149d513          	srli	a0,s3,0x14
    9502:	001004b7          	lui	s1,0x100
    9506:	14fd                	addi	s1,s1,-1
    9508:	7ff57513          	andi	a0,a0,2047
    950c:	0134f4b3          	and	s1,s1,s3
    9510:	8fde                	mv	t6,s7
    9512:	01f9d993          	srli	s3,s3,0x1f
    9516:	c161                	beqz	a0,95d6 <__divdf3+0x12c>
    9518:	7ff00793          	li	a5,2047
    951c:	10f50563          	beq	a0,a5,9626 <__divdf3+0x17c>
    9520:	008007b7          	lui	a5,0x800
    9524:	048e                	slli	s1,s1,0x3
    9526:	8cdd                	or	s1,s1,a5
    9528:	01dbd793          	srli	a5,s7,0x1d
    952c:	8fc5                	or	a5,a5,s1
    952e:	003b9f93          	slli	t6,s7,0x3
    9532:	c0150513          	addi	a0,a0,-1023
    9536:	4701                	li	a4,0
    9538:	002b1693          	slli	a3,s6,0x2
    953c:	8ed9                	or	a3,a3,a4
    953e:	16fd                	addi	a3,a3,-1
    9540:	45b9                	li	a1,14
    9542:	01394633          	xor	a2,s2,s3
    9546:	40aa0533          	sub	a0,s4,a0
    954a:	0ed5ef63          	bltu	a1,a3,9648 <__divdf3+0x19e>
    954e:	65b5                	lui	a1,0xd
    9550:	068a                	slli	a3,a3,0x2
    9552:	48858593          	addi	a1,a1,1160 # d488 <zeroes.4346+0x10>
    9556:	96ae                	add	a3,a3,a1
    9558:	4294                	lw	a3,0(a3)
    955a:	8682                	jr	a3
    955c:	0164eab3          	or	s5,s1,s6
    9560:	060a8263          	beqz	s5,95c4 <__divdf3+0x11a>
    9564:	c89d                	beqz	s1,959a <__divdf3+0xf0>
    9566:	8526                	mv	a0,s1
    9568:	3ab020ef          	jal	ra,c112 <__clzsi2>
    956c:	ff550793          	addi	a5,a0,-11
    9570:	4771                	li	a4,28
    9572:	02f74a63          	blt	a4,a5,95a6 <__divdf3+0xfc>
    9576:	4af5                	li	s5,29
    9578:	ff850413          	addi	s0,a0,-8
    957c:	40fa8ab3          	sub	s5,s5,a5
    9580:	008494b3          	sll	s1,s1,s0
    9584:	015b5ab3          	srl	s5,s6,s5
    9588:	009aeab3          	or	s5,s5,s1
    958c:	008b1433          	sll	s0,s6,s0
    9590:	c0d00a13          	li	s4,-1011
    9594:	40aa0a33          	sub	s4,s4,a0
    9598:	b795                	j	94fc <__divdf3+0x52>
    959a:	855a                	mv	a0,s6
    959c:	377020ef          	jal	ra,c112 <__clzsi2>
    95a0:	02050513          	addi	a0,a0,32
    95a4:	b7e1                	j	956c <__divdf3+0xc2>
    95a6:	fd850493          	addi	s1,a0,-40
    95aa:	009b1ab3          	sll	s5,s6,s1
    95ae:	4401                	li	s0,0
    95b0:	b7c5                	j	9590 <__divdf3+0xe6>
    95b2:	0164eab3          	or	s5,s1,s6
    95b6:	000a8b63          	beqz	s5,95cc <__divdf3+0x122>
    95ba:	8aa6                	mv	s5,s1
    95bc:	7ff00a13          	li	s4,2047
    95c0:	4b0d                	li	s6,3
    95c2:	bf35                	j	94fe <__divdf3+0x54>
    95c4:	4401                	li	s0,0
    95c6:	4a01                	li	s4,0
    95c8:	4b05                	li	s6,1
    95ca:	bf15                	j	94fe <__divdf3+0x54>
    95cc:	4401                	li	s0,0
    95ce:	7ff00a13          	li	s4,2047
    95d2:	4b09                	li	s6,2
    95d4:	b72d                	j	94fe <__divdf3+0x54>
    95d6:	0174e7b3          	or	a5,s1,s7
    95da:	cfb1                	beqz	a5,9636 <__divdf3+0x18c>
    95dc:	c88d                	beqz	s1,960e <__divdf3+0x164>
    95de:	8526                	mv	a0,s1
    95e0:	333020ef          	jal	ra,c112 <__clzsi2>
    95e4:	ff550713          	addi	a4,a0,-11
    95e8:	47f1                	li	a5,28
    95ea:	02e7c863          	blt	a5,a4,961a <__divdf3+0x170>
    95ee:	47f5                	li	a5,29
    95f0:	ff850f93          	addi	t6,a0,-8
    95f4:	8f99                	sub	a5,a5,a4
    95f6:	01f494b3          	sll	s1,s1,t6
    95fa:	00fbd7b3          	srl	a5,s7,a5
    95fe:	8fc5                	or	a5,a5,s1
    9600:	01fb9fb3          	sll	t6,s7,t6
    9604:	c0d00613          	li	a2,-1011
    9608:	40a60533          	sub	a0,a2,a0
    960c:	b72d                	j	9536 <__divdf3+0x8c>
    960e:	855e                	mv	a0,s7
    9610:	303020ef          	jal	ra,c112 <__clzsi2>
    9614:	02050513          	addi	a0,a0,32
    9618:	b7f1                	j	95e4 <__divdf3+0x13a>
    961a:	fd850793          	addi	a5,a0,-40
    961e:	00fb97b3          	sll	a5,s7,a5
    9622:	4f81                	li	t6,0
    9624:	b7c5                	j	9604 <__divdf3+0x15a>
    9626:	0174e7b3          	or	a5,s1,s7
    962a:	cb91                	beqz	a5,963e <__divdf3+0x194>
    962c:	87a6                	mv	a5,s1
    962e:	7ff00513          	li	a0,2047
    9632:	470d                	li	a4,3
    9634:	b711                	j	9538 <__divdf3+0x8e>
    9636:	4f81                	li	t6,0
    9638:	4501                	li	a0,0
    963a:	4705                	li	a4,1
    963c:	bdf5                	j	9538 <__divdf3+0x8e>
    963e:	4f81                	li	t6,0
    9640:	7ff00513          	li	a0,2047
    9644:	4709                	li	a4,2
    9646:	bdcd                	j	9538 <__divdf3+0x8e>
    9648:	0157e663          	bltu	a5,s5,9654 <__divdf3+0x1aa>
    964c:	2afa9663          	bne	s5,a5,98f8 <__divdf3+0x44e>
    9650:	2bf46463          	bltu	s0,t6,98f8 <__divdf3+0x44e>
    9654:	01fa9593          	slli	a1,s5,0x1f
    9658:	00145693          	srli	a3,s0,0x1
    965c:	01f41713          	slli	a4,s0,0x1f
    9660:	001ada93          	srli	s5,s5,0x1
    9664:	00d5e433          	or	s0,a1,a3
    9668:	07a2                	slli	a5,a5,0x8
    966a:	018fd813          	srli	a6,t6,0x18
    966e:	00f86833          	or	a6,a6,a5
    9672:	01085e93          	srli	t4,a6,0x10
    9676:	03daf4b3          	remu	s1,s5,t4
    967a:	03dad5b3          	divu	a1,s5,t4
    967e:	01081e13          	slli	t3,a6,0x10
    9682:	010e5e13          	srli	t3,t3,0x10
    9686:	04c2                	slli	s1,s1,0x10
    9688:	01045693          	srli	a3,s0,0x10
    968c:	02be07b3          	mul	a5,t3,a1
    9690:	8ec5                	or	a3,a3,s1
    9692:	008f9893          	slli	a7,t6,0x8
    9696:	8fae                	mv	t6,a1
    9698:	00f6fc63          	bleu	a5,a3,96b0 <__divdf3+0x206>
    969c:	96c2                	add	a3,a3,a6
    969e:	fff58f93          	addi	t6,a1,-1
    96a2:	0106e763          	bltu	a3,a6,96b0 <__divdf3+0x206>
    96a6:	00f6f563          	bleu	a5,a3,96b0 <__divdf3+0x206>
    96aa:	ffe58f93          	addi	t6,a1,-2
    96ae:	96c2                	add	a3,a3,a6
    96b0:	8e9d                	sub	a3,a3,a5
    96b2:	03d6d333          	divu	t1,a3,t4
    96b6:	03d6f6b3          	remu	a3,a3,t4
    96ba:	0442                	slli	s0,s0,0x10
    96bc:	06c2                	slli	a3,a3,0x10
    96be:	8041                	srli	s0,s0,0x10
    96c0:	026e05b3          	mul	a1,t3,t1
    96c4:	8ec1                	or	a3,a3,s0
    96c6:	879a                	mv	a5,t1
    96c8:	00b6fc63          	bleu	a1,a3,96e0 <__divdf3+0x236>
    96cc:	96c2                	add	a3,a3,a6
    96ce:	fff30793          	addi	a5,t1,-1
    96d2:	0106e763          	bltu	a3,a6,96e0 <__divdf3+0x236>
    96d6:	00b6f563          	bleu	a1,a3,96e0 <__divdf3+0x236>
    96da:	ffe30793          	addi	a5,t1,-2
    96de:	96c2                	add	a3,a3,a6
    96e0:	40b68433          	sub	s0,a3,a1
    96e4:	0fc2                	slli	t6,t6,0x10
    96e6:	65c1                	lui	a1,0x10
    96e8:	00ffefb3          	or	t6,t6,a5
    96ec:	fff58313          	addi	t1,a1,-1 # ffff <__bss_end+0x1f7f>
    96f0:	010fd693          	srli	a3,t6,0x10
    96f4:	006ff7b3          	and	a5,t6,t1
    96f8:	0108df13          	srli	t5,a7,0x10
    96fc:	0068f333          	and	t1,a7,t1
    9700:	026783b3          	mul	t2,a5,t1
    9704:	026684b3          	mul	s1,a3,t1
    9708:	02ff07b3          	mul	a5,t5,a5
    970c:	03e682b3          	mul	t0,a3,t5
    9710:	009786b3          	add	a3,a5,s1
    9714:	0103d793          	srli	a5,t2,0x10
    9718:	97b6                	add	a5,a5,a3
    971a:	0097f363          	bleu	s1,a5,9720 <__divdf3+0x276>
    971e:	92ae                	add	t0,t0,a1
    9720:	0107d693          	srli	a3,a5,0x10
    9724:	9696                	add	a3,a3,t0
    9726:	62c1                	lui	t0,0x10
    9728:	12fd                	addi	t0,t0,-1
    972a:	0057f5b3          	and	a1,a5,t0
    972e:	05c2                	slli	a1,a1,0x10
    9730:	0053f3b3          	and	t2,t2,t0
    9734:	959e                	add	a1,a1,t2
    9736:	00d46763          	bltu	s0,a3,9744 <__divdf3+0x29a>
    973a:	87fe                	mv	a5,t6
    973c:	02d41e63          	bne	s0,a3,9778 <__divdf3+0x2ce>
    9740:	02b77c63          	bleu	a1,a4,9778 <__divdf3+0x2ce>
    9744:	9746                	add	a4,a4,a7
    9746:	011732b3          	sltu	t0,a4,a7
    974a:	92c2                	add	t0,t0,a6
    974c:	9416                	add	s0,s0,t0
    974e:	ffff8793          	addi	a5,t6,-1
    9752:	00886663          	bltu	a6,s0,975e <__divdf3+0x2b4>
    9756:	02881163          	bne	a6,s0,9778 <__divdf3+0x2ce>
    975a:	01176f63          	bltu	a4,a7,9778 <__divdf3+0x2ce>
    975e:	00d46663          	bltu	s0,a3,976a <__divdf3+0x2c0>
    9762:	00869b63          	bne	a3,s0,9778 <__divdf3+0x2ce>
    9766:	00b77963          	bleu	a1,a4,9778 <__divdf3+0x2ce>
    976a:	9746                	add	a4,a4,a7
    976c:	ffef8793          	addi	a5,t6,-2
    9770:	01173fb3          	sltu	t6,a4,a7
    9774:	9fc2                	add	t6,t6,a6
    9776:	947e                	add	s0,s0,t6
    9778:	40b705b3          	sub	a1,a4,a1
    977c:	8c15                	sub	s0,s0,a3
    977e:	00b73733          	sltu	a4,a4,a1
    9782:	8c19                	sub	s0,s0,a4
    9784:	5ffd                	li	t6,-1
    9786:	0e880663          	beq	a6,s0,9872 <__divdf3+0x3c8>
    978a:	03d452b3          	divu	t0,s0,t4
    978e:	03d47433          	remu	s0,s0,t4
    9792:	0105d693          	srli	a3,a1,0x10
    9796:	0442                	slli	s0,s0,0x10
    9798:	025e0fb3          	mul	t6,t3,t0
    979c:	8c55                	or	s0,s0,a3
    979e:	8716                	mv	a4,t0
    97a0:	01f47c63          	bleu	t6,s0,97b8 <__divdf3+0x30e>
    97a4:	9442                	add	s0,s0,a6
    97a6:	fff28713          	addi	a4,t0,-1 # ffff <__bss_end+0x1f7f>
    97aa:	01046763          	bltu	s0,a6,97b8 <__divdf3+0x30e>
    97ae:	01f47563          	bleu	t6,s0,97b8 <__divdf3+0x30e>
    97b2:	ffe28713          	addi	a4,t0,-2
    97b6:	9442                	add	s0,s0,a6
    97b8:	41f40433          	sub	s0,s0,t6
    97bc:	03d456b3          	divu	a3,s0,t4
    97c0:	03d47433          	remu	s0,s0,t4
    97c4:	05c2                	slli	a1,a1,0x10
    97c6:	81c1                	srli	a1,a1,0x10
    97c8:	0442                	slli	s0,s0,0x10
    97ca:	8c4d                	or	s0,s0,a1
    97cc:	02de0e33          	mul	t3,t3,a3
    97d0:	85b6                	mv	a1,a3
    97d2:	01c47c63          	bleu	t3,s0,97ea <__divdf3+0x340>
    97d6:	9442                	add	s0,s0,a6
    97d8:	fff68593          	addi	a1,a3,-1 # 7fffff <__heap_end+0x3fffff>
    97dc:	01046763          	bltu	s0,a6,97ea <__divdf3+0x340>
    97e0:	01c47563          	bleu	t3,s0,97ea <__divdf3+0x340>
    97e4:	ffe68593          	addi	a1,a3,-2
    97e8:	9442                	add	s0,s0,a6
    97ea:	0742                	slli	a4,a4,0x10
    97ec:	8dd9                	or	a1,a1,a4
    97ee:	01059713          	slli	a4,a1,0x10
    97f2:	8341                	srli	a4,a4,0x10
    97f4:	41c40433          	sub	s0,s0,t3
    97f8:	0105de13          	srli	t3,a1,0x10
    97fc:	02670eb3          	mul	t4,a4,t1
    9800:	026e0333          	mul	t1,t3,t1
    9804:	03cf0e33          	mul	t3,t5,t3
    9808:	02ef0f33          	mul	t5,t5,a4
    980c:	9f1a                	add	t5,t5,t1
    980e:	010ed713          	srli	a4,t4,0x10
    9812:	977a                	add	a4,a4,t5
    9814:	00677463          	bleu	t1,a4,981c <__divdf3+0x372>
    9818:	66c1                	lui	a3,0x10
    981a:	9e36                	add	t3,t3,a3
    981c:	01075313          	srli	t1,a4,0x10
    9820:	9372                	add	t1,t1,t3
    9822:	6e41                	lui	t3,0x10
    9824:	1e7d                	addi	t3,t3,-1
    9826:	01c776b3          	and	a3,a4,t3
    982a:	06c2                	slli	a3,a3,0x10
    982c:	01cefeb3          	and	t4,t4,t3
    9830:	96f6                	add	a3,a3,t4
    9832:	00646663          	bltu	s0,t1,983e <__divdf3+0x394>
    9836:	8fae                	mv	t6,a1
    9838:	02641b63          	bne	s0,t1,986e <__divdf3+0x3c4>
    983c:	ca9d                	beqz	a3,9872 <__divdf3+0x3c8>
    983e:	9442                	add	s0,s0,a6
    9840:	fff58f93          	addi	t6,a1,-1
    9844:	03046163          	bltu	s0,a6,9866 <__divdf3+0x3bc>
    9848:	00646663          	bltu	s0,t1,9854 <__divdf3+0x3aa>
    984c:	02641163          	bne	s0,t1,986e <__divdf3+0x3c4>
    9850:	00d8fd63          	bleu	a3,a7,986a <__divdf3+0x3c0>
    9854:	00189713          	slli	a4,a7,0x1
    9858:	011738b3          	sltu	a7,a4,a7
    985c:	9846                	add	a6,a6,a7
    985e:	ffe58f93          	addi	t6,a1,-2
    9862:	9442                	add	s0,s0,a6
    9864:	88ba                	mv	a7,a4
    9866:	00641463          	bne	s0,t1,986e <__divdf3+0x3c4>
    986a:	01168463          	beq	a3,a7,9872 <__divdf3+0x3c8>
    986e:	001fef93          	ori	t6,t6,1
    9872:	3ff50693          	addi	a3,a0,1023
    9876:	0ad05c63          	blez	a3,992e <__divdf3+0x484>
    987a:	007ff713          	andi	a4,t6,7
    987e:	cf01                	beqz	a4,9896 <__divdf3+0x3ec>
    9880:	00fff713          	andi	a4,t6,15
    9884:	4591                	li	a1,4
    9886:	00b70863          	beq	a4,a1,9896 <__divdf3+0x3ec>
    988a:	004f8593          	addi	a1,t6,4
    988e:	01f5bfb3          	sltu	t6,a1,t6
    9892:	97fe                	add	a5,a5,t6
    9894:	8fae                	mv	t6,a1
    9896:	00779713          	slli	a4,a5,0x7
    989a:	00075863          	bgez	a4,98aa <__divdf3+0x400>
    989e:	ff000737          	lui	a4,0xff000
    98a2:	177d                	addi	a4,a4,-1
    98a4:	8ff9                	and	a5,a5,a4
    98a6:	40050693          	addi	a3,a0,1024
    98aa:	7fe00713          	li	a4,2046
    98ae:	10d74b63          	blt	a4,a3,99c4 <__divdf3+0x51a>
    98b2:	01d79713          	slli	a4,a5,0x1d
    98b6:	003fdf93          	srli	t6,t6,0x3
    98ba:	01f76733          	or	a4,a4,t6
    98be:	838d                	srli	a5,a5,0x3
    98c0:	001005b7          	lui	a1,0x100
    98c4:	15fd                	addi	a1,a1,-1
    98c6:	8fed                	and	a5,a5,a1
    98c8:	801005b7          	lui	a1,0x80100
    98cc:	15fd                	addi	a1,a1,-1
    98ce:	7ff6f693          	andi	a3,a3,2047
    98d2:	06d2                	slli	a3,a3,0x14
    98d4:	8fed                	and	a5,a5,a1
    98d6:	50b2                	lw	ra,44(sp)
    98d8:	5422                	lw	s0,40(sp)
    98da:	067e                	slli	a2,a2,0x1f
    98dc:	8fd5                	or	a5,a5,a3
    98de:	00c7e6b3          	or	a3,a5,a2
    98e2:	5492                	lw	s1,36(sp)
    98e4:	5902                	lw	s2,32(sp)
    98e6:	49f2                	lw	s3,28(sp)
    98e8:	4a62                	lw	s4,24(sp)
    98ea:	4ad2                	lw	s5,20(sp)
    98ec:	4b42                	lw	s6,16(sp)
    98ee:	4bb2                	lw	s7,12(sp)
    98f0:	853a                	mv	a0,a4
    98f2:	85b6                	mv	a1,a3
    98f4:	6145                	addi	sp,sp,48
    98f6:	8082                	ret
    98f8:	157d                	addi	a0,a0,-1
    98fa:	4701                	li	a4,0
    98fc:	b3b5                	j	9668 <__divdf3+0x1be>
    98fe:	864a                	mv	a2,s2
    9900:	87d6                	mv	a5,s5
    9902:	8fa2                	mv	t6,s0
    9904:	875a                	mv	a4,s6
    9906:	4689                	li	a3,2
    9908:	0ad70e63          	beq	a4,a3,99c4 <__divdf3+0x51a>
    990c:	468d                	li	a3,3
    990e:	0ad70463          	beq	a4,a3,99b6 <__divdf3+0x50c>
    9912:	4685                	li	a3,1
    9914:	f4d71fe3          	bne	a4,a3,9872 <__divdf3+0x3c8>
    9918:	4781                	li	a5,0
    991a:	4701                	li	a4,0
    991c:	a0bd                	j	998a <__divdf3+0x4e0>
    991e:	864e                	mv	a2,s3
    9920:	b7dd                	j	9906 <__divdf3+0x45c>
    9922:	000807b7          	lui	a5,0x80
    9926:	4f81                	li	t6,0
    9928:	4601                	li	a2,0
    992a:	470d                	li	a4,3
    992c:	bfe9                	j	9906 <__divdf3+0x45c>
    992e:	4585                	li	a1,1
    9930:	8d95                	sub	a1,a1,a3
    9932:	03800713          	li	a4,56
    9936:	feb741e3          	blt	a4,a1,9918 <__divdf3+0x46e>
    993a:	477d                	li	a4,31
    993c:	04b74963          	blt	a4,a1,998e <__divdf3+0x4e4>
    9940:	41e50513          	addi	a0,a0,1054
    9944:	00a79733          	sll	a4,a5,a0
    9948:	00bfd6b3          	srl	a3,t6,a1
    994c:	00af9533          	sll	a0,t6,a0
    9950:	8f55                	or	a4,a4,a3
    9952:	00a03533          	snez	a0,a0
    9956:	8f49                	or	a4,a4,a0
    9958:	00b7d7b3          	srl	a5,a5,a1
    995c:	00777693          	andi	a3,a4,7
    9960:	ce81                	beqz	a3,9978 <__divdf3+0x4ce>
    9962:	00f77693          	andi	a3,a4,15
    9966:	4591                	li	a1,4
    9968:	00b68863          	beq	a3,a1,9978 <__divdf3+0x4ce>
    996c:	00470693          	addi	a3,a4,4 # ff000004 <pulp__FC+0xff000005>
    9970:	00e6b733          	sltu	a4,a3,a4
    9974:	97ba                	add	a5,a5,a4
    9976:	8736                	mv	a4,a3
    9978:	00879693          	slli	a3,a5,0x8
    997c:	0406c963          	bltz	a3,99ce <__divdf3+0x524>
    9980:	01d79693          	slli	a3,a5,0x1d
    9984:	830d                	srli	a4,a4,0x3
    9986:	8f55                	or	a4,a4,a3
    9988:	838d                	srli	a5,a5,0x3
    998a:	4681                	li	a3,0
    998c:	bf15                	j	98c0 <__divdf3+0x416>
    998e:	5705                	li	a4,-31
    9990:	8f15                	sub	a4,a4,a3
    9992:	02000813          	li	a6,32
    9996:	00e7d733          	srl	a4,a5,a4
    999a:	4681                	li	a3,0
    999c:	01058663          	beq	a1,a6,99a8 <__divdf3+0x4fe>
    99a0:	43e50513          	addi	a0,a0,1086
    99a4:	00a796b3          	sll	a3,a5,a0
    99a8:	01f6e533          	or	a0,a3,t6
    99ac:	00a03533          	snez	a0,a0
    99b0:	8f49                	or	a4,a4,a0
    99b2:	4781                	li	a5,0
    99b4:	b765                	j	995c <__divdf3+0x4b2>
    99b6:	000807b7          	lui	a5,0x80
    99ba:	4701                	li	a4,0
    99bc:	7ff00693          	li	a3,2047
    99c0:	4601                	li	a2,0
    99c2:	bdfd                	j	98c0 <__divdf3+0x416>
    99c4:	4781                	li	a5,0
    99c6:	4701                	li	a4,0
    99c8:	7ff00693          	li	a3,2047
    99cc:	bdd5                	j	98c0 <__divdf3+0x416>
    99ce:	4781                	li	a5,0
    99d0:	4701                	li	a4,0
    99d2:	4685                	li	a3,1
    99d4:	b5f5                	j	98c0 <__divdf3+0x416>

000099d6 <__muldf3>:
    99d6:	7179                	addi	sp,sp,-48
    99d8:	d04a                	sw	s2,32(sp)
    99da:	ca56                	sw	s5,20(sp)
    99dc:	00100937          	lui	s2,0x100
    99e0:	0145da93          	srli	s5,a1,0x14
    99e4:	ce4e                	sw	s3,28(sp)
    99e6:	cc52                	sw	s4,24(sp)
    99e8:	c85a                	sw	s6,16(sp)
    99ea:	c65e                	sw	s7,12(sp)
    99ec:	197d                	addi	s2,s2,-1
    99ee:	d606                	sw	ra,44(sp)
    99f0:	d422                	sw	s0,40(sp)
    99f2:	d226                	sw	s1,36(sp)
    99f4:	7ffafa93          	andi	s5,s5,2047
    99f8:	8b2a                	mv	s6,a0
    99fa:	8bb2                	mv	s7,a2
    99fc:	8a36                	mv	s4,a3
    99fe:	00b97933          	and	s2,s2,a1
    9a02:	01f5d993          	srli	s3,a1,0x1f
    9a06:	080a8663          	beqz	s5,9a92 <__muldf3+0xbc>
    9a0a:	7ff00793          	li	a5,2047
    9a0e:	0cfa8b63          	beq	s5,a5,9ae4 <__muldf3+0x10e>
    9a12:	008004b7          	lui	s1,0x800
    9a16:	090e                	slli	s2,s2,0x3
    9a18:	00996933          	or	s2,s2,s1
    9a1c:	01d55493          	srli	s1,a0,0x1d
    9a20:	0124e4b3          	or	s1,s1,s2
    9a24:	00351413          	slli	s0,a0,0x3
    9a28:	c01a8a93          	addi	s5,s5,-1023
    9a2c:	4b01                	li	s6,0
    9a2e:	014a5513          	srli	a0,s4,0x14
    9a32:	00100937          	lui	s2,0x100
    9a36:	197d                	addi	s2,s2,-1
    9a38:	7ff57513          	andi	a0,a0,2047
    9a3c:	01497933          	and	s2,s2,s4
    9a40:	875e                	mv	a4,s7
    9a42:	01fa5a13          	srli	s4,s4,0x1f
    9a46:	c169                	beqz	a0,9b08 <__muldf3+0x132>
    9a48:	7ff00793          	li	a5,2047
    9a4c:	10f50863          	beq	a0,a5,9b5c <__muldf3+0x186>
    9a50:	008007b7          	lui	a5,0x800
    9a54:	090e                	slli	s2,s2,0x3
    9a56:	00f96933          	or	s2,s2,a5
    9a5a:	01dbd793          	srli	a5,s7,0x1d
    9a5e:	0127e7b3          	or	a5,a5,s2
    9a62:	003b9713          	slli	a4,s7,0x3
    9a66:	c0150513          	addi	a0,a0,-1023
    9a6a:	4681                	li	a3,0
    9a6c:	002b1613          	slli	a2,s6,0x2
    9a70:	8e55                	or	a2,a2,a3
    9a72:	9556                	add	a0,a0,s5
    9a74:	167d                	addi	a2,a2,-1
    9a76:	45b9                	li	a1,14
    9a78:	0149c833          	xor	a6,s3,s4
    9a7c:	00150893          	addi	a7,a0,1
    9a80:	0ec5ef63          	bltu	a1,a2,9b7e <__muldf3+0x1a8>
    9a84:	65b5                	lui	a1,0xd
    9a86:	060a                	slli	a2,a2,0x2
    9a88:	4c458593          	addi	a1,a1,1220 # d4c4 <zeroes.4346+0x4c>
    9a8c:	962e                	add	a2,a2,a1
    9a8e:	4210                	lw	a2,0(a2)
    9a90:	8602                	jr	a2
    9a92:	00a964b3          	or	s1,s2,a0
    9a96:	c0a5                	beqz	s1,9af6 <__muldf3+0x120>
    9a98:	02090b63          	beqz	s2,9ace <__muldf3+0xf8>
    9a9c:	854a                	mv	a0,s2
    9a9e:	674020ef          	jal	ra,c112 <__clzsi2>
    9aa2:	ff550793          	addi	a5,a0,-11
    9aa6:	4771                	li	a4,28
    9aa8:	02f74863          	blt	a4,a5,9ad8 <__muldf3+0x102>
    9aac:	44f5                	li	s1,29
    9aae:	ff850413          	addi	s0,a0,-8
    9ab2:	8c9d                	sub	s1,s1,a5
    9ab4:	00891933          	sll	s2,s2,s0
    9ab8:	009b54b3          	srl	s1,s6,s1
    9abc:	0124e4b3          	or	s1,s1,s2
    9ac0:	008b1433          	sll	s0,s6,s0
    9ac4:	c0d00a93          	li	s5,-1011
    9ac8:	40aa8ab3          	sub	s5,s5,a0
    9acc:	b785                	j	9a2c <__muldf3+0x56>
    9ace:	644020ef          	jal	ra,c112 <__clzsi2>
    9ad2:	02050513          	addi	a0,a0,32
    9ad6:	b7f1                	j	9aa2 <__muldf3+0xcc>
    9ad8:	fd850493          	addi	s1,a0,-40
    9adc:	009b14b3          	sll	s1,s6,s1
    9ae0:	4401                	li	s0,0
    9ae2:	b7cd                	j	9ac4 <__muldf3+0xee>
    9ae4:	00a964b3          	or	s1,s2,a0
    9ae8:	c899                	beqz	s1,9afe <__muldf3+0x128>
    9aea:	842a                	mv	s0,a0
    9aec:	84ca                	mv	s1,s2
    9aee:	7ff00a93          	li	s5,2047
    9af2:	4b0d                	li	s6,3
    9af4:	bf2d                	j	9a2e <__muldf3+0x58>
    9af6:	4401                	li	s0,0
    9af8:	4a81                	li	s5,0
    9afa:	4b05                	li	s6,1
    9afc:	bf0d                	j	9a2e <__muldf3+0x58>
    9afe:	4401                	li	s0,0
    9b00:	7ff00a93          	li	s5,2047
    9b04:	4b09                	li	s6,2
    9b06:	b725                	j	9a2e <__muldf3+0x58>
    9b08:	017967b3          	or	a5,s2,s7
    9b0c:	c3a5                	beqz	a5,9b6c <__muldf3+0x196>
    9b0e:	02090b63          	beqz	s2,9b44 <__muldf3+0x16e>
    9b12:	854a                	mv	a0,s2
    9b14:	5fe020ef          	jal	ra,c112 <__clzsi2>
    9b18:	ff550693          	addi	a3,a0,-11
    9b1c:	47f1                	li	a5,28
    9b1e:	02d7c963          	blt	a5,a3,9b50 <__muldf3+0x17a>
    9b22:	47f5                	li	a5,29
    9b24:	ff850713          	addi	a4,a0,-8
    9b28:	8f95                	sub	a5,a5,a3
    9b2a:	00e91933          	sll	s2,s2,a4
    9b2e:	00fbd7b3          	srl	a5,s7,a5
    9b32:	0127e7b3          	or	a5,a5,s2
    9b36:	00eb9733          	sll	a4,s7,a4
    9b3a:	c0d00693          	li	a3,-1011
    9b3e:	40a68533          	sub	a0,a3,a0
    9b42:	b725                	j	9a6a <__muldf3+0x94>
    9b44:	855e                	mv	a0,s7
    9b46:	5cc020ef          	jal	ra,c112 <__clzsi2>
    9b4a:	02050513          	addi	a0,a0,32
    9b4e:	b7e9                	j	9b18 <__muldf3+0x142>
    9b50:	fd850793          	addi	a5,a0,-40
    9b54:	00fb97b3          	sll	a5,s7,a5
    9b58:	4701                	li	a4,0
    9b5a:	b7c5                	j	9b3a <__muldf3+0x164>
    9b5c:	017967b3          	or	a5,s2,s7
    9b60:	cb91                	beqz	a5,9b74 <__muldf3+0x19e>
    9b62:	87ca                	mv	a5,s2
    9b64:	7ff00513          	li	a0,2047
    9b68:	468d                	li	a3,3
    9b6a:	b709                	j	9a6c <__muldf3+0x96>
    9b6c:	4701                	li	a4,0
    9b6e:	4501                	li	a0,0
    9b70:	4685                	li	a3,1
    9b72:	bded                	j	9a6c <__muldf3+0x96>
    9b74:	4701                	li	a4,0
    9b76:	7ff00513          	li	a0,2047
    9b7a:	4689                	li	a3,2
    9b7c:	bdc5                	j	9a6c <__muldf3+0x96>
    9b7e:	66c1                	lui	a3,0x10
    9b80:	fff68313          	addi	t1,a3,-1 # ffff <__bss_end+0x1f7f>
    9b84:	01045613          	srli	a2,s0,0x10
    9b88:	01075293          	srli	t0,a4,0x10
    9b8c:	00647433          	and	s0,s0,t1
    9b90:	006773b3          	and	t2,a4,t1
    9b94:	028285b3          	mul	a1,t0,s0
    9b98:	02740733          	mul	a4,s0,t2
    9b9c:	02760e33          	mul	t3,a2,t2
    9ba0:	01c58eb3          	add	t4,a1,t3
    9ba4:	01075593          	srli	a1,a4,0x10
    9ba8:	95f6                	add	a1,a1,t4
    9baa:	02560f33          	mul	t5,a2,t0
    9bae:	01c5f363          	bleu	t3,a1,9bb4 <__muldf3+0x1de>
    9bb2:	9f36                	add	t5,t5,a3
    9bb4:	0065feb3          	and	t4,a1,t1
    9bb8:	00677733          	and	a4,a4,t1
    9bbc:	0ec2                	slli	t4,t4,0x10
    9bbe:	0107d913          	srli	s2,a5,0x10
    9bc2:	9eba                	add	t4,t4,a4
    9bc4:	0067f733          	and	a4,a5,t1
    9bc8:	028707b3          	mul	a5,a4,s0
    9bcc:	02e606b3          	mul	a3,a2,a4
    9bd0:	02890433          	mul	s0,s2,s0
    9bd4:	0105de13          	srli	t3,a1,0x10
    9bd8:	00d405b3          	add	a1,s0,a3
    9bdc:	0107d413          	srli	s0,a5,0x10
    9be0:	942e                	add	s0,s0,a1
    9be2:	03260633          	mul	a2,a2,s2
    9be6:	00d47463          	bleu	a3,s0,9bee <__muldf3+0x218>
    9bea:	66c1                	lui	a3,0x10
    9bec:	9636                	add	a2,a2,a3
    9bee:	01045693          	srli	a3,s0,0x10
    9bf2:	6341                	lui	t1,0x10
    9bf4:	9636                	add	a2,a2,a3
    9bf6:	fff30693          	addi	a3,t1,-1 # ffff <__bss_end+0x1f7f>
    9bfa:	8c75                	and	s0,s0,a3
    9bfc:	8ff5                	and	a5,a5,a3
    9bfe:	0442                	slli	s0,s0,0x10
    9c00:	0104df93          	srli	t6,s1,0x10
    9c04:	943e                	add	s0,s0,a5
    9c06:	8cf5                	and	s1,s1,a3
    9c08:	027486b3          	mul	a3,s1,t2
    9c0c:	008e09b3          	add	s3,t3,s0
    9c10:	027f83b3          	mul	t2,t6,t2
    9c14:	02928e33          	mul	t3,t0,s1
    9c18:	03f287b3          	mul	a5,t0,t6
    9c1c:	007e02b3          	add	t0,t3,t2
    9c20:	0106de13          	srli	t3,a3,0x10
    9c24:	9e16                	add	t3,t3,t0
    9c26:	007e7363          	bleu	t2,t3,9c2c <__muldf3+0x256>
    9c2a:	979a                	add	a5,a5,t1
    9c2c:	010e5293          	srli	t0,t3,0x10
    9c30:	65c1                	lui	a1,0x10
    9c32:	92be                	add	t0,t0,a5
    9c34:	fff58793          	addi	a5,a1,-1 # ffff <__bss_end+0x1f7f>
    9c38:	00fe7333          	and	t1,t3,a5
    9c3c:	02e483b3          	mul	t2,s1,a4
    9c40:	8efd                	and	a3,a3,a5
    9c42:	02ef8733          	mul	a4,t6,a4
    9c46:	0342                	slli	t1,t1,0x10
    9c48:	029904b3          	mul	s1,s2,s1
    9c4c:	9336                	add	t1,t1,a3
    9c4e:	94ba                	add	s1,s1,a4
    9c50:	0103d693          	srli	a3,t2,0x10
    9c54:	94b6                	add	s1,s1,a3
    9c56:	03f90fb3          	mul	t6,s2,t6
    9c5a:	00e4f363          	bleu	a4,s1,9c60 <__muldf3+0x28a>
    9c5e:	9fae                	add	t6,t6,a1
    9c60:	66c1                	lui	a3,0x10
    9c62:	16fd                	addi	a3,a3,-1
    9c64:	00d4f5b3          	and	a1,s1,a3
    9c68:	05c2                	slli	a1,a1,0x10
    9c6a:	00d3f6b3          	and	a3,t2,a3
    9c6e:	013f0e33          	add	t3,t5,s3
    9c72:	95b6                	add	a1,a1,a3
    9c74:	00c586b3          	add	a3,a1,a2
    9c78:	008e3433          	sltu	s0,t3,s0
    9c7c:	008687b3          	add	a5,a3,s0
    9c80:	9e1a                	add	t3,t3,t1
    9c82:	006e3333          	sltu	t1,t3,t1
    9c86:	005785b3          	add	a1,a5,t0
    9c8a:	00c6b6b3          	sltu	a3,a3,a2
    9c8e:	00658f33          	add	t5,a1,t1
    9c92:	8636                	mv	a2,a3
    9c94:	0087b6b3          	sltu	a3,a5,s0
    9c98:	0055b7b3          	sltu	a5,a1,t0
    9c9c:	85be                	mv	a1,a5
    9c9e:	006f37b3          	sltu	a5,t5,t1
    9ca2:	8ed1                	or	a3,a3,a2
    9ca4:	0ff6f693          	andi	a3,a3,255
    9ca8:	80c1                	srli	s1,s1,0x10
    9caa:	8fcd                	or	a5,a5,a1
    9cac:	96a6                	add	a3,a3,s1
    9cae:	0ff7f793          	andi	a5,a5,255
    9cb2:	97b6                	add	a5,a5,a3
    9cb4:	97fe                	add	a5,a5,t6
    9cb6:	017f5713          	srli	a4,t5,0x17
    9cba:	07a6                	slli	a5,a5,0x9
    9cbc:	8fd9                	or	a5,a5,a4
    9cbe:	009e1713          	slli	a4,t3,0x9
    9cc2:	01d76733          	or	a4,a4,t4
    9cc6:	00e03733          	snez	a4,a4
    9cca:	017e5e13          	srli	t3,t3,0x17
    9cce:	01c76733          	or	a4,a4,t3
    9cd2:	0f26                	slli	t5,t5,0x9
    9cd4:	00779693          	slli	a3,a5,0x7
    9cd8:	01e76733          	or	a4,a4,t5
    9cdc:	0a06de63          	bgez	a3,9d98 <__muldf3+0x3c2>
    9ce0:	00175693          	srli	a3,a4,0x1
    9ce4:	8b05                	andi	a4,a4,1
    9ce6:	8f55                	or	a4,a4,a3
    9ce8:	01f79693          	slli	a3,a5,0x1f
    9cec:	8f55                	or	a4,a4,a3
    9cee:	8385                	srli	a5,a5,0x1
    9cf0:	3ff88613          	addi	a2,a7,1023
    9cf4:	0ac05463          	blez	a2,9d9c <__muldf3+0x3c6>
    9cf8:	00777693          	andi	a3,a4,7
    9cfc:	ce81                	beqz	a3,9d14 <__muldf3+0x33e>
    9cfe:	00f77693          	andi	a3,a4,15
    9d02:	4591                	li	a1,4
    9d04:	00b68863          	beq	a3,a1,9d14 <__muldf3+0x33e>
    9d08:	00470693          	addi	a3,a4,4
    9d0c:	00e6b733          	sltu	a4,a3,a4
    9d10:	97ba                	add	a5,a5,a4
    9d12:	8736                	mv	a4,a3
    9d14:	00779693          	slli	a3,a5,0x7
    9d18:	0006d863          	bgez	a3,9d28 <__muldf3+0x352>
    9d1c:	ff0006b7          	lui	a3,0xff000
    9d20:	16fd                	addi	a3,a3,-1
    9d22:	8ff5                	and	a5,a5,a3
    9d24:	40088613          	addi	a2,a7,1024
    9d28:	7fe00693          	li	a3,2046
    9d2c:	10c6c263          	blt	a3,a2,9e30 <__muldf3+0x45a>
    9d30:	00375693          	srli	a3,a4,0x3
    9d34:	01d79713          	slli	a4,a5,0x1d
    9d38:	8f55                	or	a4,a4,a3
    9d3a:	838d                	srli	a5,a5,0x3
    9d3c:	001006b7          	lui	a3,0x100
    9d40:	16fd                	addi	a3,a3,-1
    9d42:	8ff5                	and	a5,a5,a3
    9d44:	7ff67693          	andi	a3,a2,2047
    9d48:	80100637          	lui	a2,0x80100
    9d4c:	167d                	addi	a2,a2,-1
    9d4e:	06d2                	slli	a3,a3,0x14
    9d50:	8ff1                	and	a5,a5,a2
    9d52:	50b2                	lw	ra,44(sp)
    9d54:	5422                	lw	s0,40(sp)
    9d56:	087e                	slli	a6,a6,0x1f
    9d58:	8fd5                	or	a5,a5,a3
    9d5a:	0107e6b3          	or	a3,a5,a6
    9d5e:	5492                	lw	s1,36(sp)
    9d60:	5902                	lw	s2,32(sp)
    9d62:	49f2                	lw	s3,28(sp)
    9d64:	4a62                	lw	s4,24(sp)
    9d66:	4ad2                	lw	s5,20(sp)
    9d68:	4b42                	lw	s6,16(sp)
    9d6a:	4bb2                	lw	s7,12(sp)
    9d6c:	853a                	mv	a0,a4
    9d6e:	85b6                	mv	a1,a3
    9d70:	6145                	addi	sp,sp,48
    9d72:	8082                	ret
    9d74:	884e                	mv	a6,s3
    9d76:	87a6                	mv	a5,s1
    9d78:	8722                	mv	a4,s0
    9d7a:	86da                	mv	a3,s6
    9d7c:	4609                	li	a2,2
    9d7e:	0ac68963          	beq	a3,a2,9e30 <__muldf3+0x45a>
    9d82:	460d                	li	a2,3
    9d84:	08c68f63          	beq	a3,a2,9e22 <__muldf3+0x44c>
    9d88:	4605                	li	a2,1
    9d8a:	f6c693e3          	bne	a3,a2,9cf0 <__muldf3+0x31a>
    9d8e:	4781                	li	a5,0
    9d90:	4701                	li	a4,0
    9d92:	a09d                	j	9df8 <__muldf3+0x422>
    9d94:	8852                	mv	a6,s4
    9d96:	b7dd                	j	9d7c <__muldf3+0x3a6>
    9d98:	88aa                	mv	a7,a0
    9d9a:	bf99                	j	9cf0 <__muldf3+0x31a>
    9d9c:	4585                	li	a1,1
    9d9e:	8d91                	sub	a1,a1,a2
    9da0:	03800693          	li	a3,56
    9da4:	feb6c5e3          	blt	a3,a1,9d8e <__muldf3+0x3b8>
    9da8:	46fd                	li	a3,31
    9daa:	04b6c963          	blt	a3,a1,9dfc <__muldf3+0x426>
    9dae:	41e88893          	addi	a7,a7,1054
    9db2:	011796b3          	sll	a3,a5,a7
    9db6:	00b75633          	srl	a2,a4,a1
    9dba:	01171733          	sll	a4,a4,a7
    9dbe:	8ed1                	or	a3,a3,a2
    9dc0:	00e03733          	snez	a4,a4
    9dc4:	8f55                	or	a4,a4,a3
    9dc6:	00b7d7b3          	srl	a5,a5,a1
    9dca:	00777693          	andi	a3,a4,7
    9dce:	ce81                	beqz	a3,9de6 <__muldf3+0x410>
    9dd0:	00f77693          	andi	a3,a4,15
    9dd4:	4611                	li	a2,4
    9dd6:	00c68863          	beq	a3,a2,9de6 <__muldf3+0x410>
    9dda:	00470693          	addi	a3,a4,4
    9dde:	00e6b733          	sltu	a4,a3,a4
    9de2:	97ba                	add	a5,a5,a4
    9de4:	8736                	mv	a4,a3
    9de6:	00879693          	slli	a3,a5,0x8
    9dea:	0406c863          	bltz	a3,9e3a <__muldf3+0x464>
    9dee:	01d79693          	slli	a3,a5,0x1d
    9df2:	830d                	srli	a4,a4,0x3
    9df4:	8f55                	or	a4,a4,a3
    9df6:	838d                	srli	a5,a5,0x3
    9df8:	4601                	li	a2,0
    9dfa:	b789                	j	9d3c <__muldf3+0x366>
    9dfc:	5685                	li	a3,-31
    9dfe:	8e91                	sub	a3,a3,a2
    9e00:	02000513          	li	a0,32
    9e04:	00d7d6b3          	srl	a3,a5,a3
    9e08:	4601                	li	a2,0
    9e0a:	00a58663          	beq	a1,a0,9e16 <__muldf3+0x440>
    9e0e:	43e88893          	addi	a7,a7,1086
    9e12:	01179633          	sll	a2,a5,a7
    9e16:	8f51                	or	a4,a4,a2
    9e18:	00e03733          	snez	a4,a4
    9e1c:	8f55                	or	a4,a4,a3
    9e1e:	4781                	li	a5,0
    9e20:	b76d                	j	9dca <__muldf3+0x3f4>
    9e22:	000807b7          	lui	a5,0x80
    9e26:	4701                	li	a4,0
    9e28:	7ff00613          	li	a2,2047
    9e2c:	4801                	li	a6,0
    9e2e:	b739                	j	9d3c <__muldf3+0x366>
    9e30:	4781                	li	a5,0
    9e32:	4701                	li	a4,0
    9e34:	7ff00613          	li	a2,2047
    9e38:	b711                	j	9d3c <__muldf3+0x366>
    9e3a:	4781                	li	a5,0
    9e3c:	4701                	li	a4,0
    9e3e:	4605                	li	a2,1
    9e40:	bdf5                	j	9d3c <__muldf3+0x366>

00009e42 <__eqtf2>:
    9e42:	455c                	lw	a5,12(a0)
    9e44:	0005af03          	lw	t5,0(a1)
    9e48:	0045af83          	lw	t6,4(a1)
    9e4c:	0085a283          	lw	t0,8(a1)
    9e50:	6721                	lui	a4,0x8
    9e52:	45cc                	lw	a1,12(a1)
    9e54:	0107d693          	srli	a3,a5,0x10
    9e58:	177d                	addi	a4,a4,-1
    9e5a:	01079813          	slli	a6,a5,0x10
    9e5e:	01059e93          	slli	t4,a1,0x10
    9e62:	01f7d613          	srli	a2,a5,0x1f
    9e66:	8ef9                	and	a3,a3,a4
    9e68:	0105d793          	srli	a5,a1,0x10
    9e6c:	1141                	addi	sp,sp,-16
    9e6e:	00052883          	lw	a7,0(a0)
    9e72:	00452303          	lw	t1,4(a0)
    9e76:	00852e03          	lw	t3,8(a0)
    9e7a:	01085813          	srli	a6,a6,0x10
    9e7e:	010ede93          	srli	t4,t4,0x10
    9e82:	8ff9                	and	a5,a5,a4
    9e84:	81fd                	srli	a1,a1,0x1f
    9e86:	00e69d63          	bne	a3,a4,9ea0 <__eqtf2+0x5e>
    9e8a:	0068e733          	or	a4,a7,t1
    9e8e:	01c76733          	or	a4,a4,t3
    9e92:	01076733          	or	a4,a4,a6
    9e96:	4505                	li	a0,1
    9e98:	e721                	bnez	a4,9ee0 <__eqtf2+0x9e>
    9e9a:	04d79363          	bne	a5,a3,9ee0 <__eqtf2+0x9e>
    9e9e:	a019                	j	9ea4 <__eqtf2+0x62>
    9ea0:	00e79a63          	bne	a5,a4,9eb4 <__eqtf2+0x72>
    9ea4:	01ff6733          	or	a4,t5,t6
    9ea8:	00576733          	or	a4,a4,t0
    9eac:	01d76733          	or	a4,a4,t4
    9eb0:	4505                	li	a0,1
    9eb2:	e71d                	bnez	a4,9ee0 <__eqtf2+0x9e>
    9eb4:	4505                	li	a0,1
    9eb6:	02d79563          	bne	a5,a3,9ee0 <__eqtf2+0x9e>
    9eba:	03e89363          	bne	a7,t5,9ee0 <__eqtf2+0x9e>
    9ebe:	03f31163          	bne	t1,t6,9ee0 <__eqtf2+0x9e>
    9ec2:	005e1f63          	bne	t3,t0,9ee0 <__eqtf2+0x9e>
    9ec6:	01d81d63          	bne	a6,t4,9ee0 <__eqtf2+0x9e>
    9eca:	00b60d63          	beq	a2,a1,9ee4 <__eqtf2+0xa2>
    9ece:	eb89                	bnez	a5,9ee0 <__eqtf2+0x9e>
    9ed0:	0068e533          	or	a0,a7,t1
    9ed4:	01c56533          	or	a0,a0,t3
    9ed8:	01056533          	or	a0,a0,a6
    9edc:	00a03533          	snez	a0,a0
    9ee0:	0141                	addi	sp,sp,16
    9ee2:	8082                	ret
    9ee4:	4501                	li	a0,0
    9ee6:	bfed                	j	9ee0 <__eqtf2+0x9e>

00009ee8 <__getf2>:
    9ee8:	455c                	lw	a5,12(a0)
    9eea:	00c5a883          	lw	a7,12(a1)
    9eee:	00052f03          	lw	t5,0(a0)
    9ef2:	4150                	lw	a2,4(a0)
    9ef4:	00852803          	lw	a6,8(a0)
    9ef8:	6521                	lui	a0,0x8
    9efa:	0107d713          	srli	a4,a5,0x10
    9efe:	157d                	addi	a0,a0,-1
    9f00:	01089e93          	slli	t4,a7,0x10
    9f04:	0108d693          	srli	a3,a7,0x10
    9f08:	0005a283          	lw	t0,0(a1)
    9f0c:	0045a303          	lw	t1,4(a1)
    9f10:	0085ae03          	lw	t3,8(a1)
    9f14:	8f69                	and	a4,a4,a0
    9f16:	01079593          	slli	a1,a5,0x10
    9f1a:	1141                	addi	sp,sp,-16
    9f1c:	81c1                	srli	a1,a1,0x10
    9f1e:	83fd                	srli	a5,a5,0x1f
    9f20:	010ede93          	srli	t4,t4,0x10
    9f24:	8ee9                	and	a3,a3,a0
    9f26:	01f8d893          	srli	a7,a7,0x1f
    9f2a:	00a71d63          	bne	a4,a0,9f44 <__getf2+0x5c>
    9f2e:	00cf6fb3          	or	t6,t5,a2
    9f32:	010fefb3          	or	t6,t6,a6
    9f36:	00bfefb3          	or	t6,t6,a1
    9f3a:	5579                	li	a0,-2
    9f3c:	0a0f8763          	beqz	t6,9fea <__getf2+0x102>
    9f40:	0141                	addi	sp,sp,16
    9f42:	8082                	ret
    9f44:	02a69463          	bne	a3,a0,9f6c <__getf2+0x84>
    9f48:	0062efb3          	or	t6,t0,t1
    9f4c:	01cfefb3          	or	t6,t6,t3
    9f50:	01dfefb3          	or	t6,t6,t4
    9f54:	5579                	li	a0,-2
    9f56:	fe0f95e3          	bnez	t6,9f40 <__getf2+0x58>
    9f5a:	eb1d                	bnez	a4,9f90 <__getf2+0xa8>
    9f5c:	00cf6533          	or	a0,t5,a2
    9f60:	01056533          	or	a0,a0,a6
    9f64:	8d4d                	or	a0,a0,a1
    9f66:	00153513          	seqz	a0,a0
    9f6a:	a015                	j	9f8e <__getf2+0xa6>
    9f6c:	e349                	bnez	a4,9fee <__getf2+0x106>
    9f6e:	00cf6533          	or	a0,t5,a2
    9f72:	01056533          	or	a0,a0,a6
    9f76:	8d4d                	or	a0,a0,a1
    9f78:	00153513          	seqz	a0,a0
    9f7c:	ea89                	bnez	a3,9f8e <__getf2+0xa6>
    9f7e:	0062efb3          	or	t6,t0,t1
    9f82:	01cfefb3          	or	t6,t6,t3
    9f86:	01dfefb3          	or	t6,t6,t4
    9f8a:	040f8e63          	beqz	t6,9fe6 <__getf2+0xfe>
    9f8e:	e511                	bnez	a0,9f9a <__getf2+0xb2>
    9f90:	01178963          	beq	a5,a7,9fa2 <__getf2+0xba>
    9f94:	4505                	li	a0,1
    9f96:	d7cd                	beqz	a5,9f40 <__getf2+0x58>
    9f98:	a019                	j	9f9e <__getf2+0xb6>
    9f9a:	fa0893e3          	bnez	a7,9f40 <__getf2+0x58>
    9f9e:	557d                	li	a0,-1
    9fa0:	b745                	j	9f40 <__getf2+0x58>
    9fa2:	fee6c9e3          	blt	a3,a4,9f94 <__getf2+0xac>
    9fa6:	00d75663          	ble	a3,a4,9fb2 <__getf2+0xca>
    9faa:	557d                	li	a0,-1
    9fac:	dbd1                	beqz	a5,9f40 <__getf2+0x58>
    9fae:	4505                	li	a0,1
    9fb0:	bf41                	j	9f40 <__getf2+0x58>
    9fb2:	febee1e3          	bltu	t4,a1,9f94 <__getf2+0xac>
    9fb6:	03d59463          	bne	a1,t4,9fde <__getf2+0xf6>
    9fba:	fd0e6de3          	bltu	t3,a6,9f94 <__getf2+0xac>
    9fbe:	03c81b63          	bne	a6,t3,9ff4 <__getf2+0x10c>
    9fc2:	fcc369e3          	bltu	t1,a2,9f94 <__getf2+0xac>
    9fc6:	00661463          	bne	a2,t1,9fce <__getf2+0xe6>
    9fca:	fde2e5e3          	bltu	t0,t5,9f94 <__getf2+0xac>
    9fce:	fc666ee3          	bltu	a2,t1,9faa <__getf2+0xc2>
    9fd2:	4501                	li	a0,0
    9fd4:	f66616e3          	bne	a2,t1,9f40 <__getf2+0x58>
    9fd8:	fc5f69e3          	bltu	t5,t0,9faa <__getf2+0xc2>
    9fdc:	b795                	j	9f40 <__getf2+0x58>
    9fde:	fdd5e6e3          	bltu	a1,t4,9faa <__getf2+0xc2>
    9fe2:	4501                	li	a0,0
    9fe4:	bfb1                	j	9f40 <__getf2+0x58>
    9fe6:	fd75                	bnez	a0,9fe2 <__getf2+0xfa>
    9fe8:	b775                	j	9f94 <__getf2+0xac>
    9fea:	f4e68fe3          	beq	a3,a4,9f48 <__getf2+0x60>
    9fee:	4501                	li	a0,0
    9ff0:	d6d9                	beqz	a3,9f7e <__getf2+0x96>
    9ff2:	bf79                	j	9f90 <__getf2+0xa8>
    9ff4:	fbc86be3          	bltu	a6,t3,9faa <__getf2+0xc2>
    9ff8:	b7ed                	j	9fe2 <__getf2+0xfa>

00009ffa <__letf2>:
    9ffa:	455c                	lw	a5,12(a0)
    9ffc:	00c5a883          	lw	a7,12(a1)
    a000:	00052f03          	lw	t5,0(a0) # 8000 <__ascii_wctomb+0x1c>
    a004:	4150                	lw	a2,4(a0)
    a006:	00852803          	lw	a6,8(a0)
    a00a:	6521                	lui	a0,0x8
    a00c:	0107d713          	srli	a4,a5,0x10
    a010:	157d                	addi	a0,a0,-1
    a012:	01089e93          	slli	t4,a7,0x10
    a016:	0108d693          	srli	a3,a7,0x10
    a01a:	0005a283          	lw	t0,0(a1)
    a01e:	0045a303          	lw	t1,4(a1)
    a022:	0085ae03          	lw	t3,8(a1)
    a026:	8f69                	and	a4,a4,a0
    a028:	01079593          	slli	a1,a5,0x10
    a02c:	1141                	addi	sp,sp,-16
    a02e:	81c1                	srli	a1,a1,0x10
    a030:	83fd                	srli	a5,a5,0x1f
    a032:	010ede93          	srli	t4,t4,0x10
    a036:	8ee9                	and	a3,a3,a0
    a038:	01f8d893          	srli	a7,a7,0x1f
    a03c:	00a71d63          	bne	a4,a0,a056 <__letf2+0x5c>
    a040:	00cf6fb3          	or	t6,t5,a2
    a044:	010fefb3          	or	t6,t6,a6
    a048:	00bfefb3          	or	t6,t6,a1
    a04c:	4509                	li	a0,2
    a04e:	0a0f8763          	beqz	t6,a0fc <__letf2+0x102>
    a052:	0141                	addi	sp,sp,16
    a054:	8082                	ret
    a056:	02a69463          	bne	a3,a0,a07e <__letf2+0x84>
    a05a:	0062efb3          	or	t6,t0,t1
    a05e:	01cfefb3          	or	t6,t6,t3
    a062:	01dfefb3          	or	t6,t6,t4
    a066:	4509                	li	a0,2
    a068:	fe0f95e3          	bnez	t6,a052 <__letf2+0x58>
    a06c:	eb1d                	bnez	a4,a0a2 <__letf2+0xa8>
    a06e:	00cf6533          	or	a0,t5,a2
    a072:	01056533          	or	a0,a0,a6
    a076:	8d4d                	or	a0,a0,a1
    a078:	00153513          	seqz	a0,a0
    a07c:	a015                	j	a0a0 <__letf2+0xa6>
    a07e:	e349                	bnez	a4,a100 <__letf2+0x106>
    a080:	00cf6533          	or	a0,t5,a2
    a084:	01056533          	or	a0,a0,a6
    a088:	8d4d                	or	a0,a0,a1
    a08a:	00153513          	seqz	a0,a0
    a08e:	ea89                	bnez	a3,a0a0 <__letf2+0xa6>
    a090:	0062efb3          	or	t6,t0,t1
    a094:	01cfefb3          	or	t6,t6,t3
    a098:	01dfefb3          	or	t6,t6,t4
    a09c:	040f8e63          	beqz	t6,a0f8 <__letf2+0xfe>
    a0a0:	e511                	bnez	a0,a0ac <__letf2+0xb2>
    a0a2:	01178963          	beq	a5,a7,a0b4 <__letf2+0xba>
    a0a6:	4505                	li	a0,1
    a0a8:	d7cd                	beqz	a5,a052 <__letf2+0x58>
    a0aa:	a019                	j	a0b0 <__letf2+0xb6>
    a0ac:	fa0893e3          	bnez	a7,a052 <__letf2+0x58>
    a0b0:	557d                	li	a0,-1
    a0b2:	b745                	j	a052 <__letf2+0x58>
    a0b4:	fee6c9e3          	blt	a3,a4,a0a6 <__letf2+0xac>
    a0b8:	00d75663          	ble	a3,a4,a0c4 <__letf2+0xca>
    a0bc:	557d                	li	a0,-1
    a0be:	dbd1                	beqz	a5,a052 <__letf2+0x58>
    a0c0:	4505                	li	a0,1
    a0c2:	bf41                	j	a052 <__letf2+0x58>
    a0c4:	febee1e3          	bltu	t4,a1,a0a6 <__letf2+0xac>
    a0c8:	03d59463          	bne	a1,t4,a0f0 <__letf2+0xf6>
    a0cc:	fd0e6de3          	bltu	t3,a6,a0a6 <__letf2+0xac>
    a0d0:	03c81b63          	bne	a6,t3,a106 <__letf2+0x10c>
    a0d4:	fcc369e3          	bltu	t1,a2,a0a6 <__letf2+0xac>
    a0d8:	00661463          	bne	a2,t1,a0e0 <__letf2+0xe6>
    a0dc:	fde2e5e3          	bltu	t0,t5,a0a6 <__letf2+0xac>
    a0e0:	fc666ee3          	bltu	a2,t1,a0bc <__letf2+0xc2>
    a0e4:	4501                	li	a0,0
    a0e6:	f66616e3          	bne	a2,t1,a052 <__letf2+0x58>
    a0ea:	fc5f69e3          	bltu	t5,t0,a0bc <__letf2+0xc2>
    a0ee:	b795                	j	a052 <__letf2+0x58>
    a0f0:	fdd5e6e3          	bltu	a1,t4,a0bc <__letf2+0xc2>
    a0f4:	4501                	li	a0,0
    a0f6:	bfb1                	j	a052 <__letf2+0x58>
    a0f8:	fd75                	bnez	a0,a0f4 <__letf2+0xfa>
    a0fa:	b775                	j	a0a6 <__letf2+0xac>
    a0fc:	f4e68fe3          	beq	a3,a4,a05a <__letf2+0x60>
    a100:	4501                	li	a0,0
    a102:	d6d9                	beqz	a3,a090 <__letf2+0x96>
    a104:	bf79                	j	a0a2 <__letf2+0xa8>
    a106:	fbc86be3          	bltu	a6,t3,a0bc <__letf2+0xc2>
    a10a:	b7ed                	j	a0f4 <__letf2+0xfa>

0000a10c <__multf3>:
    a10c:	7131                	addi	sp,sp,-192
    a10e:	d74e                	sw	s3,172(sp)
    a110:	00c5a983          	lw	s3,12(a1)
    a114:	4194                	lw	a3,0(a1)
    a116:	41dc                	lw	a5,4(a1)
    a118:	01099713          	slli	a4,s3,0x10
    a11c:	d94a                	sw	s2,176(sp)
    a11e:	d552                	sw	s4,168(sp)
    a120:	d356                	sw	s5,164(sp)
    a122:	d15a                	sw	s6,160(sp)
    a124:	c42a                	sw	a0,8(sp)
    a126:	00062a03          	lw	s4,0(a2) # 80100000 <pulp__FC+0x80100001>
    a12a:	4588                	lw	a0,8(a1)
    a12c:	00462b03          	lw	s6,4(a2)
    a130:	00862a83          	lw	s5,8(a2)
    a134:	00c62903          	lw	s2,12(a2)
    a138:	6621                	lui	a2,0x8
    a13a:	db26                	sw	s1,180(sp)
    a13c:	8341                	srli	a4,a4,0x10
    a13e:	0109d493          	srli	s1,s3,0x10
    a142:	167d                	addi	a2,a2,-1
    a144:	d6ce                	sw	s3,108(sp)
    a146:	df06                	sw	ra,188(sp)
    a148:	dd22                	sw	s0,184(sp)
    a14a:	cf5e                	sw	s7,156(sp)
    a14c:	cd62                	sw	s8,152(sp)
    a14e:	cb66                	sw	s9,148(sp)
    a150:	c96a                	sw	s10,144(sp)
    a152:	c76e                	sw	s11,140(sp)
    a154:	d0b6                	sw	a3,96(sp)
    a156:	d2be                	sw	a5,100(sp)
    a158:	d4aa                	sw	a0,104(sp)
    a15a:	d836                	sw	a3,48(sp)
    a15c:	da3e                	sw	a5,52(sp)
    a15e:	dc2a                	sw	a0,56(sp)
    a160:	de3a                	sw	a4,60(sp)
    a162:	8cf1                	and	s1,s1,a2
    a164:	01f9d993          	srli	s3,s3,0x1f
    a168:	ccc5                	beqz	s1,a220 <__multf3+0x114>
    a16a:	18c48463          	beq	s1,a2,a2f2 <__multf3+0x1e6>
    a16e:	67c1                	lui	a5,0x10
    a170:	8fd9                	or	a5,a5,a4
    a172:	de3e                	sw	a5,60(sp)
    a174:	1810                	addi	a2,sp,48
    a176:	187c                	addi	a5,sp,60
    a178:	4398                	lw	a4,0(a5)
    a17a:	ffc7a683          	lw	a3,-4(a5) # fffc <__bss_end+0x1f7c>
    a17e:	070e                	slli	a4,a4,0x3
    a180:	82f5                	srli	a3,a3,0x1d
    a182:	8f55                	or	a4,a4,a3
    a184:	c398                	sw	a4,0(a5)
    a186:	17f1                	addi	a5,a5,-4
    a188:	fef618e3          	bne	a2,a5,a178 <__multf3+0x6c>
    a18c:	57c2                	lw	a5,48(sp)
    a18e:	7571                	lui	a0,0xffffc
    a190:	078e                	slli	a5,a5,0x3
    a192:	0505                	addi	a0,a0,1
    a194:	d83e                	sw	a5,48(sp)
    a196:	94aa                	add	s1,s1,a0
    a198:	4b81                	li	s7,0
    a19a:	01091793          	slli	a5,s2,0x10
    a19e:	6721                	lui	a4,0x8
    a1a0:	01095513          	srli	a0,s2,0x10
    a1a4:	83c1                	srli	a5,a5,0x10
    a1a6:	177d                	addi	a4,a4,-1
    a1a8:	d6ca                	sw	s2,108(sp)
    a1aa:	d0d2                	sw	s4,96(sp)
    a1ac:	d2da                	sw	s6,100(sp)
    a1ae:	d4d6                	sw	s5,104(sp)
    a1b0:	c0d2                	sw	s4,64(sp)
    a1b2:	c2da                	sw	s6,68(sp)
    a1b4:	c4d6                	sw	s5,72(sp)
    a1b6:	c6be                	sw	a5,76(sp)
    a1b8:	8d79                	and	a0,a0,a4
    a1ba:	01f95913          	srli	s2,s2,0x1f
    a1be:	14050563          	beqz	a0,a308 <__multf3+0x1fc>
    a1c2:	22e50663          	beq	a0,a4,a3ee <__multf3+0x2e2>
    a1c6:	6ac1                	lui	s5,0x10
    a1c8:	0157eab3          	or	s5,a5,s5
    a1cc:	c6d6                	sw	s5,76(sp)
    a1ce:	0090                	addi	a2,sp,64
    a1d0:	00fc                	addi	a5,sp,76
    a1d2:	4398                	lw	a4,0(a5)
    a1d4:	ffc7a683          	lw	a3,-4(a5)
    a1d8:	070e                	slli	a4,a4,0x3
    a1da:	82f5                	srli	a3,a3,0x1d
    a1dc:	8f55                	or	a4,a4,a3
    a1de:	c398                	sw	a4,0(a5)
    a1e0:	17f1                	addi	a5,a5,-4
    a1e2:	fef618e3          	bne	a2,a5,a1d2 <__multf3+0xc6>
    a1e6:	4786                	lw	a5,64(sp)
    a1e8:	078e                	slli	a5,a5,0x3
    a1ea:	c0be                	sw	a5,64(sp)
    a1ec:	77f1                	lui	a5,0xffffc
    a1ee:	0785                	addi	a5,a5,1
    a1f0:	953e                	add	a0,a0,a5
    a1f2:	4701                	li	a4,0
    a1f4:	94aa                	add	s1,s1,a0
    a1f6:	002b9793          	slli	a5,s7,0x2
    a1fa:	0129c5b3          	xor	a1,s3,s2
    a1fe:	00148613          	addi	a2,s1,1 # 800001 <__heap_end+0x400001>
    a202:	8fd9                	or	a5,a5,a4
    a204:	ca2e                	sw	a1,20(sp)
    a206:	d226                	sw	s1,36(sp)
    a208:	d032                	sw	a2,32(sp)
    a20a:	17fd                	addi	a5,a5,-1
    a20c:	46b9                	li	a3,14
    a20e:	1ef6ee63          	bltu	a3,a5,a40a <__multf3+0x2fe>
    a212:	66b5                	lui	a3,0xd
    a214:	078a                	slli	a5,a5,0x2
    a216:	50068693          	addi	a3,a3,1280 # d500 <zeroes.4346+0x88>
    a21a:	97b6                	add	a5,a5,a3
    a21c:	439c                	lw	a5,0(a5)
    a21e:	8782                	jr	a5
    a220:	00d7e633          	or	a2,a5,a3
    a224:	8e49                	or	a2,a2,a0
    a226:	8e59                	or	a2,a2,a4
    a228:	ce69                	beqz	a2,a302 <__multf3+0x1f6>
    a22a:	c321                	beqz	a4,a26a <__multf3+0x15e>
    a22c:	853a                	mv	a0,a4
    a22e:	6e5010ef          	jal	ra,c112 <__clzsi2>
    a232:	ff450713          	addi	a4,a0,-12 # ffffbff4 <pulp__FC+0xffffbff5>
    a236:	40575793          	srai	a5,a4,0x5
    a23a:	8b7d                	andi	a4,a4,31
    a23c:	cb31                	beqz	a4,a290 <__multf3+0x184>
    a23e:	56f1                	li	a3,-4
    a240:	02000813          	li	a6,32
    a244:	02d786b3          	mul	a3,a5,a3
    a248:	00279593          	slli	a1,a5,0x2
    a24c:	5e41                	li	t3,-16
    a24e:	40e80833          	sub	a6,a6,a4
    a252:	16f1                	addi	a3,a3,-4
    a254:	07c69363          	bne	a3,t3,a2ba <__multf3+0x1ae>
    a258:	0114                	addi	a3,sp,128
    a25a:	95b6                	add	a1,a1,a3
    a25c:	56c2                	lw	a3,48(sp)
    a25e:	17fd                	addi	a5,a5,-1
    a260:	00e69733          	sll	a4,a3,a4
    a264:	fae5a823          	sw	a4,-80(a1)
    a268:	a091                	j	a2ac <__multf3+0x1a0>
    a26a:	c511                	beqz	a0,a276 <__multf3+0x16a>
    a26c:	6a7010ef          	jal	ra,c112 <__clzsi2>
    a270:	02050513          	addi	a0,a0,32
    a274:	bf7d                	j	a232 <__multf3+0x126>
    a276:	c799                	beqz	a5,a284 <__multf3+0x178>
    a278:	853e                	mv	a0,a5
    a27a:	699010ef          	jal	ra,c112 <__clzsi2>
    a27e:	04050513          	addi	a0,a0,64
    a282:	bf45                	j	a232 <__multf3+0x126>
    a284:	8536                	mv	a0,a3
    a286:	68d010ef          	jal	ra,c112 <__clzsi2>
    a28a:	06050513          	addi	a0,a0,96
    a28e:	b755                	j	a232 <__multf3+0x126>
    a290:	5671                	li	a2,-4
    a292:	1818                	addi	a4,sp,48
    a294:	02c78633          	mul	a2,a5,a2
    a298:	468d                	li	a3,3
    a29a:	00c705b3          	add	a1,a4,a2
    a29e:	45cc                	lw	a1,12(a1)
    a2a0:	16fd                	addi	a3,a3,-1
    a2a2:	c74c                	sw	a1,12(a4)
    a2a4:	1771                	addi	a4,a4,-4
    a2a6:	fef6dae3          	ble	a5,a3,a29a <__multf3+0x18e>
    a2aa:	17fd                	addi	a5,a5,-1
    a2ac:	56fd                	li	a3,-1
    a2ae:	02d79963          	bne	a5,a3,a2e0 <__multf3+0x1d4>
    a2b2:	74f1                	lui	s1,0xffffc
    a2b4:	04c5                	addi	s1,s1,17
    a2b6:	8c89                	sub	s1,s1,a0
    a2b8:	b5c5                	j	a198 <__multf3+0x8c>
    a2ba:	1810                	addi	a2,sp,48
    a2bc:	00d60333          	add	t1,a2,a3
    a2c0:	00d588b3          	add	a7,a1,a3
    a2c4:	98b2                	add	a7,a7,a2
    a2c6:	00c32603          	lw	a2,12(t1)
    a2ca:	01032303          	lw	t1,16(t1)
    a2ce:	01065633          	srl	a2,a2,a6
    a2d2:	00e31333          	sll	t1,t1,a4
    a2d6:	00666633          	or	a2,a2,t1
    a2da:	00c8a823          	sw	a2,16(a7)
    a2de:	bf95                	j	a252 <__multf3+0x146>
    a2e0:	00279713          	slli	a4,a5,0x2
    a2e4:	03010813          	addi	a6,sp,48
    a2e8:	9742                	add	a4,a4,a6
    a2ea:	00072023          	sw	zero,0(a4) # 8000 <__ascii_wctomb+0x1c>
    a2ee:	17fd                	addi	a5,a5,-1
    a2f0:	bf7d                	j	a2ae <__multf3+0x1a2>
    a2f2:	8fd5                	or	a5,a5,a3
    a2f4:	8fc9                	or	a5,a5,a0
    a2f6:	8fd9                	or	a5,a5,a4
    a2f8:	4b89                	li	s7,2
    a2fa:	ea0780e3          	beqz	a5,a19a <__multf3+0x8e>
    a2fe:	4b8d                	li	s7,3
    a300:	bd69                	j	a19a <__multf3+0x8e>
    a302:	4481                	li	s1,0
    a304:	4b85                	li	s7,1
    a306:	bd51                	j	a19a <__multf3+0x8e>
    a308:	016a6733          	or	a4,s4,s6
    a30c:	01576733          	or	a4,a4,s5
    a310:	8f5d                	or	a4,a4,a5
    a312:	0e070963          	beqz	a4,a404 <__multf3+0x2f8>
    a316:	c3a9                	beqz	a5,a358 <__multf3+0x24c>
    a318:	853e                	mv	a0,a5
    a31a:	5f9010ef          	jal	ra,c112 <__clzsi2>
    a31e:	ff450713          	addi	a4,a0,-12
    a322:	40575793          	srai	a5,a4,0x5
    a326:	8b7d                	andi	a4,a4,31
    a328:	cf31                	beqz	a4,a384 <__multf3+0x278>
    a32a:	56f1                	li	a3,-4
    a32c:	02000813          	li	a6,32
    a330:	02d786b3          	mul	a3,a5,a3
    a334:	00279593          	slli	a1,a5,0x2
    a338:	5e41                	li	t3,-16
    a33a:	40e80833          	sub	a6,a6,a4
    a33e:	16f1                	addi	a3,a3,-4
    a340:	07c69863          	bne	a3,t3,a3b0 <__multf3+0x2a4>
    a344:	4686                	lw	a3,64(sp)
    a346:	08010e13          	addi	t3,sp,128
    a34a:	95f2                	add	a1,a1,t3
    a34c:	00e69733          	sll	a4,a3,a4
    a350:	17fd                	addi	a5,a5,-1
    a352:	fce5a023          	sw	a4,-64(a1)
    a356:	a0a9                	j	a3a0 <__multf3+0x294>
    a358:	000a8863          	beqz	s5,a368 <__multf3+0x25c>
    a35c:	8556                	mv	a0,s5
    a35e:	5b5010ef          	jal	ra,c112 <__clzsi2>
    a362:	02050513          	addi	a0,a0,32
    a366:	bf65                	j	a31e <__multf3+0x212>
    a368:	000b0863          	beqz	s6,a378 <__multf3+0x26c>
    a36c:	855a                	mv	a0,s6
    a36e:	5a5010ef          	jal	ra,c112 <__clzsi2>
    a372:	04050513          	addi	a0,a0,64
    a376:	b765                	j	a31e <__multf3+0x212>
    a378:	8552                	mv	a0,s4
    a37a:	599010ef          	jal	ra,c112 <__clzsi2>
    a37e:	06050513          	addi	a0,a0,96
    a382:	bf71                	j	a31e <__multf3+0x212>
    a384:	5671                	li	a2,-4
    a386:	0098                	addi	a4,sp,64
    a388:	02c78633          	mul	a2,a5,a2
    a38c:	468d                	li	a3,3
    a38e:	00c705b3          	add	a1,a4,a2
    a392:	45cc                	lw	a1,12(a1)
    a394:	16fd                	addi	a3,a3,-1
    a396:	c74c                	sw	a1,12(a4)
    a398:	1771                	addi	a4,a4,-4
    a39a:	fef6dae3          	ble	a5,a3,a38e <__multf3+0x282>
    a39e:	17fd                	addi	a5,a5,-1
    a3a0:	56fd                	li	a3,-1
    a3a2:	02d79d63          	bne	a5,a3,a3dc <__multf3+0x2d0>
    a3a6:	77f1                	lui	a5,0xffffc
    a3a8:	07c5                	addi	a5,a5,17
    a3aa:	40a78533          	sub	a0,a5,a0
    a3ae:	b591                	j	a1f2 <__multf3+0xe6>
    a3b0:	04010893          	addi	a7,sp,64
    a3b4:	00d88333          	add	t1,a7,a3
    a3b8:	00c32603          	lw	a2,12(t1)
    a3bc:	01032303          	lw	t1,16(t1)
    a3c0:	00d588b3          	add	a7,a1,a3
    a3c4:	04010d13          	addi	s10,sp,64
    a3c8:	01065633          	srl	a2,a2,a6
    a3cc:	00e31333          	sll	t1,t1,a4
    a3d0:	98ea                	add	a7,a7,s10
    a3d2:	00666633          	or	a2,a2,t1
    a3d6:	00c8a823          	sw	a2,16(a7)
    a3da:	b795                	j	a33e <__multf3+0x232>
    a3dc:	00279713          	slli	a4,a5,0x2
    a3e0:	04010f93          	addi	t6,sp,64
    a3e4:	977e                	add	a4,a4,t6
    a3e6:	00072023          	sw	zero,0(a4)
    a3ea:	17fd                	addi	a5,a5,-1
    a3ec:	bf5d                	j	a3a2 <__multf3+0x296>
    a3ee:	016a6a33          	or	s4,s4,s6
    a3f2:	015a6ab3          	or	s5,s4,s5
    a3f6:	00faeab3          	or	s5,s5,a5
    a3fa:	4709                	li	a4,2
    a3fc:	de0a8ce3          	beqz	s5,a1f4 <__multf3+0xe8>
    a400:	470d                	li	a4,3
    a402:	bbcd                	j	a1f4 <__multf3+0xe8>
    a404:	4501                	li	a0,0
    a406:	4705                	li	a4,1
    a408:	b3f5                	j	a1f4 <__multf3+0xe8>
    a40a:	5742                	lw	a4,48(sp)
    a40c:	4e06                	lw	t3,64(sp)
    a40e:	6541                	lui	a0,0x10
    a410:	fff50693          	addi	a3,a0,-1 # ffff <__bss_end+0x1f7f>
    a414:	01075293          	srli	t0,a4,0x10
    a418:	010e5a93          	srli	s5,t3,0x10
    a41c:	8f75                	and	a4,a4,a3
    a41e:	00de7e33          	and	t3,t3,a3
    a422:	02ea87b3          	mul	a5,s5,a4
    a426:	03c70633          	mul	a2,a4,t3
    a42a:	03c28833          	mul	a6,t0,t3
    a42e:	010785b3          	add	a1,a5,a6
    a432:	01065793          	srli	a5,a2,0x10
    a436:	97ae                	add	a5,a5,a1
    a438:	03528fb3          	mul	t6,t0,s5
    a43c:	0107f363          	bleu	a6,a5,a442 <__multf3+0x336>
    a440:	9faa                	add	t6,t6,a0
    a442:	4f16                	lw	t5,68(sp)
    a444:	0107db93          	srli	s7,a5,0x10
    a448:	8ff5                	and	a5,a5,a3
    a44a:	07c2                	slli	a5,a5,0x10
    a44c:	8e75                	and	a2,a2,a3
    a44e:	963e                	add	a2,a2,a5
    a450:	010f5913          	srli	s2,t5,0x10
    a454:	00df7f33          	and	t5,t5,a3
    a458:	02e907b3          	mul	a5,s2,a4
    a45c:	d432                	sw	a2,40(sp)
    a45e:	d0b2                	sw	a2,96(sp)
    a460:	03e706b3          	mul	a3,a4,t5
    a464:	03e28633          	mul	a2,t0,t5
    a468:	00c78833          	add	a6,a5,a2
    a46c:	0106d793          	srli	a5,a3,0x10
    a470:	97c2                	add	a5,a5,a6
    a472:	03228b33          	mul	s6,t0,s2
    a476:	00c7f463          	bleu	a2,a5,a47e <__multf3+0x372>
    a47a:	6641                	lui	a2,0x10
    a47c:	9b32                	add	s6,s6,a2
    a47e:	6641                	lui	a2,0x10
    a480:	fff60593          	addi	a1,a2,-1 # ffff <__bss_end+0x1f7f>
    a484:	00b7f833          	and	a6,a5,a1
    a488:	0107dd93          	srli	s11,a5,0x10
    a48c:	57d2                	lw	a5,52(sp)
    a48e:	8eed                	and	a3,a3,a1
    a490:	0107d993          	srli	s3,a5,0x10
    a494:	8dfd                	and	a1,a1,a5
    a496:	0842                	slli	a6,a6,0x10
    a498:	9836                	add	a6,a6,a3
    a49a:	02ba87b3          	mul	a5,s5,a1
    a49e:	02be06b3          	mul	a3,t3,a1
    a4a2:	03c98333          	mul	t1,s3,t3
    a4a6:	006788b3          	add	a7,a5,t1
    a4aa:	0106d793          	srli	a5,a3,0x10
    a4ae:	97c6                	add	a5,a5,a7
    a4b0:	9bc2                	add	s7,s7,a6
    a4b2:	033a8533          	mul	a0,s5,s3
    a4b6:	0067f363          	bleu	t1,a5,a4bc <__multf3+0x3b0>
    a4ba:	9532                	add	a0,a0,a2
    a4bc:	0107d393          	srli	t2,a5,0x10
    a4c0:	6641                	lui	a2,0x10
    a4c2:	93aa                	add	t2,t2,a0
    a4c4:	fff60513          	addi	a0,a2,-1 # ffff <__bss_end+0x1f7f>
    a4c8:	00a7f8b3          	and	a7,a5,a0
    a4cc:	8ee9                	and	a3,a3,a0
    a4ce:	08c2                	slli	a7,a7,0x10
    a4d0:	98b6                	add	a7,a7,a3
    a4d2:	03e987b3          	mul	a5,s3,t5
    a4d6:	02bf06b3          	mul	a3,t5,a1
    a4da:	02b90533          	mul	a0,s2,a1
    a4de:	953e                	add	a0,a0,a5
    a4e0:	0106de93          	srli	t4,a3,0x10
    a4e4:	9576                	add	a0,a0,t4
    a4e6:	03390333          	mul	t1,s2,s3
    a4ea:	00f57363          	bleu	a5,a0,a4f0 <__multf3+0x3e4>
    a4ee:	9332                	add	t1,t1,a2
    a4f0:	01055793          	srli	a5,a0,0x10
    a4f4:	979a                	add	a5,a5,t1
    a4f6:	4ea6                	lw	t4,72(sp)
    a4f8:	64c1                	lui	s1,0x10
    a4fa:	c63e                	sw	a5,12(sp)
    a4fc:	fff48793          	addi	a5,s1,-1 # ffff <__bss_end+0x1f7f>
    a500:	010ed413          	srli	s0,t4,0x10
    a504:	8d7d                	and	a0,a0,a5
    a506:	00fefeb3          	and	t4,t4,a5
    a50a:	8efd                	and	a3,a3,a5
    a50c:	0542                	slli	a0,a0,0x10
    a50e:	03d70333          	mul	t1,a4,t4
    a512:	03d28a33          	mul	s4,t0,t4
    a516:	02e407b3          	mul	a5,s0,a4
    a51a:	9536                	add	a0,a0,a3
    a51c:	97d2                	add	a5,a5,s4
    a51e:	01035693          	srli	a3,t1,0x10
    a522:	97b6                	add	a5,a5,a3
    a524:	02828633          	mul	a2,t0,s0
    a528:	0147f363          	bleu	s4,a5,a52e <__multf3+0x422>
    a52c:	9626                	add	a2,a2,s1
    a52e:	0107d693          	srli	a3,a5,0x10
    a532:	6c41                	lui	s8,0x10
    a534:	96b2                	add	a3,a3,a2
    a536:	fffc0613          	addi	a2,s8,-1 # ffff <__bss_end+0x1f7f>
    a53a:	c836                	sw	a3,16(sp)
    a53c:	00c7f6b3          	and	a3,a5,a2
    a540:	57e2                	lw	a5,56(sp)
    a542:	00c37333          	and	t1,t1,a2
    a546:	0107d493          	srli	s1,a5,0x10
    a54a:	8e7d                	and	a2,a2,a5
    a54c:	02ce0a33          	mul	s4,t3,a2
    a550:	03c48cb3          	mul	s9,s1,t3
    a554:	02ca87b3          	mul	a5,s5,a2
    a558:	97e6                	add	a5,a5,s9
    a55a:	010a5d13          	srli	s10,s4,0x10
    a55e:	06c2                	slli	a3,a3,0x10
    a560:	97ea                	add	a5,a5,s10
    a562:	969a                	add	a3,a3,t1
    a564:	029a8333          	mul	t1,s5,s1
    a568:	0197f363          	bleu	s9,a5,a56e <__multf3+0x462>
    a56c:	9362                	add	t1,t1,s8
    a56e:	0107dc13          	srli	s8,a5,0x10
    a572:	9fde                	add	t6,t6,s7
    a574:	9362                	add	t1,t1,s8
    a576:	010fb833          	sltu	a6,t6,a6
    a57a:	6c41                	lui	s8,0x10
    a57c:	fffc0c93          	addi	s9,s8,-1 # ffff <__bss_end+0x1f7f>
    a580:	9dc2                	add	s11,s11,a6
    a582:	9fc6                	add	t6,t6,a7
    a584:	9b6e                	add	s6,s6,s11
    a586:	0197f7b3          	and	a5,a5,s9
    a58a:	011fb8b3          	sltu	a7,t6,a7
    a58e:	07c2                	slli	a5,a5,0x10
    a590:	019a7a33          	and	s4,s4,s9
    a594:	cc7e                	sw	t6,24(sp)
    a596:	d2fe                	sw	t6,100(sp)
    a598:	007b0fb3          	add	t6,s6,t2
    a59c:	9a3e                	add	s4,s4,a5
    a59e:	011f87b3          	add	a5,t6,a7
    a5a2:	007fb3b3          	sltu	t2,t6,t2
    a5a6:	0117b8b3          	sltu	a7,a5,a7
    a5aa:	0113e3b3          	or	t2,t2,a7
    a5ae:	00a78bb3          	add	s7,a5,a0
    a5b2:	0ff3f393          	andi	t2,t2,255
    a5b6:	010b3b33          	sltu	s6,s6,a6
    a5ba:	47b2                	lw	a5,12(sp)
    a5bc:	9b1e                	add	s6,s6,t2
    a5be:	00abb533          	sltu	a0,s7,a0
    a5c2:	9b3e                	add	s6,s6,a5
    a5c4:	4842                	lw	a6,16(sp)
    a5c6:	00ab0db3          	add	s11,s6,a0
    a5ca:	9bb6                	add	s7,s7,a3
    a5cc:	00dbb6b3          	sltu	a3,s7,a3
    a5d0:	010d88b3          	add	a7,s11,a6
    a5d4:	9bd2                	add	s7,s7,s4
    a5d6:	00d88d33          	add	s10,a7,a3
    a5da:	4fc2                	lw	t6,16(sp)
    a5dc:	014bba33          	sltu	s4,s7,s4
    a5e0:	006d03b3          	add	t2,s10,t1
    a5e4:	014387b3          	add	a5,t2,s4
    a5e8:	01f8b8b3          	sltu	a7,a7,t6
    a5ec:	0063bfb3          	sltu	t6,t2,t1
    a5f0:	837e                	mv	t1,t6
    a5f2:	0147bfb3          	sltu	t6,a5,s4
    a5f6:	8a7e                	mv	s4,t6
    a5f8:	4832                	lw	a6,12(sp)
    a5fa:	01436fb3          	or	t6,t1,s4
    a5fe:	4336                	lw	t1,76(sp)
    a600:	010b3b33          	sltu	s6,s6,a6
    a604:	00adb533          	sltu	a0,s11,a0
    a608:	00dd36b3          	sltu	a3,s10,a3
    a60c:	01035393          	srli	t2,t1,0x10
    a610:	01937333          	and	t1,t1,s9
    a614:	00d8e8b3          	or	a7,a7,a3
    a618:	00ab6b33          	or	s6,s6,a0
    a61c:	026286b3          	mul	a3,t0,t1
    a620:	02670533          	mul	a0,a4,t1
    a624:	02e38733          	mul	a4,t2,a4
    a628:	ce5e                	sw	s7,28(sp)
    a62a:	d4de                	sw	s7,104(sp)
    a62c:	0ffb7b13          	andi	s6,s6,255
    a630:	0ff8fb93          	andi	s7,a7,255
    a634:	9736                	add	a4,a4,a3
    a636:	01055893          	srli	a7,a0,0x10
    a63a:	0fffff93          	andi	t6,t6,255
    a63e:	9b5e                	add	s6,s6,s7
    a640:	98ba                	add	a7,a7,a4
    a642:	01fb0bb3          	add	s7,s6,t6
    a646:	02728fb3          	mul	t6,t0,t2
    a64a:	00d8f363          	bleu	a3,a7,a650 <__multf3+0x544>
    a64e:	9fe2                	add	t6,t6,s8
    a650:	0108d293          	srli	t0,a7,0x10
    a654:	5a72                	lw	s4,60(sp)
    a656:	66c1                	lui	a3,0x10
    a658:	fff68813          	addi	a6,a3,-1 # ffff <__bss_end+0x1f7f>
    a65c:	92fe                	add	t0,t0,t6
    a65e:	c616                	sw	t0,12(sp)
    a660:	010a5293          	srli	t0,s4,0x10
    a664:	010a7a33          	and	s4,s4,a6
    a668:	034e0733          	mul	a4,t3,s4
    a66c:	025a8b33          	mul	s6,s5,t0
    a670:	03c28e33          	mul	t3,t0,t3
    a674:	034a8ab3          	mul	s5,s5,s4
    a678:	0108f8b3          	and	a7,a7,a6
    a67c:	01057533          	and	a0,a0,a6
    a680:	9af2                	add	s5,s5,t3
    a682:	01075813          	srli	a6,a4,0x10
    a686:	08c2                	slli	a7,a7,0x10
    a688:	9ac2                	add	s5,s5,a6
    a68a:	98aa                	add	a7,a7,a0
    a68c:	01caf363          	bleu	t3,s5,a692 <__multf3+0x586>
    a690:	9b36                	add	s6,s6,a3
    a692:	010ad693          	srli	a3,s5,0x10
    a696:	96da                	add	a3,a3,s6
    a698:	6b41                	lui	s6,0x10
    a69a:	c836                	sw	a3,16(sp)
    a69c:	fffb0693          	addi	a3,s6,-1 # ffff <__bss_end+0x1f7f>
    a6a0:	8f75                	and	a4,a4,a3
    a6a2:	00daf833          	and	a6,s5,a3
    a6a6:	03d58e33          	mul	t3,a1,t4
    a6aa:	03d98fb3          	mul	t6,s3,t4
    a6ae:	02b406b3          	mul	a3,s0,a1
    a6b2:	96fe                	add	a3,a3,t6
    a6b4:	010e5513          	srli	a0,t3,0x10
    a6b8:	0842                	slli	a6,a6,0x10
    a6ba:	96aa                	add	a3,a3,a0
    a6bc:	983a                	add	a6,a6,a4
    a6be:	02898733          	mul	a4,s3,s0
    a6c2:	01f6f363          	bleu	t6,a3,a6c8 <__multf3+0x5bc>
    a6c6:	975a                	add	a4,a4,s6
    a6c8:	0106d513          	srli	a0,a3,0x10
    a6cc:	6b41                	lui	s6,0x10
    a6ce:	953a                	add	a0,a0,a4
    a6d0:	fffb0713          	addi	a4,s6,-1 # ffff <__bss_end+0x1f7f>
    a6d4:	d62a                	sw	a0,44(sp)
    a6d6:	00e6f533          	and	a0,a3,a4
    a6da:	00ee7e33          	and	t3,t3,a4
    a6de:	0542                	slli	a0,a0,0x10
    a6e0:	9572                	add	a0,a0,t3
    a6e2:	03e48fb3          	mul	t6,s1,t5
    a6e6:	02cf0e33          	mul	t3,t5,a2
    a6ea:	02c90733          	mul	a4,s2,a2
    a6ee:	977e                	add	a4,a4,t6
    a6f0:	010e5693          	srli	a3,t3,0x10
    a6f4:	9736                	add	a4,a4,a3
    a6f6:	02990ab3          	mul	s5,s2,s1
    a6fa:	01f77363          	bleu	t6,a4,a700 <__multf3+0x5f4>
    a6fe:	9ada                	add	s5,s5,s6
    a700:	6dc1                	lui	s11,0x10
    a702:	fffd8f93          	addi	t6,s11,-1 # ffff <__bss_end+0x1f7f>
    a706:	01f776b3          	and	a3,a4,t6
    a70a:	01075d13          	srli	s10,a4,0x10
    a70e:	4732                	lw	a4,12(sp)
    a710:	9d56                	add	s10,s10,s5
    a712:	97c6                	add	a5,a5,a7
    a714:	9bba                	add	s7,s7,a4
    a716:	c06a                	sw	s10,0(sp)
    a718:	0117b8b3          	sltu	a7,a5,a7
    a71c:	4d42                	lw	s10,16(sp)
    a71e:	01fe7e33          	and	t3,t3,t6
    a722:	011b8cb3          	add	s9,s7,a7
    a726:	97c2                	add	a5,a5,a6
    a728:	06c2                	slli	a3,a3,0x10
    a72a:	96f2                	add	a3,a3,t3
    a72c:	0107b833          	sltu	a6,a5,a6
    a730:	01ac8b33          	add	s6,s9,s10
    a734:	5e32                	lw	t3,44(sp)
    a736:	010b0c33          	add	s8,s6,a6
    a73a:	97aa                	add	a5,a5,a0
    a73c:	00a7b533          	sltu	a0,a5,a0
    a740:	01cc0733          	add	a4,s8,t3
    a744:	4f82                	lw	t6,0(sp)
    a746:	c25e                	sw	s7,4(sp)
    a748:	00a70bb3          	add	s7,a4,a0
    a74c:	01fb8ab3          	add	s5,s7,t6
    a750:	4d12                	lw	s10,4(sp)
    a752:	4fb2                	lw	t6,12(sp)
    a754:	011cb8b3          	sltu	a7,s9,a7
    a758:	01fd3d33          	sltu	s10,s10,t6
    a75c:	8fea                	mv	t6,s10
    a75e:	011fefb3          	or	t6,t6,a7
    a762:	48c2                	lw	a7,16(sp)
    a764:	5d32                	lw	s10,44(sp)
    a766:	011b3b33          	sltu	s6,s6,a7
    a76a:	010c3833          	sltu	a6,s8,a6
    a76e:	010b6b33          	or	s6,s6,a6
    a772:	01a73733          	sltu	a4,a4,s10
    a776:	00abb533          	sltu	a0,s7,a0
    a77a:	0ffb7b13          	andi	s6,s6,255
    a77e:	0fffff93          	andi	t6,t6,255
    a782:	9fda                	add	t6,t6,s6
    a784:	97b6                	add	a5,a5,a3
    a786:	00a76b33          	or	s6,a4,a0
    a78a:	4502                	lw	a0,0(sp)
    a78c:	00d7b6b3          	sltu	a3,a5,a3
    a790:	0ffb7b13          	andi	s6,s6,255
    a794:	00da8e33          	add	t3,s5,a3
    a798:	9b7e                	add	s6,s6,t6
    a79a:	00aabfb3          	sltu	t6,s5,a0
    a79e:	8d7e                	mv	s10,t6
    a7a0:	00de3fb3          	sltu	t6,t3,a3
    a7a4:	86fe                	mv	a3,t6
    a7a6:	00dd6fb3          	or	t6,s10,a3
    a7aa:	03d48833          	mul	a6,s1,t4
    a7ae:	02ce86b3          	mul	a3,t4,a2
    a7b2:	02c40733          	mul	a4,s0,a2
    a7b6:	9742                	add	a4,a4,a6
    a7b8:	0106d513          	srli	a0,a3,0x10
    a7bc:	0ffffa93          	andi	s5,t6,255
    a7c0:	d6be                	sw	a5,108(sp)
    a7c2:	972a                	add	a4,a4,a0
    a7c4:	015b0fb3          	add	t6,s6,s5
    a7c8:	029408b3          	mul	a7,s0,s1
    a7cc:	01077363          	bleu	a6,a4,a7d2 <__multf3+0x6c6>
    a7d0:	98ee                	add	a7,a7,s11
    a7d2:	01075a93          	srli	s5,a4,0x10
    a7d6:	6841                	lui	a6,0x10
    a7d8:	9ac6                	add	s5,s5,a7
    a7da:	fff80893          	addi	a7,a6,-1 # ffff <__bss_end+0x1f7f>
    a7de:	01177533          	and	a0,a4,a7
    a7e2:	0116f6b3          	and	a3,a3,a7
    a7e6:	02698b33          	mul	s6,s3,t1
    a7ea:	026588b3          	mul	a7,a1,t1
    a7ee:	0542                	slli	a0,a0,0x10
    a7f0:	02b385b3          	mul	a1,t2,a1
    a7f4:	9536                	add	a0,a0,a3
    a7f6:	95da                	add	a1,a1,s6
    a7f8:	0108d693          	srli	a3,a7,0x10
    a7fc:	96ae                	add	a3,a3,a1
    a7fe:	027989b3          	mul	s3,s3,t2
    a802:	0166f363          	bleu	s6,a3,a808 <__multf3+0x6fc>
    a806:	99c2                	add	s3,s3,a6
    a808:	0106d713          	srli	a4,a3,0x10
    a80c:	6841                	lui	a6,0x10
    a80e:	99ba                	add	s3,s3,a4
    a810:	fff80713          	addi	a4,a6,-1 # ffff <__bss_end+0x1f7f>
    a814:	00e6f5b3          	and	a1,a3,a4
    a818:	00e8f8b3          	and	a7,a7,a4
    a81c:	05c2                	slli	a1,a1,0x10
    a81e:	034f0733          	mul	a4,t5,s4
    a822:	025906b3          	mul	a3,s2,t0
    a826:	03e28f33          	mul	t5,t0,t5
    a82a:	03490933          	mul	s2,s2,s4
    a82e:	95c6                	add	a1,a1,a7
    a830:	997a                	add	s2,s2,t5
    a832:	01075893          	srli	a7,a4,0x10
    a836:	9946                	add	s2,s2,a7
    a838:	01e97363          	bleu	t5,s2,a83e <__multf3+0x732>
    a83c:	96c2                	add	a3,a3,a6
    a83e:	01095b13          	srli	s6,s2,0x10
    a842:	6841                	lui	a6,0x10
    a844:	9b36                	add	s6,s6,a3
    a846:	fff80693          	addi	a3,a6,-1 # ffff <__bss_end+0x1f7f>
    a84a:	00d97f33          	and	t5,s2,a3
    a84e:	8f75                	and	a4,a4,a3
    a850:	0f42                	slli	t5,t5,0x10
    a852:	026488b3          	mul	a7,s1,t1
    a856:	9f3a                	add	t5,t5,a4
    a858:	02660733          	mul	a4,a2,t1
    a85c:	02c38633          	mul	a2,t2,a2
    a860:	9646                	add	a2,a2,a7
    a862:	01075693          	srli	a3,a4,0x10
    a866:	9636                	add	a2,a2,a3
    a868:	027484b3          	mul	s1,s1,t2
    a86c:	01167363          	bleu	a7,a2,a872 <__multf3+0x766>
    a870:	94c2                	add	s1,s1,a6
    a872:	68c1                	lui	a7,0x10
    a874:	01065693          	srli	a3,a2,0x10
    a878:	fff88813          	addi	a6,a7,-1 # ffff <__bss_end+0x1f7f>
    a87c:	94b6                	add	s1,s1,a3
    a87e:	010676b3          	and	a3,a2,a6
    a882:	01077733          	and	a4,a4,a6
    a886:	06c2                	slli	a3,a3,0x10
    a888:	96ba                	add	a3,a3,a4
    a88a:	03440833          	mul	a6,s0,s4
    a88e:	034e8733          	mul	a4,t4,s4
    a892:	03d28eb3          	mul	t4,t0,t4
    a896:	9876                	add	a6,a6,t4
    a898:	01075913          	srli	s2,a4,0x10
    a89c:	984a                	add	a6,a6,s2
    a89e:	02540633          	mul	a2,s0,t0
    a8a2:	01d87363          	bleu	t4,a6,a8a8 <__multf3+0x79c>
    a8a6:	9646                	add	a2,a2,a7
    a8a8:	6bc1                	lui	s7,0x10
    a8aa:	fffb8e93          	addi	t4,s7,-1 # ffff <__bss_end+0x1f7f>
    a8ae:	9e2a                	add	t3,t3,a0
    a8b0:	00ae3533          	sltu	a0,t3,a0
    a8b4:	01085913          	srli	s2,a6,0x10
    a8b8:	9fd6                	add	t6,t6,s5
    a8ba:	01d87833          	and	a6,a6,t4
    a8be:	01d77733          	and	a4,a4,t4
    a8c2:	00af8cb3          	add	s9,t6,a0
    a8c6:	9e2e                	add	t3,t3,a1
    a8c8:	0842                	slli	a6,a6,0x10
    a8ca:	983a                	add	a6,a6,a4
    a8cc:	00be35b3          	sltu	a1,t3,a1
    a8d0:	013c8733          	add	a4,s9,s3
    a8d4:	00b70c33          	add	s8,a4,a1
    a8d8:	9e7a                	add	t3,t3,t5
    a8da:	016c08b3          	add	a7,s8,s6
    a8de:	d8f2                	sw	t3,112(sp)
    a8e0:	01ee3e33          	sltu	t3,t3,t5
    a8e4:	01c88f33          	add	t5,a7,t3
    a8e8:	015fbab3          	sltu	s5,t6,s5
    a8ec:	0168b8b3          	sltu	a7,a7,s6
    a8f0:	00acb533          	sltu	a0,s9,a0
    a8f4:	01373733          	sltu	a4,a4,s3
    a8f8:	00bc35b3          	sltu	a1,s8,a1
    a8fc:	8b46                	mv	s6,a7
    a8fe:	01cf38b3          	sltu	a7,t5,t3
    a902:	8f4d                	or	a4,a4,a1
    a904:	00aaeab3          	or	s5,s5,a0
    a908:	0ff77713          	andi	a4,a4,255
    a90c:	0ffafa93          	andi	s5,s5,255
    a910:	011b68b3          	or	a7,s6,a7
    a914:	9aba                	add	s5,s5,a4
    a916:	0ff8f893          	andi	a7,a7,255
    a91a:	9932                	add	s2,s2,a2
    a91c:	9ac6                	add	s5,s5,a7
    a91e:	00df0633          	add	a2,t5,a3
    a922:	00d636b3          	sltu	a3,a2,a3
    a926:	9aa6                	add	s5,s5,s1
    a928:	9642                	add	a2,a2,a6
    a92a:	00da8733          	add	a4,s5,a3
    a92e:	00d736b3          	sltu	a3,a4,a3
    a932:	01063833          	sltu	a6,a2,a6
    a936:	974a                	add	a4,a4,s2
    a938:	dab2                	sw	a2,116(sp)
    a93a:	01070633          	add	a2,a4,a6
    a93e:	034305b3          	mul	a1,t1,s4
    a942:	009ab4b3          	sltu	s1,s5,s1
    a946:	02628333          	mul	t1,t0,t1
    a94a:	01273733          	sltu	a4,a4,s2
    a94e:	01063833          	sltu	a6,a2,a6
    a952:	025382b3          	mul	t0,t2,t0
    a956:	034383b3          	mul	t2,t2,s4
    a95a:	00638a33          	add	s4,t2,t1
    a95e:	0105d393          	srli	t2,a1,0x10
    a962:	8ec5                	or	a3,a3,s1
    a964:	01076833          	or	a6,a4,a6
    a968:	93d2                	add	t2,t2,s4
    a96a:	0ff6f693          	andi	a3,a3,255
    a96e:	0ff87813          	andi	a6,a6,255
    a972:	0063f363          	bleu	t1,t2,a978 <__multf3+0x86c>
    a976:	92de                	add	t0,t0,s7
    a978:	01d3f733          	and	a4,t2,t4
    a97c:	0742                	slli	a4,a4,0x10
    a97e:	01d5feb3          	and	t4,a1,t4
    a982:	9776                	add	a4,a4,t4
    a984:	963a                	add	a2,a2,a4
    a986:	0103d393          	srli	t2,t2,0x10
    a98a:	00e63733          	sltu	a4,a2,a4
    a98e:	00d38eb3          	add	t4,t2,a3
    a992:	dcb2                	sw	a2,120(sp)
    a994:	55a2                	lw	a1,40(sp)
    a996:	4662                	lw	a2,24(sp)
    a998:	9ec2                	add	t4,t4,a6
    a99a:	46f2                	lw	a3,28(sp)
    a99c:	9eba                	add	t4,t4,a4
    a99e:	00c5efb3          	or	t6,a1,a2
    a9a2:	92f6                	add	t0,t0,t4
    a9a4:	01f6ebb3          	or	s7,a3,t6
    a9a8:	07b6                	slli	a5,a5,0xd
    a9aa:	de96                	sw	t0,124(sp)
    a9ac:	0177e7b3          	or	a5,a5,s7
    a9b0:	1098                	addi	a4,sp,96
    a9b2:	4601                	li	a2,0
    a9b4:	4511                	li	a0,4
    a9b6:	4754                	lw	a3,12(a4)
    a9b8:	4b0c                	lw	a1,16(a4)
    a9ba:	82cd                	srli	a3,a3,0x13
    a9bc:	05b6                	slli	a1,a1,0xd
    a9be:	8ecd                	or	a3,a3,a1
    a9c0:	c314                	sw	a3,0(a4)
    a9c2:	0605                	addi	a2,a2,1
    a9c4:	0711                	addi	a4,a4,4
    a9c6:	fea618e3          	bne	a2,a0,a9b6 <__multf3+0x8aa>
    a9ca:	5706                	lw	a4,96(sp)
    a9cc:	56a6                	lw	a3,104(sp)
    a9ce:	00f037b3          	snez	a5,a5
    a9d2:	8fd9                	or	a5,a5,a4
    a9d4:	ccb6                	sw	a3,88(sp)
    a9d6:	5736                	lw	a4,108(sp)
    a9d8:	5696                	lw	a3,100(sp)
    a9da:	ceba                	sw	a4,92(sp)
    a9dc:	cab6                	sw	a3,84(sp)
    a9de:	c8be                	sw	a5,80(sp)
    a9e0:	00b71813          	slli	a6,a4,0xb
    a9e4:	16085163          	bgez	a6,ab46 <__multf3+0xa3a>
    a9e8:	07fe                	slli	a5,a5,0x1f
    a9ea:	0898                	addi	a4,sp,80
    a9ec:	4601                	li	a2,0
    a9ee:	450d                	li	a0,3
    a9f0:	4314                	lw	a3,0(a4)
    a9f2:	434c                	lw	a1,4(a4)
    a9f4:	8285                	srli	a3,a3,0x1
    a9f6:	05fe                	slli	a1,a1,0x1f
    a9f8:	8ecd                	or	a3,a3,a1
    a9fa:	c314                	sw	a3,0(a4)
    a9fc:	0605                	addi	a2,a2,1
    a9fe:	0711                	addi	a4,a4,4
    aa00:	fea618e3          	bne	a2,a0,a9f0 <__multf3+0x8e4>
    aa04:	4776                	lw	a4,92(sp)
    aa06:	00f037b3          	snez	a5,a5
    aa0a:	8305                	srli	a4,a4,0x1
    aa0c:	ceba                	sw	a4,92(sp)
    aa0e:	4746                	lw	a4,80(sp)
    aa10:	8fd9                	or	a5,a5,a4
    aa12:	c8be                	sw	a5,80(sp)
    aa14:	6791                	lui	a5,0x4
    aa16:	5d02                	lw	s10,32(sp)
    aa18:	17fd                	addi	a5,a5,-1
    aa1a:	97ea                	add	a5,a5,s10
    aa1c:	12f05f63          	blez	a5,ab5a <__multf3+0xa4e>
    aa20:	4746                	lw	a4,80(sp)
    aa22:	00777693          	andi	a3,a4,7
    aa26:	ce85                	beqz	a3,aa5e <__multf3+0x952>
    aa28:	00f77693          	andi	a3,a4,15
    aa2c:	4611                	li	a2,4
    aa2e:	02c68863          	beq	a3,a2,aa5e <__multf3+0x952>
    aa32:	0711                	addi	a4,a4,4
    aa34:	00473613          	sltiu	a2,a4,4
    aa38:	c8ba                	sw	a4,80(sp)
    aa3a:	4756                	lw	a4,84(sp)
    aa3c:	46e6                	lw	a3,88(sp)
    aa3e:	9732                	add	a4,a4,a2
    aa40:	caba                	sw	a4,84(sp)
    aa42:	00c73733          	sltu	a4,a4,a2
    aa46:	0ff77613          	andi	a2,a4,255
    aa4a:	00d60733          	add	a4,a2,a3
    aa4e:	ccba                	sw	a4,88(sp)
    aa50:	00c73733          	sltu	a4,a4,a2
    aa54:	46f6                	lw	a3,92(sp)
    aa56:	0ff77713          	andi	a4,a4,255
    aa5a:	9736                	add	a4,a4,a3
    aa5c:	ceba                	sw	a4,92(sp)
    aa5e:	4776                	lw	a4,92(sp)
    aa60:	00b71e13          	slli	t3,a4,0xb
    aa64:	000e5a63          	bgez	t3,aa78 <__multf3+0x96c>
    aa68:	fff007b7          	lui	a5,0xfff00
    aa6c:	17fd                	addi	a5,a5,-1
    aa6e:	5f82                	lw	t6,32(sp)
    aa70:	8f7d                	and	a4,a4,a5
    aa72:	6791                	lui	a5,0x4
    aa74:	ceba                	sw	a4,92(sp)
    aa76:	97fe                	add	a5,a5,t6
    aa78:	0898                	addi	a4,sp,80
    aa7a:	4601                	li	a2,0
    aa7c:	450d                	li	a0,3
    aa7e:	4314                	lw	a3,0(a4)
    aa80:	434c                	lw	a1,4(a4)
    aa82:	828d                	srli	a3,a3,0x3
    aa84:	05f6                	slli	a1,a1,0x1d
    aa86:	8ecd                	or	a3,a3,a1
    aa88:	c314                	sw	a3,0(a4)
    aa8a:	0605                	addi	a2,a2,1
    aa8c:	0711                	addi	a4,a4,4
    aa8e:	fea618e3          	bne	a2,a0,aa7e <__multf3+0x972>
    aa92:	6721                	lui	a4,0x8
    aa94:	ffe70693          	addi	a3,a4,-2 # 7ffe <__ascii_wctomb+0x1a>
    aa98:	0af6ca63          	blt	a3,a5,ab4c <__multf3+0xa40>
    aa9c:	4776                	lw	a4,92(sp)
    aa9e:	830d                	srli	a4,a4,0x3
    aaa0:	ceba                	sw	a4,92(sp)
    aaa2:	4776                	lw	a4,92(sp)
    aaa4:	76e1                	lui	a3,0xffff8
    aaa6:	06e11623          	sh	a4,108(sp)
    aaaa:	6721                	lui	a4,0x8
    aaac:	177d                	addi	a4,a4,-1
    aaae:	8ff9                	and	a5,a5,a4
    aab0:	06e15703          	lhu	a4,110(sp)
    aab4:	4552                	lw	a0,20(sp)
    aab6:	8f75                	and	a4,a4,a3
    aab8:	8fd9                	or	a5,a5,a4
    aaba:	0087d713          	srli	a4,a5,0x8
    aabe:	06f11723          	sh	a5,110(sp)
    aac2:	07f77713          	andi	a4,a4,127
    aac6:	00751793          	slli	a5,a0,0x7
    aaca:	8fd9                	or	a5,a5,a4
    aacc:	46a2                	lw	a3,8(sp)
    aace:	06f107a3          	sb	a5,111(sp)
    aad2:	47c6                	lw	a5,80(sp)
    aad4:	50fa                	lw	ra,188(sp)
    aad6:	c29c                	sw	a5,0(a3)
    aad8:	47d6                	lw	a5,84(sp)
    aada:	546a                	lw	s0,184(sp)
    aadc:	c2dc                	sw	a5,4(a3)
    aade:	47e6                	lw	a5,88(sp)
    aae0:	54da                	lw	s1,180(sp)
    aae2:	c69c                	sw	a5,8(a3)
    aae4:	57b6                	lw	a5,108(sp)
    aae6:	594a                	lw	s2,176(sp)
    aae8:	c6dc                	sw	a5,12(a3)
    aaea:	59ba                	lw	s3,172(sp)
    aaec:	5a2a                	lw	s4,168(sp)
    aaee:	5a9a                	lw	s5,164(sp)
    aaf0:	5b0a                	lw	s6,160(sp)
    aaf2:	4bfa                	lw	s7,156(sp)
    aaf4:	4c6a                	lw	s8,152(sp)
    aaf6:	4cda                	lw	s9,148(sp)
    aaf8:	4d4a                	lw	s10,144(sp)
    aafa:	4dba                	lw	s11,140(sp)
    aafc:	8536                	mv	a0,a3
    aafe:	6129                	addi	sp,sp,192
    ab00:	8082                	ret
    ab02:	ca4e                	sw	s3,20(sp)
    ab04:	57c2                	lw	a5,48(sp)
    ab06:	c8be                	sw	a5,80(sp)
    ab08:	57d2                	lw	a5,52(sp)
    ab0a:	cabe                	sw	a5,84(sp)
    ab0c:	57e2                	lw	a5,56(sp)
    ab0e:	ccbe                	sw	a5,88(sp)
    ab10:	57f2                	lw	a5,60(sp)
    ab12:	cebe                	sw	a5,92(sp)
    ab14:	4789                	li	a5,2
    ab16:	1afb8663          	beq	s7,a5,acc2 <__multf3+0xbb6>
    ab1a:	478d                	li	a5,3
    ab1c:	1afb8a63          	beq	s7,a5,acd0 <__multf3+0xbc4>
    ab20:	4785                	li	a5,1
    ab22:	eefb99e3          	bne	s7,a5,aa14 <__multf3+0x908>
    ab26:	ce82                	sw	zero,92(sp)
    ab28:	cc82                	sw	zero,88(sp)
    ab2a:	ca82                	sw	zero,84(sp)
    ab2c:	c882                	sw	zero,80(sp)
    ab2e:	aa8d                	j	aca0 <__multf3+0xb94>
    ab30:	ca4a                	sw	s2,20(sp)
    ab32:	4786                	lw	a5,64(sp)
    ab34:	8bba                	mv	s7,a4
    ab36:	c8be                	sw	a5,80(sp)
    ab38:	4796                	lw	a5,68(sp)
    ab3a:	cabe                	sw	a5,84(sp)
    ab3c:	47a6                	lw	a5,72(sp)
    ab3e:	ccbe                	sw	a5,88(sp)
    ab40:	47b6                	lw	a5,76(sp)
    ab42:	cebe                	sw	a5,92(sp)
    ab44:	bfc1                	j	ab14 <__multf3+0xa08>
    ab46:	5892                	lw	a7,36(sp)
    ab48:	d046                	sw	a7,32(sp)
    ab4a:	b5e9                	j	aa14 <__multf3+0x908>
    ab4c:	ce82                	sw	zero,92(sp)
    ab4e:	cc82                	sw	zero,88(sp)
    ab50:	ca82                	sw	zero,84(sp)
    ab52:	c882                	sw	zero,80(sp)
    ab54:	fff70793          	addi	a5,a4,-1 # 7fff <__ascii_wctomb+0x1b>
    ab58:	b7a9                	j	aaa2 <__multf3+0x996>
    ab5a:	4705                	li	a4,1
    ab5c:	40f707b3          	sub	a5,a4,a5
    ab60:	07400713          	li	a4,116
    ab64:	14f74063          	blt	a4,a5,aca4 <__multf3+0xb98>
    ab68:	4057d613          	srai	a2,a5,0x5
    ab6c:	4701                	li	a4,0
    ab6e:	8bfd                	andi	a5,a5,31
    ab70:	4681                	li	a3,0
    ab72:	00269593          	slli	a1,a3,0x2
    ab76:	06c69b63          	bne	a3,a2,abec <__multf3+0xae0>
    ab7a:	ebc1                	bnez	a5,ac0a <__multf3+0xafe>
    ab7c:	450d                	li	a0,3
    ab7e:	0890                	addi	a2,sp,80
    ab80:	8d15                	sub	a0,a0,a3
    ab82:	06f55b63          	ble	a5,a0,abf8 <__multf3+0xaec>
    ab86:	4791                	li	a5,4
    ab88:	40d786b3          	sub	a3,a5,a3
    ab8c:	4611                	li	a2,4
    ab8e:	0ec69063          	bne	a3,a2,ac6e <__multf3+0xb62>
    ab92:	47c6                	lw	a5,80(sp)
    ab94:	00e03733          	snez	a4,a4
    ab98:	8f5d                	or	a4,a4,a5
    ab9a:	c8ba                	sw	a4,80(sp)
    ab9c:	00777793          	andi	a5,a4,7
    aba0:	cb9d                	beqz	a5,abd6 <__multf3+0xaca>
    aba2:	00f77793          	andi	a5,a4,15
    aba6:	02d78863          	beq	a5,a3,abd6 <__multf3+0xaca>
    abaa:	0711                	addi	a4,a4,4
    abac:	47d6                	lw	a5,84(sp)
    abae:	c8ba                	sw	a4,80(sp)
    abb0:	00473713          	sltiu	a4,a4,4
    abb4:	97ba                	add	a5,a5,a4
    abb6:	cabe                	sw	a5,84(sp)
    abb8:	00e7b7b3          	sltu	a5,a5,a4
    abbc:	46e6                	lw	a3,88(sp)
    abbe:	0ff7f713          	andi	a4,a5,255
    abc2:	00d707b3          	add	a5,a4,a3
    abc6:	ccbe                	sw	a5,88(sp)
    abc8:	00e7b7b3          	sltu	a5,a5,a4
    abcc:	4776                	lw	a4,92(sp)
    abce:	0ff7f793          	andi	a5,a5,255
    abd2:	97ba                	add	a5,a5,a4
    abd4:	cebe                	sw	a5,92(sp)
    abd6:	47f6                	lw	a5,92(sp)
    abd8:	00c79f93          	slli	t6,a5,0xc
    abdc:	0a0fd263          	bgez	t6,ac80 <__multf3+0xb74>
    abe0:	ce82                	sw	zero,92(sp)
    abe2:	cc82                	sw	zero,88(sp)
    abe4:	ca82                	sw	zero,84(sp)
    abe6:	c882                	sw	zero,80(sp)
    abe8:	4785                	li	a5,1
    abea:	bd65                	j	aaa2 <__multf3+0x996>
    abec:	0888                	addi	a0,sp,80
    abee:	95aa                	add	a1,a1,a0
    abf0:	418c                	lw	a1,0(a1)
    abf2:	0685                	addi	a3,a3,1
    abf4:	8f4d                	or	a4,a4,a1
    abf6:	bfb5                	j	ab72 <__multf3+0xa66>
    abf8:	00b60833          	add	a6,a2,a1
    abfc:	00082803          	lw	a6,0(a6)
    ac00:	0785                	addi	a5,a5,1
    ac02:	01062023          	sw	a6,0(a2)
    ac06:	0611                	addi	a2,a2,4
    ac08:	bfad                	j	ab82 <__multf3+0xa76>
    ac0a:	08010893          	addi	a7,sp,128
    ac0e:	00b88633          	add	a2,a7,a1
    ac12:	02000813          	li	a6,32
    ac16:	fd062603          	lw	a2,-48(a2)
    ac1a:	40f80833          	sub	a6,a6,a5
    ac1e:	01061633          	sll	a2,a2,a6
    ac22:	8f51                	or	a4,a4,a2
    ac24:	460d                	li	a2,3
    ac26:	05010893          	addi	a7,sp,80
    ac2a:	4301                	li	t1,0
    ac2c:	8e15                	sub	a2,a2,a3
    ac2e:	00c34f63          	blt	t1,a2,ac4c <__multf3+0xb40>
    ac32:	4591                	li	a1,4
    ac34:	40d586b3          	sub	a3,a1,a3
    ac38:	45f6                	lw	a1,92(sp)
    ac3a:	060a                	slli	a2,a2,0x2
    ac3c:	08010d13          	addi	s10,sp,128
    ac40:	966a                	add	a2,a2,s10
    ac42:	00f5d7b3          	srl	a5,a1,a5
    ac46:	fcf62823          	sw	a5,-48(a2)
    ac4a:	b789                	j	ab8c <__multf3+0xa80>
    ac4c:	00b88e33          	add	t3,a7,a1
    ac50:	000e2503          	lw	a0,0(t3) # 10000 <__bss_end+0x1f80>
    ac54:	004e2e03          	lw	t3,4(t3)
    ac58:	00f55533          	srl	a0,a0,a5
    ac5c:	010e1e33          	sll	t3,t3,a6
    ac60:	01c56533          	or	a0,a0,t3
    ac64:	00a8a023          	sw	a0,0(a7)
    ac68:	0305                	addi	t1,t1,1
    ac6a:	0891                	addi	a7,a7,4
    ac6c:	b7c9                	j	ac2e <__multf3+0xb22>
    ac6e:	00269793          	slli	a5,a3,0x2
    ac72:	05010e13          	addi	t3,sp,80
    ac76:	97f2                	add	a5,a5,t3
    ac78:	0007a023          	sw	zero,0(a5) # 4000 <_ldtoa_r+0x16c>
    ac7c:	0685                	addi	a3,a3,1
    ac7e:	bf01                	j	ab8e <__multf3+0xa82>
    ac80:	089c                	addi	a5,sp,80
    ac82:	4681                	li	a3,0
    ac84:	458d                	li	a1,3
    ac86:	4398                	lw	a4,0(a5)
    ac88:	43d0                	lw	a2,4(a5)
    ac8a:	830d                	srli	a4,a4,0x3
    ac8c:	0676                	slli	a2,a2,0x1d
    ac8e:	8f51                	or	a4,a4,a2
    ac90:	c398                	sw	a4,0(a5)
    ac92:	0685                	addi	a3,a3,1
    ac94:	0791                	addi	a5,a5,4
    ac96:	feb698e3          	bne	a3,a1,ac86 <__multf3+0xb7a>
    ac9a:	47f6                	lw	a5,92(sp)
    ac9c:	838d                	srli	a5,a5,0x3
    ac9e:	cebe                	sw	a5,92(sp)
    aca0:	4781                	li	a5,0
    aca2:	b501                	j	aaa2 <__multf3+0x996>
    aca4:	47d6                	lw	a5,84(sp)
    aca6:	4746                	lw	a4,80(sp)
    aca8:	8f5d                	or	a4,a4,a5
    acaa:	47e6                	lw	a5,88(sp)
    acac:	8f5d                	or	a4,a4,a5
    acae:	47f6                	lw	a5,92(sp)
    acb0:	8f5d                	or	a4,a4,a5
    acb2:	4781                	li	a5,0
    acb4:	de0707e3          	beqz	a4,aaa2 <__multf3+0x996>
    acb8:	ce82                	sw	zero,92(sp)
    acba:	cc82                	sw	zero,88(sp)
    acbc:	ca82                	sw	zero,84(sp)
    acbe:	c882                	sw	zero,80(sp)
    acc0:	b3cd                	j	aaa2 <__multf3+0x996>
    acc2:	67a1                	lui	a5,0x8
    acc4:	ce82                	sw	zero,92(sp)
    acc6:	cc82                	sw	zero,88(sp)
    acc8:	ca82                	sw	zero,84(sp)
    acca:	c882                	sw	zero,80(sp)
    accc:	17fd                	addi	a5,a5,-1
    acce:	bbd1                	j	aaa2 <__multf3+0x996>
    acd0:	67a1                	lui	a5,0x8
    acd2:	cebe                	sw	a5,92(sp)
    acd4:	cc82                	sw	zero,88(sp)
    acd6:	ca82                	sw	zero,84(sp)
    acd8:	c882                	sw	zero,80(sp)
    acda:	17fd                	addi	a5,a5,-1
    acdc:	ca02                	sw	zero,20(sp)
    acde:	b3d1                	j	aaa2 <__multf3+0x996>

0000ace0 <__subtf3>:
    ace0:	711d                	addi	sp,sp,-96
    ace2:	459c                	lw	a5,8(a1)
    ace4:	c8ca                	sw	s2,80(sp)
    ace6:	00c5a903          	lw	s2,12(a1)
    acea:	4194                	lw	a3,0(a1)
    acec:	41d8                	lw	a4,4(a1)
    acee:	dc3e                	sw	a5,56(sp)
    acf0:	cc3e                	sw	a5,24(sp)
    acf2:	01091793          	slli	a5,s2,0x10
    acf6:	cca2                	sw	s0,88(sp)
    acf8:	caa6                	sw	s1,84(sp)
    acfa:	00191413          	slli	s0,s2,0x1
    acfe:	84aa                	mv	s1,a0
    ad00:	83c1                	srli	a5,a5,0x10
    ad02:	00062e83          	lw	t4,0(a2)
    ad06:	00462e03          	lw	t3,4(a2)
    ad0a:	460c                	lw	a1,8(a2)
    ad0c:	4648                	lw	a0,12(a2)
    ad0e:	de4a                	sw	s2,60(sp)
    ad10:	ce86                	sw	ra,92(sp)
    ad12:	c6ce                	sw	s3,76(sp)
    ad14:	c4d2                	sw	s4,72(sp)
    ad16:	c2d6                	sw	s5,68(sp)
    ad18:	d836                	sw	a3,48(sp)
    ad1a:	da3a                	sw	a4,52(sp)
    ad1c:	c836                	sw	a3,16(sp)
    ad1e:	ca3a                	sw	a4,20(sp)
    ad20:	ce3e                	sw	a5,28(sp)
    ad22:	8045                	srli	s0,s0,0x11
    ad24:	01f95913          	srli	s2,s2,0x1f
    ad28:	01010313          	addi	t1,sp,16
    ad2c:	01c10813          	addi	a6,sp,28
    ad30:	00082783          	lw	a5,0(a6)
    ad34:	ffc82703          	lw	a4,-4(a6)
    ad38:	078e                	slli	a5,a5,0x3
    ad3a:	8375                	srli	a4,a4,0x1d
    ad3c:	8fd9                	or	a5,a5,a4
    ad3e:	00f82023          	sw	a5,0(a6)
    ad42:	1871                	addi	a6,a6,-4
    ad44:	ff0316e3          	bne	t1,a6,ad30 <__subtf3+0x50>
    ad48:	46c2                	lw	a3,16(sp)
    ad4a:	01051793          	slli	a5,a0,0x10
    ad4e:	00151613          	slli	a2,a0,0x1
    ad52:	00369893          	slli	a7,a3,0x3
    ad56:	83c1                	srli	a5,a5,0x10
    ad58:	da72                	sw	t3,52(sp)
    ad5a:	dc2e                	sw	a1,56(sp)
    ad5c:	de2a                	sw	a0,60(sp)
    ad5e:	d272                	sw	t3,36(sp)
    ad60:	d42e                	sw	a1,40(sp)
    ad62:	c846                	sw	a7,16(sp)
    ad64:	d876                	sw	t4,48(sp)
    ad66:	d076                	sw	t4,32(sp)
    ad68:	d63e                	sw	a5,44(sp)
    ad6a:	8245                	srli	a2,a2,0x11
    ad6c:	817d                	srli	a0,a0,0x1f
    ad6e:	100c                	addi	a1,sp,32
    ad70:	02c10e13          	addi	t3,sp,44
    ad74:	000e2783          	lw	a5,0(t3)
    ad78:	ffce2703          	lw	a4,-4(t3)
    ad7c:	078e                	slli	a5,a5,0x3
    ad7e:	8375                	srli	a4,a4,0x1d
    ad80:	8fd9                	or	a5,a5,a4
    ad82:	00fe2023          	sw	a5,0(t3)
    ad86:	1e71                	addi	t3,t3,-4
    ad88:	ffc596e3          	bne	a1,t3,ad74 <__subtf3+0x94>
    ad8c:	5782                	lw	a5,32(sp)
    ad8e:	6721                	lui	a4,0x8
    ad90:	078e                	slli	a5,a5,0x3
    ad92:	d03e                	sw	a5,32(sp)
    ad94:	177d                	addi	a4,a4,-1
    ad96:	00e61963          	bne	a2,a4,ada8 <__subtf3+0xc8>
    ad9a:	56a2                	lw	a3,40(sp)
    ad9c:	5712                	lw	a4,36(sp)
    ad9e:	8f55                	or	a4,a4,a3
    ada0:	56b2                	lw	a3,44(sp)
    ada2:	8f55                	or	a4,a4,a3
    ada4:	8f5d                	or	a4,a4,a5
    ada6:	e319                	bnez	a4,adac <__subtf3+0xcc>
    ada8:	00154513          	xori	a0,a0,1
    adac:	40c40733          	sub	a4,s0,a2
    adb0:	63251c63          	bne	a0,s2,b3e8 <__subtf3+0x708>
    adb4:	20e05b63          	blez	a4,afca <__subtf3+0x2ea>
    adb8:	ee71                	bnez	a2,ae94 <__subtf3+0x1b4>
    adba:	5312                	lw	t1,36(sp)
    adbc:	5822                	lw	a6,40(sp)
    adbe:	5532                	lw	a0,44(sp)
    adc0:	010366b3          	or	a3,t1,a6
    adc4:	8ec9                	or	a3,a3,a0
    adc6:	8edd                	or	a3,a3,a5
    adc8:	ea91                	bnez	a3,addc <__subtf3+0xfc>
    adca:	47d2                	lw	a5,20(sp)
    adcc:	d846                	sw	a7,48(sp)
    adce:	da3e                	sw	a5,52(sp)
    add0:	47e2                	lw	a5,24(sp)
    add2:	843a                	mv	s0,a4
    add4:	dc3e                	sw	a5,56(sp)
    add6:	47f2                	lw	a5,28(sp)
    add8:	de3e                	sw	a5,60(sp)
    adda:	ac39                	j	aff8 <__subtf3+0x318>
    addc:	fff70613          	addi	a2,a4,-1 # 7fff <__ascii_wctomb+0x1b>
    ade0:	ee41                	bnez	a2,ae78 <__subtf3+0x198>
    ade2:	4652                	lw	a2,20(sp)
    ade4:	00f886b3          	add	a3,a7,a5
    ade8:	0116b8b3          	sltu	a7,a3,a7
    adec:	d836                	sw	a3,48(sp)
    adee:	00c306b3          	add	a3,t1,a2
    adf2:	011685b3          	add	a1,a3,a7
    adf6:	00c6b6b3          	sltu	a3,a3,a2
    adfa:	8636                	mv	a2,a3
    adfc:	0115b6b3          	sltu	a3,a1,a7
    ae00:	47e2                	lw	a5,24(sp)
    ae02:	8ed1                	or	a3,a3,a2
    ae04:	00f80733          	add	a4,a6,a5
    ae08:	0ff6f693          	andi	a3,a3,255
    ae0c:	00d70633          	add	a2,a4,a3
    ae10:	00f737b3          	sltu	a5,a4,a5
    ae14:	873e                	mv	a4,a5
    ae16:	00d637b3          	sltu	a5,a2,a3
    ae1a:	8fd9                	or	a5,a5,a4
    ae1c:	4772                	lw	a4,28(sp)
    ae1e:	0ff7f793          	andi	a5,a5,255
    ae22:	953a                	add	a0,a0,a4
    ae24:	97aa                	add	a5,a5,a0
    ae26:	da2e                	sw	a1,52(sp)
    ae28:	dc32                	sw	a2,56(sp)
    ae2a:	de3e                	sw	a5,60(sp)
    ae2c:	4405                	li	s0,1
    ae2e:	57f2                	lw	a5,60(sp)
    ae30:	00c79693          	slli	a3,a5,0xc
    ae34:	1c06d263          	bgez	a3,aff8 <__subtf3+0x318>
    ae38:	fff80737          	lui	a4,0xfff80
    ae3c:	177d                	addi	a4,a4,-1
    ae3e:	8ff9                	and	a5,a5,a4
    ae40:	de3e                	sw	a5,60(sp)
    ae42:	57c2                	lw	a5,48(sp)
    ae44:	0405                	addi	s0,s0,1
    ae46:	07fe                	slli	a5,a5,0x1f
    ae48:	1818                	addi	a4,sp,48
    ae4a:	4601                	li	a2,0
    ae4c:	450d                	li	a0,3
    ae4e:	4314                	lw	a3,0(a4)
    ae50:	434c                	lw	a1,4(a4)
    ae52:	8285                	srli	a3,a3,0x1
    ae54:	05fe                	slli	a1,a1,0x1f
    ae56:	8ecd                	or	a3,a3,a1
    ae58:	c314                	sw	a3,0(a4)
    ae5a:	0605                	addi	a2,a2,1
    ae5c:	0711                	addi	a4,a4,4
    ae5e:	fea618e3          	bne	a2,a0,ae4e <__subtf3+0x16e>
    ae62:	5772                	lw	a4,60(sp)
    ae64:	00f037b3          	snez	a5,a5
    ae68:	8305                	srli	a4,a4,0x1
    ae6a:	de3a                	sw	a4,60(sp)
    ae6c:	5742                	lw	a4,48(sp)
    ae6e:	8fd9                	or	a5,a5,a4
    ae70:	d83e                	sw	a5,48(sp)
    ae72:	67a1                	lui	a5,0x8
    ae74:	17fd                	addi	a5,a5,-1
    ae76:	a395                	j	b3da <__subtf3+0x6fa>
    ae78:	67a1                	lui	a5,0x8
    ae7a:	17fd                	addi	a5,a5,-1
    ae7c:	f4f707e3          	beq	a4,a5,adca <__subtf3+0xea>
    ae80:	07400793          	li	a5,116
    ae84:	02c7dd63          	ble	a2,a5,aebe <__subtf3+0x1de>
    ae88:	4785                	li	a5,1
    ae8a:	d602                	sw	zero,44(sp)
    ae8c:	d402                	sw	zero,40(sp)
    ae8e:	d202                	sw	zero,36(sp)
    ae90:	d03e                	sw	a5,32(sp)
    ae92:	a085                	j	aef2 <__subtf3+0x212>
    ae94:	67a1                	lui	a5,0x8
    ae96:	17fd                	addi	a5,a5,-1
    ae98:	00f41963          	bne	s0,a5,aeaa <__subtf3+0x1ca>
    ae9c:	47d2                	lw	a5,20(sp)
    ae9e:	d846                	sw	a7,48(sp)
    aea0:	da3e                	sw	a5,52(sp)
    aea2:	47e2                	lw	a5,24(sp)
    aea4:	dc3e                	sw	a5,56(sp)
    aea6:	47f2                	lw	a5,28(sp)
    aea8:	a985                	j	b318 <__subtf3+0x638>
    aeaa:	57b2                	lw	a5,44(sp)
    aeac:	000806b7          	lui	a3,0x80
    aeb0:	8fd5                	or	a5,a5,a3
    aeb2:	d63e                	sw	a5,44(sp)
    aeb4:	07400793          	li	a5,116
    aeb8:	fce7c8e3          	blt	a5,a4,ae88 <__subtf3+0x1a8>
    aebc:	863a                	mv	a2,a4
    aebe:	40565693          	srai	a3,a2,0x5
    aec2:	01f67713          	andi	a4,a2,31
    aec6:	4781                	li	a5,0
    aec8:	4601                	li	a2,0
    aeca:	00279513          	slli	a0,a5,0x2
    aece:	06d79963          	bne	a5,a3,af40 <__subtf3+0x260>
    aed2:	e749                	bnez	a4,af5c <__subtf3+0x27c>
    aed4:	468d                	li	a3,3
    aed6:	8e9d                	sub	a3,a3,a5
    aed8:	06e6d963          	ble	a4,a3,af4a <__subtf3+0x26a>
    aedc:	4711                	li	a4,4
    aede:	40f707b3          	sub	a5,a4,a5
    aee2:	4691                	li	a3,4
    aee4:	0cd79c63          	bne	a5,a3,afbc <__subtf3+0x2dc>
    aee8:	5782                	lw	a5,32(sp)
    aeea:	00c03633          	snez	a2,a2
    aeee:	8e5d                	or	a2,a2,a5
    aef0:	d032                	sw	a2,32(sp)
    aef2:	47c2                	lw	a5,16(sp)
    aef4:	5602                	lw	a2,32(sp)
    aef6:	4752                	lw	a4,20(sp)
    aef8:	963e                	add	a2,a2,a5
    aefa:	d832                	sw	a2,48(sp)
    aefc:	00f63633          	sltu	a2,a2,a5
    af00:	5792                	lw	a5,36(sp)
    af02:	55a2                	lw	a1,40(sp)
    af04:	97ba                	add	a5,a5,a4
    af06:	00c786b3          	add	a3,a5,a2
    af0a:	00e7b7b3          	sltu	a5,a5,a4
    af0e:	873e                	mv	a4,a5
    af10:	00c6b7b3          	sltu	a5,a3,a2
    af14:	8fd9                	or	a5,a5,a4
    af16:	4762                	lw	a4,24(sp)
    af18:	0ff7f793          	andi	a5,a5,255
    af1c:	95ba                	add	a1,a1,a4
    af1e:	da36                	sw	a3,52(sp)
    af20:	00f586b3          	add	a3,a1,a5
    af24:	00e5b733          	sltu	a4,a1,a4
    af28:	00f6b7b3          	sltu	a5,a3,a5
    af2c:	4672                	lw	a2,28(sp)
    af2e:	5532                	lw	a0,44(sp)
    af30:	8fd9                	or	a5,a5,a4
    af32:	962a                	add	a2,a2,a0
    af34:	0ff7f793          	andi	a5,a5,255
    af38:	97b2                	add	a5,a5,a2
    af3a:	dc36                	sw	a3,56(sp)
    af3c:	de3e                	sw	a5,60(sp)
    af3e:	bdc5                	j	ae2e <__subtf3+0x14e>
    af40:	952e                	add	a0,a0,a1
    af42:	4108                	lw	a0,0(a0)
    af44:	0785                	addi	a5,a5,1
    af46:	8e49                	or	a2,a2,a0
    af48:	b749                	j	aeca <__subtf3+0x1ea>
    af4a:	00ae0833          	add	a6,t3,a0
    af4e:	00082803          	lw	a6,0(a6)
    af52:	0705                	addi	a4,a4,1
    af54:	010e2023          	sw	a6,0(t3)
    af58:	0e11                	addi	t3,t3,4
    af5a:	bfbd                	j	aed8 <__subtf3+0x1f8>
    af5c:	04010813          	addi	a6,sp,64
    af60:	00a806b3          	add	a3,a6,a0
    af64:	02000893          	li	a7,32
    af68:	fe06a683          	lw	a3,-32(a3) # 7ffe0 <__bss_end+0x71f60>
    af6c:	40e888b3          	sub	a7,a7,a4
    af70:	011696b3          	sll	a3,a3,a7
    af74:	8e55                	or	a2,a2,a3
    af76:	468d                	li	a3,3
    af78:	4301                	li	t1,0
    af7a:	8e9d                	sub	a3,a3,a5
    af7c:	00d34f63          	blt	t1,a3,af9a <__subtf3+0x2ba>
    af80:	4511                	li	a0,4
    af82:	40f507b3          	sub	a5,a0,a5
    af86:	5532                	lw	a0,44(sp)
    af88:	068a                	slli	a3,a3,0x2
    af8a:	04010893          	addi	a7,sp,64
    af8e:	96c6                	add	a3,a3,a7
    af90:	00e55733          	srl	a4,a0,a4
    af94:	fee6a023          	sw	a4,-32(a3)
    af98:	b7a9                	j	aee2 <__subtf3+0x202>
    af9a:	00ae0eb3          	add	t4,t3,a0
    af9e:	000ea803          	lw	a6,0(t4)
    afa2:	004eae83          	lw	t4,4(t4)
    afa6:	00e85833          	srl	a6,a6,a4
    afaa:	011e9eb3          	sll	t4,t4,a7
    afae:	01d86833          	or	a6,a6,t4
    afb2:	010e2023          	sw	a6,0(t3)
    afb6:	0305                	addi	t1,t1,1
    afb8:	0e11                	addi	t3,t3,4
    afba:	b7c9                	j	af7c <__subtf3+0x29c>
    afbc:	00279713          	slli	a4,a5,0x2
    afc0:	972e                	add	a4,a4,a1
    afc2:	00072023          	sw	zero,0(a4) # fff80000 <pulp__FC+0xfff80001>
    afc6:	0785                	addi	a5,a5,1
    afc8:	bf31                	j	aee4 <__subtf3+0x204>
    afca:	2a070c63          	beqz	a4,b282 <__subtf3+0x5a2>
    afce:	18041863          	bnez	s0,b15e <__subtf3+0x47e>
    afd2:	4552                	lw	a0,20(sp)
    afd4:	4e62                	lw	t3,24(sp)
    afd6:	4ef2                	lw	t4,28(sp)
    afd8:	01c566b3          	or	a3,a0,t3
    afdc:	01d6e6b3          	or	a3,a3,t4
    afe0:	0116e6b3          	or	a3,a3,a7
    afe4:	10069363          	bnez	a3,b0ea <__subtf3+0x40a>
    afe8:	d83e                	sw	a5,48(sp)
    afea:	5792                	lw	a5,36(sp)
    afec:	8432                	mv	s0,a2
    afee:	da3e                	sw	a5,52(sp)
    aff0:	57a2                	lw	a5,40(sp)
    aff2:	dc3e                	sw	a5,56(sp)
    aff4:	57b2                	lw	a5,44(sp)
    aff6:	de3e                	sw	a5,60(sp)
    aff8:	57c2                	lw	a5,48(sp)
    affa:	0077f713          	andi	a4,a5,7
    affe:	cf05                	beqz	a4,b036 <__subtf3+0x356>
    b000:	00f7f713          	andi	a4,a5,15
    b004:	4691                	li	a3,4
    b006:	02d70863          	beq	a4,a3,b036 <__subtf3+0x356>
    b00a:	0791                	addi	a5,a5,4
    b00c:	0047b693          	sltiu	a3,a5,4
    b010:	d83e                	sw	a5,48(sp)
    b012:	57d2                	lw	a5,52(sp)
    b014:	5762                	lw	a4,56(sp)
    b016:	97b6                	add	a5,a5,a3
    b018:	da3e                	sw	a5,52(sp)
    b01a:	00d7b7b3          	sltu	a5,a5,a3
    b01e:	0ff7f693          	andi	a3,a5,255
    b022:	00e687b3          	add	a5,a3,a4
    b026:	dc3e                	sw	a5,56(sp)
    b028:	00d7b7b3          	sltu	a5,a5,a3
    b02c:	5772                	lw	a4,60(sp)
    b02e:	0ff7f793          	andi	a5,a5,255
    b032:	97ba                	add	a5,a5,a4
    b034:	de3e                	sw	a5,60(sp)
    b036:	57f2                	lw	a5,60(sp)
    b038:	00c79693          	slli	a3,a5,0xc
    b03c:	0006dc63          	bgez	a3,b054 <__subtf3+0x374>
    b040:	6721                	lui	a4,0x8
    b042:	0405                	addi	s0,s0,1
    b044:	177d                	addi	a4,a4,-1
    b046:	32e403e3          	beq	s0,a4,bb6c <__subtf3+0xe8c>
    b04a:	fff80737          	lui	a4,0xfff80
    b04e:	177d                	addi	a4,a4,-1
    b050:	8ff9                	and	a5,a5,a4
    b052:	de3e                	sw	a5,60(sp)
    b054:	181c                	addi	a5,sp,48
    b056:	4681                	li	a3,0
    b058:	458d                	li	a1,3
    b05a:	4398                	lw	a4,0(a5)
    b05c:	43d0                	lw	a2,4(a5)
    b05e:	830d                	srli	a4,a4,0x3
    b060:	0676                	slli	a2,a2,0x1d
    b062:	8f51                	or	a4,a4,a2
    b064:	c398                	sw	a4,0(a5)
    b066:	0685                	addi	a3,a3,1
    b068:	0791                	addi	a5,a5,4
    b06a:	feb698e3          	bne	a3,a1,b05a <__subtf3+0x37a>
    b06e:	57f2                	lw	a5,60(sp)
    b070:	66a1                	lui	a3,0x8
    b072:	0037d713          	srli	a4,a5,0x3
    b076:	de3a                	sw	a4,60(sp)
    b078:	fff68793          	addi	a5,a3,-1 # 7fff <__ascii_wctomb+0x1b>
    b07c:	00f41e63          	bne	s0,a5,b098 <__subtf3+0x3b8>
    b080:	5652                	lw	a2,52(sp)
    b082:	57c2                	lw	a5,48(sp)
    b084:	8fd1                	or	a5,a5,a2
    b086:	5662                	lw	a2,56(sp)
    b088:	8fd1                	or	a5,a5,a2
    b08a:	8fd9                	or	a5,a5,a4
    b08c:	c791                	beqz	a5,b098 <__subtf3+0x3b8>
    b08e:	de36                	sw	a3,60(sp)
    b090:	dc02                	sw	zero,56(sp)
    b092:	da02                	sw	zero,52(sp)
    b094:	d802                	sw	zero,48(sp)
    b096:	4901                	li	s2,0
    b098:	57f2                	lw	a5,60(sp)
    b09a:	6521                	lui	a0,0x8
    b09c:	157d                	addi	a0,a0,-1
    b09e:	8d61                	and	a0,a0,s0
    b0a0:	00e15403          	lhu	s0,14(sp)
    b0a4:	00f11623          	sh	a5,12(sp)
    b0a8:	77e1                	lui	a5,0xffff8
    b0aa:	8c7d                	and	s0,s0,a5
    b0ac:	8c49                	or	s0,s0,a0
    b0ae:	00845793          	srli	a5,s0,0x8
    b0b2:	00791713          	slli	a4,s2,0x7
    b0b6:	07f7f913          	andi	s2,a5,127
    b0ba:	57c2                	lw	a5,48(sp)
    b0bc:	00811723          	sh	s0,14(sp)
    b0c0:	c09c                	sw	a5,0(s1)
    b0c2:	57d2                	lw	a5,52(sp)
    b0c4:	00e96933          	or	s2,s2,a4
    b0c8:	c0dc                	sw	a5,4(s1)
    b0ca:	57e2                	lw	a5,56(sp)
    b0cc:	012107a3          	sb	s2,15(sp)
    b0d0:	c49c                	sw	a5,8(s1)
    b0d2:	47b2                	lw	a5,12(sp)
    b0d4:	40f6                	lw	ra,92(sp)
    b0d6:	4466                	lw	s0,88(sp)
    b0d8:	c4dc                	sw	a5,12(s1)
    b0da:	8526                	mv	a0,s1
    b0dc:	4946                	lw	s2,80(sp)
    b0de:	44d6                	lw	s1,84(sp)
    b0e0:	49b6                	lw	s3,76(sp)
    b0e2:	4a26                	lw	s4,72(sp)
    b0e4:	4a96                	lw	s5,68(sp)
    b0e6:	6125                	addi	sp,sp,96
    b0e8:	8082                	ret
    b0ea:	56fd                	li	a3,-1
    b0ec:	04d71963          	bne	a4,a3,b13e <__subtf3+0x45e>
    b0f0:	5592                	lw	a1,36(sp)
    b0f2:	00f886b3          	add	a3,a7,a5
    b0f6:	00f6b7b3          	sltu	a5,a3,a5
    b0fa:	d836                	sw	a3,48(sp)
    b0fc:	00b506b3          	add	a3,a0,a1
    b100:	00f68533          	add	a0,a3,a5
    b104:	00b6b6b3          	sltu	a3,a3,a1
    b108:	85b6                	mv	a1,a3
    b10a:	00f536b3          	sltu	a3,a0,a5
    b10e:	57a2                	lw	a5,40(sp)
    b110:	8ecd                	or	a3,a3,a1
    b112:	00fe0733          	add	a4,t3,a5
    b116:	0ff6f693          	andi	a3,a3,255
    b11a:	00d705b3          	add	a1,a4,a3
    b11e:	00f737b3          	sltu	a5,a4,a5
    b122:	873e                	mv	a4,a5
    b124:	00d5b7b3          	sltu	a5,a1,a3
    b128:	8fd9                	or	a5,a5,a4
    b12a:	5732                	lw	a4,44(sp)
    b12c:	0ff7f793          	andi	a5,a5,255
    b130:	9eba                	add	t4,t4,a4
    b132:	da2a                	sw	a0,52(sp)
    b134:	dc2e                	sw	a1,56(sp)
    b136:	97f6                	add	a5,a5,t4
    b138:	de3e                	sw	a5,60(sp)
    b13a:	8432                	mv	s0,a2
    b13c:	b9cd                	j	ae2e <__subtf3+0x14e>
    b13e:	66a1                	lui	a3,0x8
    b140:	16fd                	addi	a3,a3,-1
    b142:	ead603e3          	beq	a2,a3,afe8 <__subtf3+0x308>
    b146:	fff74713          	not	a4,a4
    b14a:	07400793          	li	a5,116
    b14e:	02e7d763          	ble	a4,a5,b17c <__subtf3+0x49c>
    b152:	4785                	li	a5,1
    b154:	ce02                	sw	zero,28(sp)
    b156:	cc02                	sw	zero,24(sp)
    b158:	ca02                	sw	zero,20(sp)
    b15a:	c83e                	sw	a5,16(sp)
    b15c:	a889                	j	b1ae <__subtf3+0x4ce>
    b15e:	66a1                	lui	a3,0x8
    b160:	16fd                	addi	a3,a3,-1
    b162:	e8d603e3          	beq	a2,a3,afe8 <__subtf3+0x308>
    b166:	47f2                	lw	a5,28(sp)
    b168:	000806b7          	lui	a3,0x80
    b16c:	8fd5                	or	a5,a5,a3
    b16e:	ce3e                	sw	a5,28(sp)
    b170:	f8c00793          	li	a5,-116
    b174:	fcf74fe3          	blt	a4,a5,b152 <__subtf3+0x472>
    b178:	40e00733          	neg	a4,a4
    b17c:	40575693          	srai	a3,a4,0x5
    b180:	4581                	li	a1,0
    b182:	8b7d                	andi	a4,a4,31
    b184:	4781                	li	a5,0
    b186:	00279513          	slli	a0,a5,0x2
    b18a:	06d79863          	bne	a5,a3,b1fa <__subtf3+0x51a>
    b18e:	e741                	bnez	a4,b216 <__subtf3+0x536>
    b190:	468d                	li	a3,3
    b192:	8e9d                	sub	a3,a3,a5
    b194:	06e6d863          	ble	a4,a3,b204 <__subtf3+0x524>
    b198:	4711                	li	a4,4
    b19a:	40f707b3          	sub	a5,a4,a5
    b19e:	4691                	li	a3,4
    b1a0:	0cd79a63          	bne	a5,a3,b274 <__subtf3+0x594>
    b1a4:	47c2                	lw	a5,16(sp)
    b1a6:	00b035b3          	snez	a1,a1
    b1aa:	8ddd                	or	a1,a1,a5
    b1ac:	c82e                	sw	a1,16(sp)
    b1ae:	5782                	lw	a5,32(sp)
    b1b0:	45c2                	lw	a1,16(sp)
    b1b2:	5712                	lw	a4,36(sp)
    b1b4:	95be                	add	a1,a1,a5
    b1b6:	d82e                	sw	a1,48(sp)
    b1b8:	00f5b5b3          	sltu	a1,a1,a5
    b1bc:	47d2                	lw	a5,20(sp)
    b1be:	4562                	lw	a0,24(sp)
    b1c0:	97ba                	add	a5,a5,a4
    b1c2:	00b786b3          	add	a3,a5,a1
    b1c6:	00e7b7b3          	sltu	a5,a5,a4
    b1ca:	873e                	mv	a4,a5
    b1cc:	00b6b7b3          	sltu	a5,a3,a1
    b1d0:	8fd9                	or	a5,a5,a4
    b1d2:	5722                	lw	a4,40(sp)
    b1d4:	0ff7f793          	andi	a5,a5,255
    b1d8:	953a                	add	a0,a0,a4
    b1da:	da36                	sw	a3,52(sp)
    b1dc:	00f506b3          	add	a3,a0,a5
    b1e0:	00e53733          	sltu	a4,a0,a4
    b1e4:	00f6b7b3          	sltu	a5,a3,a5
    b1e8:	55b2                	lw	a1,44(sp)
    b1ea:	4872                	lw	a6,28(sp)
    b1ec:	8fd9                	or	a5,a5,a4
    b1ee:	95c2                	add	a1,a1,a6
    b1f0:	0ff7f793          	andi	a5,a5,255
    b1f4:	dc36                	sw	a3,56(sp)
    b1f6:	97ae                	add	a5,a5,a1
    b1f8:	b781                	j	b138 <__subtf3+0x458>
    b1fa:	951a                	add	a0,a0,t1
    b1fc:	4108                	lw	a0,0(a0)
    b1fe:	0785                	addi	a5,a5,1
    b200:	8dc9                	or	a1,a1,a0
    b202:	b751                	j	b186 <__subtf3+0x4a6>
    b204:	00a808b3          	add	a7,a6,a0
    b208:	0008a883          	lw	a7,0(a7)
    b20c:	0705                	addi	a4,a4,1
    b20e:	01182023          	sw	a7,0(a6)
    b212:	0811                	addi	a6,a6,4
    b214:	b741                	j	b194 <__subtf3+0x4b4>
    b216:	04010f93          	addi	t6,sp,64
    b21a:	00af86b3          	add	a3,t6,a0
    b21e:	02000e13          	li	t3,32
    b222:	fd06a683          	lw	a3,-48(a3) # 7ffd0 <__bss_end+0x71f50>
    b226:	40ee0e33          	sub	t3,t3,a4
    b22a:	01c696b3          	sll	a3,a3,t3
    b22e:	8dd5                	or	a1,a1,a3
    b230:	468d                	li	a3,3
    b232:	4e81                	li	t4,0
    b234:	8e9d                	sub	a3,a3,a5
    b236:	00dece63          	blt	t4,a3,b252 <__subtf3+0x572>
    b23a:	4511                	li	a0,4
    b23c:	40f507b3          	sub	a5,a0,a5
    b240:	068a                	slli	a3,a3,0x2
    b242:	0088                	addi	a0,sp,64
    b244:	96aa                	add	a3,a3,a0
    b246:	4572                	lw	a0,28(sp)
    b248:	00e55733          	srl	a4,a0,a4
    b24c:	fce6a823          	sw	a4,-48(a3)
    b250:	b7b9                	j	b19e <__subtf3+0x4be>
    b252:	00a80f33          	add	t5,a6,a0
    b256:	000f2883          	lw	a7,0(t5)
    b25a:	004f2f03          	lw	t5,4(t5)
    b25e:	00e8d8b3          	srl	a7,a7,a4
    b262:	01cf1f33          	sll	t5,t5,t3
    b266:	01e8e8b3          	or	a7,a7,t5
    b26a:	01182023          	sw	a7,0(a6)
    b26e:	0e85                	addi	t4,t4,1
    b270:	0811                	addi	a6,a6,4
    b272:	b7d1                	j	b236 <__subtf3+0x556>
    b274:	00279713          	slli	a4,a5,0x2
    b278:	971a                	add	a4,a4,t1
    b27a:	00072023          	sw	zero,0(a4) # fff80000 <pulp__FC+0xfff80001>
    b27e:	0785                	addi	a5,a5,1
    b280:	b705                	j	b1a0 <__subtf3+0x4c0>
    b282:	6f21                	lui	t5,0x8
    b284:	00140593          	addi	a1,s0,1
    b288:	ffff0e93          	addi	t4,t5,-1 # 7fff <__ascii_wctomb+0x1b>
    b28c:	01d5f2b3          	and	t0,a1,t4
    b290:	4f85                	li	t6,1
    b292:	5612                	lw	a2,36(sp)
    b294:	5722                	lw	a4,40(sp)
    b296:	5832                	lw	a6,44(sp)
    b298:	46d2                	lw	a3,20(sp)
    b29a:	4e62                	lw	t3,24(sp)
    b29c:	4572                	lw	a0,28(sp)
    b29e:	03010313          	addi	t1,sp,48
    b2a2:	0c5fcb63          	blt	t6,t0,b378 <__subtf3+0x698>
    b2a6:	01c6e5b3          	or	a1,a3,t3
    b2aa:	8dc9                	or	a1,a1,a0
    b2ac:	0115e5b3          	or	a1,a1,a7
    b2b0:	ec2d                	bnez	s0,b32a <__subtf3+0x64a>
    b2b2:	e591                	bnez	a1,b2be <__subtf3+0x5de>
    b2b4:	d83e                	sw	a5,48(sp)
    b2b6:	da32                	sw	a2,52(sp)
    b2b8:	dc3a                	sw	a4,56(sp)
    b2ba:	de42                	sw	a6,60(sp)
    b2bc:	bb35                	j	aff8 <__subtf3+0x318>
    b2be:	00e665b3          	or	a1,a2,a4
    b2c2:	0105e5b3          	or	a1,a1,a6
    b2c6:	8ddd                	or	a1,a1,a5
    b2c8:	e591                	bnez	a1,b2d4 <__subtf3+0x5f4>
    b2ca:	d846                	sw	a7,48(sp)
    b2cc:	da36                	sw	a3,52(sp)
    b2ce:	dc72                	sw	t3,56(sp)
    b2d0:	de2a                	sw	a0,60(sp)
    b2d2:	b31d                	j	aff8 <__subtf3+0x318>
    b2d4:	97c6                	add	a5,a5,a7
    b2d6:	0117b8b3          	sltu	a7,a5,a7
    b2da:	9636                	add	a2,a2,a3
    b2dc:	011605b3          	add	a1,a2,a7
    b2e0:	00d63633          	sltu	a2,a2,a3
    b2e4:	0115b6b3          	sltu	a3,a1,a7
    b2e8:	8ed1                	or	a3,a3,a2
    b2ea:	0ff6f693          	andi	a3,a3,255
    b2ee:	da2e                	sw	a1,52(sp)
    b2f0:	01c705b3          	add	a1,a4,t3
    b2f4:	d83e                	sw	a5,48(sp)
    b2f6:	00d587b3          	add	a5,a1,a3
    b2fa:	00d7b6b3          	sltu	a3,a5,a3
    b2fe:	01c5b733          	sltu	a4,a1,t3
    b302:	8ed9                	or	a3,a3,a4
    b304:	dc3e                	sw	a5,56(sp)
    b306:	0ff6f693          	andi	a3,a3,255
    b30a:	00a807b3          	add	a5,a6,a0
    b30e:	97b6                	add	a5,a5,a3
    b310:	00c79613          	slli	a2,a5,0xc
    b314:	00064463          	bltz	a2,b31c <__subtf3+0x63c>
    b318:	de3e                	sw	a5,60(sp)
    b31a:	b9f9                	j	aff8 <__subtf3+0x318>
    b31c:	fff80737          	lui	a4,0xfff80
    b320:	177d                	addi	a4,a4,-1
    b322:	8ff9                	and	a5,a5,a4
    b324:	de3e                	sw	a5,60(sp)
    b326:	4405                	li	s0,1
    b328:	b9c1                	j	aff8 <__subtf3+0x318>
    b32a:	e599                	bnez	a1,b338 <__subtf3+0x658>
    b32c:	d83e                	sw	a5,48(sp)
    b32e:	da32                	sw	a2,52(sp)
    b330:	dc3a                	sw	a4,56(sp)
    b332:	de42                	sw	a6,60(sp)
    b334:	8476                	mv	s0,t4
    b336:	b1c9                	j	aff8 <__subtf3+0x318>
    b338:	8f51                	or	a4,a4,a2
    b33a:	01076733          	or	a4,a4,a6
    b33e:	8fd9                	or	a5,a5,a4
    b340:	e791                	bnez	a5,b34c <__subtf3+0x66c>
    b342:	d846                	sw	a7,48(sp)
    b344:	da36                	sw	a3,52(sp)
    b346:	dc72                	sw	t3,56(sp)
    b348:	de2a                	sw	a0,60(sp)
    b34a:	b7ed                	j	b334 <__subtf3+0x654>
    b34c:	de7a                	sw	t5,60(sp)
    b34e:	dc02                	sw	zero,56(sp)
    b350:	da02                	sw	zero,52(sp)
    b352:	d802                	sw	zero,48(sp)
    b354:	187c                	addi	a5,sp,60
    b356:	4398                	lw	a4,0(a5)
    b358:	ffc7a683          	lw	a3,-4(a5) # ffff7ffc <pulp__FC+0xffff7ffd>
    b35c:	070e                	slli	a4,a4,0x3
    b35e:	82f5                	srli	a3,a3,0x1d
    b360:	8f55                	or	a4,a4,a3
    b362:	c398                	sw	a4,0(a5)
    b364:	17f1                	addi	a5,a5,-4
    b366:	fef318e3          	bne	t1,a5,b356 <__subtf3+0x676>
    b36a:	57c2                	lw	a5,48(sp)
    b36c:	6421                	lui	s0,0x8
    b36e:	078e                	slli	a5,a5,0x3
    b370:	d83e                	sw	a5,48(sp)
    b372:	147d                	addi	s0,s0,-1
    b374:	4901                	li	s2,0
    b376:	b149                	j	aff8 <__subtf3+0x318>
    b378:	97c6                	add	a5,a5,a7
    b37a:	0117b8b3          	sltu	a7,a5,a7
    b37e:	9636                	add	a2,a2,a3
    b380:	01160eb3          	add	t4,a2,a7
    b384:	00d63633          	sltu	a2,a2,a3
    b388:	011eb6b3          	sltu	a3,t4,a7
    b38c:	8ed1                	or	a3,a3,a2
    b38e:	0ff6f693          	andi	a3,a3,255
    b392:	9772                	add	a4,a4,t3
    b394:	d83e                	sw	a5,48(sp)
    b396:	00d707b3          	add	a5,a4,a3
    b39a:	00d7b6b3          	sltu	a3,a5,a3
    b39e:	01c73733          	sltu	a4,a4,t3
    b3a2:	8ed9                	or	a3,a3,a4
    b3a4:	0ff6f693          	andi	a3,a3,255
    b3a8:	9542                	add	a0,a0,a6
    b3aa:	dc3e                	sw	a5,56(sp)
    b3ac:	00a687b3          	add	a5,a3,a0
    b3b0:	de3e                	sw	a5,60(sp)
    b3b2:	da76                	sw	t4,52(sp)
    b3b4:	879a                	mv	a5,t1
    b3b6:	4681                	li	a3,0
    b3b8:	450d                	li	a0,3
    b3ba:	4398                	lw	a4,0(a5)
    b3bc:	43d0                	lw	a2,4(a5)
    b3be:	8305                	srli	a4,a4,0x1
    b3c0:	067e                	slli	a2,a2,0x1f
    b3c2:	8f51                	or	a4,a4,a2
    b3c4:	c398                	sw	a4,0(a5)
    b3c6:	0685                	addi	a3,a3,1
    b3c8:	0791                	addi	a5,a5,4
    b3ca:	fea698e3          	bne	a3,a0,b3ba <__subtf3+0x6da>
    b3ce:	57f2                	lw	a5,60(sp)
    b3d0:	842e                	mv	s0,a1
    b3d2:	8385                	srli	a5,a5,0x1
    b3d4:	de3e                	sw	a5,60(sp)
    b3d6:	67a1                	lui	a5,0x8
    b3d8:	17fd                	addi	a5,a5,-1
    b3da:	c0f41fe3          	bne	s0,a5,aff8 <__subtf3+0x318>
    b3de:	de02                	sw	zero,60(sp)
    b3e0:	dc02                	sw	zero,56(sp)
    b3e2:	da02                	sw	zero,52(sp)
    b3e4:	d802                	sw	zero,48(sp)
    b3e6:	b909                	j	aff8 <__subtf3+0x318>
    b3e8:	1ce05963          	blez	a4,b5ba <__subtf3+0x8da>
    b3ec:	e24d                	bnez	a2,b48e <__subtf3+0x7ae>
    b3ee:	5512                	lw	a0,36(sp)
    b3f0:	5622                	lw	a2,40(sp)
    b3f2:	5332                	lw	t1,44(sp)
    b3f4:	00c56833          	or	a6,a0,a2
    b3f8:	00686833          	or	a6,a6,t1
    b3fc:	00f86833          	or	a6,a6,a5
    b400:	9c0805e3          	beqz	a6,adca <__subtf3+0xea>
    b404:	fff70693          	addi	a3,a4,-1 # fff7ffff <pulp__FC+0xfff80000>
    b408:	e6ad                	bnez	a3,b472 <__subtf3+0x792>
    b40a:	4852                	lw	a6,20(sp)
    b40c:	40f887b3          	sub	a5,a7,a5
    b410:	40a805b3          	sub	a1,a6,a0
    b414:	00f8b733          	sltu	a4,a7,a5
    b418:	00b83e33          	sltu	t3,a6,a1
    b41c:	8d99                	sub	a1,a1,a4
    b41e:	d83e                	sw	a5,48(sp)
    b420:	da2e                	sw	a1,52(sp)
    b422:	4701                	li	a4,0
    b424:	00f8f663          	bleu	a5,a7,b430 <__subtf3+0x750>
    b428:	41050733          	sub	a4,a0,a6
    b42c:	00173713          	seqz	a4,a4
    b430:	4862                	lw	a6,24(sp)
    b432:	01c76733          	or	a4,a4,t3
    b436:	40c805b3          	sub	a1,a6,a2
    b43a:	00b83533          	sltu	a0,a6,a1
    b43e:	8d99                	sub	a1,a1,a4
    b440:	dc2e                	sw	a1,56(sp)
    b442:	c709                	beqz	a4,b44c <__subtf3+0x76c>
    b444:	41060633          	sub	a2,a2,a6
    b448:	00163693          	seqz	a3,a2
    b44c:	47f2                	lw	a5,28(sp)
    b44e:	8ec9                	or	a3,a3,a0
    b450:	406787b3          	sub	a5,a5,t1
    b454:	40d786b3          	sub	a3,a5,a3
    b458:	de36                	sw	a3,60(sp)
    b45a:	4405                	li	s0,1
    b45c:	57f2                	lw	a5,60(sp)
    b45e:	00c79513          	slli	a0,a5,0xc
    b462:	b8055be3          	bgez	a0,aff8 <__subtf3+0x318>
    b466:	00080737          	lui	a4,0x80
    b46a:	177d                	addi	a4,a4,-1
    b46c:	8ff9                	and	a5,a5,a4
    b46e:	de3e                	sw	a5,60(sp)
    b470:	ab3d                	j	b9ae <__subtf3+0xcce>
    b472:	67a1                	lui	a5,0x8
    b474:	17fd                	addi	a5,a5,-1
    b476:	94f70ae3          	beq	a4,a5,adca <__subtf3+0xea>
    b47a:	07400793          	li	a5,116
    b47e:	02d7d663          	ble	a3,a5,b4aa <__subtf3+0x7ca>
    b482:	4785                	li	a5,1
    b484:	d602                	sw	zero,44(sp)
    b486:	d402                	sw	zero,40(sp)
    b488:	d202                	sw	zero,36(sp)
    b48a:	d03e                	sw	a5,32(sp)
    b48c:	a881                	j	b4dc <__subtf3+0x7fc>
    b48e:	67a1                	lui	a5,0x8
    b490:	17fd                	addi	a5,a5,-1
    b492:	a0f405e3          	beq	s0,a5,ae9c <__subtf3+0x1bc>
    b496:	57b2                	lw	a5,44(sp)
    b498:	000806b7          	lui	a3,0x80
    b49c:	8fd5                	or	a5,a5,a3
    b49e:	d63e                	sw	a5,44(sp)
    b4a0:	07400793          	li	a5,116
    b4a4:	fce7cfe3          	blt	a5,a4,b482 <__subtf3+0x7a2>
    b4a8:	86ba                	mv	a3,a4
    b4aa:	4056d713          	srai	a4,a3,0x5
    b4ae:	4601                	li	a2,0
    b4b0:	8afd                	andi	a3,a3,31
    b4b2:	4781                	li	a5,0
    b4b4:	00279513          	slli	a0,a5,0x2
    b4b8:	06e79c63          	bne	a5,a4,b530 <__subtf3+0x850>
    b4bc:	eac1                	bnez	a3,b54c <__subtf3+0x86c>
    b4be:	470d                	li	a4,3
    b4c0:	8f1d                	sub	a4,a4,a5
    b4c2:	06d75c63          	ble	a3,a4,b53a <__subtf3+0x85a>
    b4c6:	4711                	li	a4,4
    b4c8:	40f707b3          	sub	a5,a4,a5
    b4cc:	4691                	li	a3,4
    b4ce:	0cd79f63          	bne	a5,a3,b5ac <__subtf3+0x8cc>
    b4d2:	5782                	lw	a5,32(sp)
    b4d4:	00c03633          	snez	a2,a2
    b4d8:	8e5d                	or	a2,a2,a5
    b4da:	d032                	sw	a2,32(sp)
    b4dc:	46d2                	lw	a3,20(sp)
    b4de:	45c2                	lw	a1,16(sp)
    b4e0:	5702                	lw	a4,32(sp)
    b4e2:	5792                	lw	a5,36(sp)
    b4e4:	40e58733          	sub	a4,a1,a4
    b4e8:	40f687b3          	sub	a5,a3,a5
    b4ec:	00f6b633          	sltu	a2,a3,a5
    b4f0:	00e5b6b3          	sltu	a3,a1,a4
    b4f4:	40d786b3          	sub	a3,a5,a3
    b4f8:	da36                	sw	a3,52(sp)
    b4fa:	d83a                	sw	a4,48(sp)
    b4fc:	4681                	li	a3,0
    b4fe:	00e5f463          	bleu	a4,a1,b506 <__subtf3+0x826>
    b502:	0017b693          	seqz	a3,a5
    b506:	8ed1                	or	a3,a3,a2
    b508:	5722                	lw	a4,40(sp)
    b50a:	4662                	lw	a2,24(sp)
    b50c:	40e60733          	sub	a4,a2,a4
    b510:	40d707b3          	sub	a5,a4,a3
    b514:	dc3e                	sw	a5,56(sp)
    b516:	00e635b3          	sltu	a1,a2,a4
    b51a:	4601                	li	a2,0
    b51c:	c299                	beqz	a3,b522 <__subtf3+0x842>
    b51e:	00173613          	seqz	a2,a4
    b522:	47f2                	lw	a5,28(sp)
    b524:	5732                	lw	a4,44(sp)
    b526:	8e4d                	or	a2,a2,a1
    b528:	8f99                	sub	a5,a5,a4
    b52a:	8f91                	sub	a5,a5,a2
    b52c:	de3e                	sw	a5,60(sp)
    b52e:	b73d                	j	b45c <__subtf3+0x77c>
    b530:	952e                	add	a0,a0,a1
    b532:	4108                	lw	a0,0(a0)
    b534:	0785                	addi	a5,a5,1
    b536:	8e49                	or	a2,a2,a0
    b538:	bfb5                	j	b4b4 <__subtf3+0x7d4>
    b53a:	00ae0833          	add	a6,t3,a0
    b53e:	00082803          	lw	a6,0(a6)
    b542:	0685                	addi	a3,a3,1
    b544:	010e2023          	sw	a6,0(t3)
    b548:	0e11                	addi	t3,t3,4
    b54a:	bfa5                	j	b4c2 <__subtf3+0x7e2>
    b54c:	04010813          	addi	a6,sp,64
    b550:	00a80733          	add	a4,a6,a0
    b554:	02000893          	li	a7,32
    b558:	fe072703          	lw	a4,-32(a4) # 7ffe0 <__bss_end+0x71f60>
    b55c:	40d888b3          	sub	a7,a7,a3
    b560:	01171733          	sll	a4,a4,a7
    b564:	8e59                	or	a2,a2,a4
    b566:	470d                	li	a4,3
    b568:	4301                	li	t1,0
    b56a:	8f1d                	sub	a4,a4,a5
    b56c:	00e34f63          	blt	t1,a4,b58a <__subtf3+0x8aa>
    b570:	4511                	li	a0,4
    b572:	40f507b3          	sub	a5,a0,a5
    b576:	5532                	lw	a0,44(sp)
    b578:	070a                	slli	a4,a4,0x2
    b57a:	04010893          	addi	a7,sp,64
    b57e:	9746                	add	a4,a4,a7
    b580:	00d556b3          	srl	a3,a0,a3
    b584:	fed72023          	sw	a3,-32(a4)
    b588:	b791                	j	b4cc <__subtf3+0x7ec>
    b58a:	00ae0eb3          	add	t4,t3,a0
    b58e:	000ea803          	lw	a6,0(t4)
    b592:	004eae83          	lw	t4,4(t4)
    b596:	00d85833          	srl	a6,a6,a3
    b59a:	011e9eb3          	sll	t4,t4,a7
    b59e:	01d86833          	or	a6,a6,t4
    b5a2:	010e2023          	sw	a6,0(t3)
    b5a6:	0305                	addi	t1,t1,1
    b5a8:	0e11                	addi	t3,t3,4
    b5aa:	b7c9                	j	b56c <__subtf3+0x88c>
    b5ac:	00279713          	slli	a4,a5,0x2
    b5b0:	972e                	add	a4,a4,a1
    b5b2:	00072023          	sw	zero,0(a4)
    b5b6:	0785                	addi	a5,a5,1
    b5b8:	bf19                	j	b4ce <__subtf3+0x7ee>
    b5ba:	1e070063          	beqz	a4,b79a <__subtf3+0xaba>
    b5be:	e455                	bnez	s0,b66a <__subtf3+0x98a>
    b5c0:	4e52                	lw	t3,20(sp)
    b5c2:	45e2                	lw	a1,24(sp)
    b5c4:	4ef2                	lw	t4,28(sp)
    b5c6:	00be66b3          	or	a3,t3,a1
    b5ca:	01d6e6b3          	or	a3,a3,t4
    b5ce:	0116e6b3          	or	a3,a3,a7
    b5d2:	ea99                	bnez	a3,b5e8 <__subtf3+0x908>
    b5d4:	d83e                	sw	a5,48(sp)
    b5d6:	5792                	lw	a5,36(sp)
    b5d8:	8432                	mv	s0,a2
    b5da:	da3e                	sw	a5,52(sp)
    b5dc:	57a2                	lw	a5,40(sp)
    b5de:	dc3e                	sw	a5,56(sp)
    b5e0:	57b2                	lw	a5,44(sp)
    b5e2:	de3e                	sw	a5,60(sp)
    b5e4:	892a                	mv	s2,a0
    b5e6:	bc09                	j	aff8 <__subtf3+0x318>
    b5e8:	56fd                	li	a3,-1
    b5ea:	06d71063          	bne	a4,a3,b64a <__subtf3+0x96a>
    b5ee:	5312                	lw	t1,36(sp)
    b5f0:	411786b3          	sub	a3,a5,a7
    b5f4:	41c30833          	sub	a6,t1,t3
    b5f8:	00d7b733          	sltu	a4,a5,a3
    b5fc:	010338b3          	sltu	a7,t1,a6
    b600:	40e80833          	sub	a6,a6,a4
    b604:	d836                	sw	a3,48(sp)
    b606:	da42                	sw	a6,52(sp)
    b608:	4701                	li	a4,0
    b60a:	00d7f663          	bleu	a3,a5,b616 <__subtf3+0x936>
    b60e:	406e0733          	sub	a4,t3,t1
    b612:	00173713          	seqz	a4,a4
    b616:	01176733          	or	a4,a4,a7
    b61a:	58a2                	lw	a7,40(sp)
    b61c:	4681                	li	a3,0
    b61e:	40b88833          	sub	a6,a7,a1
    b622:	0108b333          	sltu	t1,a7,a6
    b626:	40e80833          	sub	a6,a6,a4
    b62a:	dc42                	sw	a6,56(sp)
    b62c:	c709                	beqz	a4,b636 <__subtf3+0x956>
    b62e:	411585b3          	sub	a1,a1,a7
    b632:	0015b693          	seqz	a3,a1
    b636:	57b2                	lw	a5,44(sp)
    b638:	0066e5b3          	or	a1,a3,t1
    b63c:	41d787b3          	sub	a5,a5,t4
    b640:	8f8d                	sub	a5,a5,a1
    b642:	de3e                	sw	a5,60(sp)
    b644:	8432                	mv	s0,a2
    b646:	892a                	mv	s2,a0
    b648:	bd11                	j	b45c <__subtf3+0x77c>
    b64a:	66a1                	lui	a3,0x8
    b64c:	16fd                	addi	a3,a3,-1
    b64e:	f8d603e3          	beq	a2,a3,b5d4 <__subtf3+0x8f4>
    b652:	fff74713          	not	a4,a4
    b656:	07400793          	li	a5,116
    b65a:	02e7d763          	ble	a4,a5,b688 <__subtf3+0x9a8>
    b65e:	4785                	li	a5,1
    b660:	ce02                	sw	zero,28(sp)
    b662:	cc02                	sw	zero,24(sp)
    b664:	ca02                	sw	zero,20(sp)
    b666:	c83e                	sw	a5,16(sp)
    b668:	a889                	j	b6ba <__subtf3+0x9da>
    b66a:	66a1                	lui	a3,0x8
    b66c:	16fd                	addi	a3,a3,-1
    b66e:	f6d603e3          	beq	a2,a3,b5d4 <__subtf3+0x8f4>
    b672:	47f2                	lw	a5,28(sp)
    b674:	000806b7          	lui	a3,0x80
    b678:	8fd5                	or	a5,a5,a3
    b67a:	ce3e                	sw	a5,28(sp)
    b67c:	f8c00793          	li	a5,-116
    b680:	fcf74fe3          	blt	a4,a5,b65e <__subtf3+0x97e>
    b684:	40e00733          	neg	a4,a4
    b688:	40575693          	srai	a3,a4,0x5
    b68c:	4581                	li	a1,0
    b68e:	8b7d                	andi	a4,a4,31
    b690:	4781                	li	a5,0
    b692:	00279893          	slli	a7,a5,0x2
    b696:	06d79b63          	bne	a5,a3,b70c <__subtf3+0xa2c>
    b69a:	eb49                	bnez	a4,b72c <__subtf3+0xa4c>
    b69c:	468d                	li	a3,3
    b69e:	8e9d                	sub	a3,a3,a5
    b6a0:	06e6dd63          	ble	a4,a3,b71a <__subtf3+0xa3a>
    b6a4:	4711                	li	a4,4
    b6a6:	40f707b3          	sub	a5,a4,a5
    b6aa:	4691                	li	a3,4
    b6ac:	0ed79063          	bne	a5,a3,b78c <__subtf3+0xaac>
    b6b0:	47c2                	lw	a5,16(sp)
    b6b2:	00b035b3          	snez	a1,a1
    b6b6:	8ddd                	or	a1,a1,a5
    b6b8:	c82e                	sw	a1,16(sp)
    b6ba:	5692                	lw	a3,36(sp)
    b6bc:	5802                	lw	a6,32(sp)
    b6be:	4742                	lw	a4,16(sp)
    b6c0:	47d2                	lw	a5,20(sp)
    b6c2:	40e80733          	sub	a4,a6,a4
    b6c6:	40f687b3          	sub	a5,a3,a5
    b6ca:	00f6b5b3          	sltu	a1,a3,a5
    b6ce:	00e836b3          	sltu	a3,a6,a4
    b6d2:	40d786b3          	sub	a3,a5,a3
    b6d6:	da36                	sw	a3,52(sp)
    b6d8:	d83a                	sw	a4,48(sp)
    b6da:	4681                	li	a3,0
    b6dc:	00e87463          	bleu	a4,a6,b6e4 <__subtf3+0xa04>
    b6e0:	0017b693          	seqz	a3,a5
    b6e4:	8ecd                	or	a3,a3,a1
    b6e6:	4762                	lw	a4,24(sp)
    b6e8:	55a2                	lw	a1,40(sp)
    b6ea:	40e58733          	sub	a4,a1,a4
    b6ee:	40d707b3          	sub	a5,a4,a3
    b6f2:	dc3e                	sw	a5,56(sp)
    b6f4:	00e5b833          	sltu	a6,a1,a4
    b6f8:	4581                	li	a1,0
    b6fa:	c299                	beqz	a3,b700 <__subtf3+0xa20>
    b6fc:	00173593          	seqz	a1,a4
    b700:	57b2                	lw	a5,44(sp)
    b702:	4772                	lw	a4,28(sp)
    b704:	0105e5b3          	or	a1,a1,a6
    b708:	8f99                	sub	a5,a5,a4
    b70a:	bf1d                	j	b640 <__subtf3+0x960>
    b70c:	989a                	add	a7,a7,t1
    b70e:	0008a883          	lw	a7,0(a7)
    b712:	0785                	addi	a5,a5,1
    b714:	0115e5b3          	or	a1,a1,a7
    b718:	bfad                	j	b692 <__subtf3+0x9b2>
    b71a:	01180e33          	add	t3,a6,a7
    b71e:	000e2e03          	lw	t3,0(t3)
    b722:	0705                	addi	a4,a4,1
    b724:	01c82023          	sw	t3,0(a6)
    b728:	0811                	addi	a6,a6,4
    b72a:	bf9d                	j	b6a0 <__subtf3+0x9c0>
    b72c:	04010e13          	addi	t3,sp,64
    b730:	011e06b3          	add	a3,t3,a7
    b734:	02000e93          	li	t4,32
    b738:	fd06a683          	lw	a3,-48(a3) # 7ffd0 <__bss_end+0x71f50>
    b73c:	40ee8eb3          	sub	t4,t4,a4
    b740:	01d696b3          	sll	a3,a3,t4
    b744:	8dd5                	or	a1,a1,a3
    b746:	468d                	li	a3,3
    b748:	4f01                	li	t5,0
    b74a:	8e9d                	sub	a3,a3,a5
    b74c:	00df4f63          	blt	t5,a3,b76a <__subtf3+0xa8a>
    b750:	4811                	li	a6,4
    b752:	40f807b3          	sub	a5,a6,a5
    b756:	4872                	lw	a6,28(sp)
    b758:	068a                	slli	a3,a3,0x2
    b75a:	04010f93          	addi	t6,sp,64
    b75e:	96fe                	add	a3,a3,t6
    b760:	00e85733          	srl	a4,a6,a4
    b764:	fce6a823          	sw	a4,-48(a3)
    b768:	b789                	j	b6aa <__subtf3+0x9ca>
    b76a:	01180fb3          	add	t6,a6,a7
    b76e:	000fae03          	lw	t3,0(t6)
    b772:	004faf83          	lw	t6,4(t6)
    b776:	00ee5e33          	srl	t3,t3,a4
    b77a:	01df9fb3          	sll	t6,t6,t4
    b77e:	01fe6e33          	or	t3,t3,t6
    b782:	01c82023          	sw	t3,0(a6)
    b786:	0f05                	addi	t5,t5,1
    b788:	0811                	addi	a6,a6,4
    b78a:	b7c9                	j	b74c <__subtf3+0xa6c>
    b78c:	00279713          	slli	a4,a5,0x2
    b790:	971a                	add	a4,a4,t1
    b792:	00072023          	sw	zero,0(a4)
    b796:	0785                	addi	a5,a5,1
    b798:	bf11                	j	b6ac <__subtf3+0x9cc>
    b79a:	6fa1                	lui	t6,0x8
    b79c:	00140693          	addi	a3,s0,1 # 8001 <__ascii_wctomb+0x1d>
    b7a0:	ffff8293          	addi	t0,t6,-1 # 7fff <__ascii_wctomb+0x1b>
    b7a4:	0056f6b3          	and	a3,a3,t0
    b7a8:	4805                	li	a6,1
    b7aa:	5592                	lw	a1,36(sp)
    b7ac:	4652                	lw	a2,20(sp)
    b7ae:	4362                	lw	t1,24(sp)
    b7b0:	4f72                	lw	t5,28(sp)
    b7b2:	5e22                	lw	t3,40(sp)
    b7b4:	5eb2                	lw	t4,44(sp)
    b7b6:	14d84d63          	blt	a6,a3,b910 <__subtf3+0xc30>
    b7ba:	01c5e833          	or	a6,a1,t3
    b7be:	006666b3          	or	a3,a2,t1
    b7c2:	01d86833          	or	a6,a6,t4
    b7c6:	01e6e6b3          	or	a3,a3,t5
    b7ca:	00f86833          	or	a6,a6,a5
    b7ce:	0116e6b3          	or	a3,a3,a7
    b7d2:	e879                	bnez	s0,b8a8 <__subtf3+0xbc8>
    b7d4:	ea91                	bnez	a3,b7e8 <__subtf3+0xb08>
    b7d6:	d83e                	sw	a5,48(sp)
    b7d8:	da2e                	sw	a1,52(sp)
    b7da:	dc72                	sw	t3,56(sp)
    b7dc:	de76                	sw	t4,60(sp)
    b7de:	e00813e3          	bnez	a6,b5e4 <__subtf3+0x904>
    b7e2:	4401                	li	s0,0
    b7e4:	4901                	li	s2,0
    b7e6:	b881                	j	b036 <__subtf3+0x356>
    b7e8:	00081763          	bnez	a6,b7f6 <__subtf3+0xb16>
    b7ec:	d846                	sw	a7,48(sp)
    b7ee:	da32                	sw	a2,52(sp)
    b7f0:	dc1a                	sw	t1,56(sp)
    b7f2:	de7a                	sw	t5,60(sp)
    b7f4:	b011                	j	aff8 <__subtf3+0x318>
    b7f6:	40f88833          	sub	a6,a7,a5
    b7fa:	40b602b3          	sub	t0,a2,a1
    b7fe:	0108bfb3          	sltu	t6,a7,a6
    b802:	005636b3          	sltu	a3,a2,t0
    b806:	41f282b3          	sub	t0,t0,t6
    b80a:	d842                	sw	a6,48(sp)
    b80c:	da16                	sw	t0,52(sp)
    b80e:	4f81                	li	t6,0
    b810:	0108f663          	bleu	a6,a7,b81c <__subtf3+0xb3c>
    b814:	40c58fb3          	sub	t6,a1,a2
    b818:	001fbf93          	seqz	t6,t6
    b81c:	41c303b3          	sub	t2,t1,t3
    b820:	00dfefb3          	or	t6,t6,a3
    b824:	41f38a33          	sub	s4,t2,t6
    b828:	dc52                	sw	s4,56(sp)
    b82a:	00733ab3          	sltu	s5,t1,t2
    b82e:	4981                	li	s3,0
    b830:	000f8463          	beqz	t6,b838 <__subtf3+0xb58>
    b834:	0013b993          	seqz	s3,t2
    b838:	41df06b3          	sub	a3,t5,t4
    b83c:	0159e9b3          	or	s3,s3,s5
    b840:	413686b3          	sub	a3,a3,s3
    b844:	de36                	sw	a3,60(sp)
    b846:	00c69f93          	slli	t6,a3,0xc
    b84a:	040fd563          	bgez	t6,b894 <__subtf3+0xbb4>
    b84e:	411786b3          	sub	a3,a5,a7
    b852:	40c58633          	sub	a2,a1,a2
    b856:	00d7b833          	sltu	a6,a5,a3
    b85a:	41060833          	sub	a6,a2,a6
    b85e:	da42                	sw	a6,52(sp)
    b860:	d836                	sw	a3,48(sp)
    b862:	00c5b5b3          	sltu	a1,a1,a2
    b866:	4801                	li	a6,0
    b868:	00d7f463          	bleu	a3,a5,b870 <__subtf3+0xb90>
    b86c:	00163813          	seqz	a6,a2
    b870:	406e07b3          	sub	a5,t3,t1
    b874:	00b865b3          	or	a1,a6,a1
    b878:	00fe36b3          	sltu	a3,t3,a5
    b87c:	8f8d                	sub	a5,a5,a1
    b87e:	dc3e                	sw	a5,56(sp)
    b880:	c199                	beqz	a1,b886 <__subtf3+0xba6>
    b882:	0013b713          	seqz	a4,t2
    b886:	41ee87b3          	sub	a5,t4,t5
    b88a:	8f55                	or	a4,a4,a3
    b88c:	40e78733          	sub	a4,a5,a4
    b890:	de3a                	sw	a4,60(sp)
    b892:	bb89                	j	b5e4 <__subtf3+0x904>
    b894:	00586833          	or	a6,a6,t0
    b898:	01486833          	or	a6,a6,s4
    b89c:	00d86833          	or	a6,a6,a3
    b8a0:	f40801e3          	beqz	a6,b7e2 <__subtf3+0xb02>
    b8a4:	f54ff06f          	j	aff8 <__subtf3+0x318>
    b8a8:	03010393          	addi	t2,sp,48
    b8ac:	ea9d                	bnez	a3,b8e2 <__subtf3+0xc02>
    b8ae:	02081263          	bnez	a6,b8d2 <__subtf3+0xbf2>
    b8b2:	de7e                	sw	t6,60(sp)
    b8b4:	dc02                	sw	zero,56(sp)
    b8b6:	da02                	sw	zero,52(sp)
    b8b8:	d802                	sw	zero,48(sp)
    b8ba:	187c                	addi	a5,sp,60
    b8bc:	4398                	lw	a4,0(a5)
    b8be:	ffc7a683          	lw	a3,-4(a5) # 7ffc <__ascii_wctomb+0x18>
    b8c2:	070e                	slli	a4,a4,0x3
    b8c4:	82f5                	srli	a3,a3,0x1d
    b8c6:	8f55                	or	a4,a4,a3
    b8c8:	c398                	sw	a4,0(a5)
    b8ca:	17f1                	addi	a5,a5,-4
    b8cc:	fef398e3          	bne	t2,a5,b8bc <__subtf3+0xbdc>
    b8d0:	bc69                	j	b36a <__subtf3+0x68a>
    b8d2:	d83e                	sw	a5,48(sp)
    b8d4:	da2e                	sw	a1,52(sp)
    b8d6:	dc72                	sw	t3,56(sp)
    b8d8:	de76                	sw	t4,60(sp)
    b8da:	892a                	mv	s2,a0
    b8dc:	8416                	mv	s0,t0
    b8de:	f1aff06f          	j	aff8 <__subtf3+0x318>
    b8e2:	00081763          	bnez	a6,b8f0 <__subtf3+0xc10>
    b8e6:	d846                	sw	a7,48(sp)
    b8e8:	da32                	sw	a2,52(sp)
    b8ea:	dc1a                	sw	t1,56(sp)
    b8ec:	de7a                	sw	t5,60(sp)
    b8ee:	b7fd                	j	b8dc <__subtf3+0xbfc>
    b8f0:	de7e                	sw	t6,60(sp)
    b8f2:	dc02                	sw	zero,56(sp)
    b8f4:	da02                	sw	zero,52(sp)
    b8f6:	d802                	sw	zero,48(sp)
    b8f8:	187c                	addi	a5,sp,60
    b8fa:	4398                	lw	a4,0(a5)
    b8fc:	ffc7a683          	lw	a3,-4(a5)
    b900:	070e                	slli	a4,a4,0x3
    b902:	82f5                	srli	a3,a3,0x1d
    b904:	8f55                	or	a4,a4,a3
    b906:	c398                	sw	a4,0(a5)
    b908:	17f1                	addi	a5,a5,-4
    b90a:	fef398e3          	bne	t2,a5,b8fa <__subtf3+0xc1a>
    b90e:	bcb1                	j	b36a <__subtf3+0x68a>
    b910:	40f88833          	sub	a6,a7,a5
    b914:	40b602b3          	sub	t0,a2,a1
    b918:	0108bfb3          	sltu	t6,a7,a6
    b91c:	005636b3          	sltu	a3,a2,t0
    b920:	41f282b3          	sub	t0,t0,t6
    b924:	d842                	sw	a6,48(sp)
    b926:	da16                	sw	t0,52(sp)
    b928:	4f81                	li	t6,0
    b92a:	0108f663          	bleu	a6,a7,b936 <__subtf3+0xc56>
    b92e:	40c58fb3          	sub	t6,a1,a2
    b932:	001fbf93          	seqz	t6,t6
    b936:	41c303b3          	sub	t2,t1,t3
    b93a:	00dfefb3          	or	t6,t6,a3
    b93e:	41f38a33          	sub	s4,t2,t6
    b942:	dc52                	sw	s4,56(sp)
    b944:	00733ab3          	sltu	s5,t1,t2
    b948:	4981                	li	s3,0
    b94a:	000f8463          	beqz	t6,b952 <__subtf3+0xc72>
    b94e:	0013b993          	seqz	s3,t2
    b952:	41df06b3          	sub	a3,t5,t4
    b956:	0159e9b3          	or	s3,s3,s5
    b95a:	413686b3          	sub	a3,a3,s3
    b95e:	de36                	sw	a3,60(sp)
    b960:	00c69f93          	slli	t6,a3,0xc
    b964:	080fd563          	bgez	t6,b9ee <__subtf3+0xd0e>
    b968:	411786b3          	sub	a3,a5,a7
    b96c:	40c58633          	sub	a2,a1,a2
    b970:	00d7b833          	sltu	a6,a5,a3
    b974:	41060833          	sub	a6,a2,a6
    b978:	da42                	sw	a6,52(sp)
    b97a:	d836                	sw	a3,48(sp)
    b97c:	00c5b5b3          	sltu	a1,a1,a2
    b980:	4801                	li	a6,0
    b982:	00d7f463          	bleu	a3,a5,b98a <__subtf3+0xcaa>
    b986:	00163813          	seqz	a6,a2
    b98a:	406e07b3          	sub	a5,t3,t1
    b98e:	00b865b3          	or	a1,a6,a1
    b992:	00fe36b3          	sltu	a3,t3,a5
    b996:	8f8d                	sub	a5,a5,a1
    b998:	dc3e                	sw	a5,56(sp)
    b99a:	c199                	beqz	a1,b9a0 <__subtf3+0xcc0>
    b99c:	0013b713          	seqz	a4,t2
    b9a0:	41ee87b3          	sub	a5,t4,t5
    b9a4:	8f55                	or	a4,a4,a3
    b9a6:	40e78733          	sub	a4,a5,a4
    b9aa:	de3a                	sw	a4,60(sp)
    b9ac:	892a                	mv	s2,a0
    b9ae:	5572                	lw	a0,60(sp)
    b9b0:	c921                	beqz	a0,ba00 <__subtf3+0xd20>
    b9b2:	2785                	jal	c112 <__clzsi2>
    b9b4:	1551                	addi	a0,a0,-12
    b9b6:	02000693          	li	a3,32
    b9ba:	02d56833          	rem	a6,a0,a3
    b9be:	02d547b3          	div	a5,a0,a3
    b9c2:	06080063          	beqz	a6,ba22 <__subtf3+0xd42>
    b9c6:	5771                	li	a4,-4
    b9c8:	02e78733          	mul	a4,a5,a4
    b9cc:	00279593          	slli	a1,a5,0x2
    b9d0:	5e41                	li	t3,-16
    b9d2:	410686b3          	sub	a3,a3,a6
    b9d6:	1771                	addi	a4,a4,-4
    b9d8:	0bc71f63          	bne	a4,t3,ba96 <__subtf3+0xdb6>
    b9dc:	5742                	lw	a4,48(sp)
    b9de:	0094                	addi	a3,sp,64
    b9e0:	95b6                	add	a1,a1,a3
    b9e2:	01071833          	sll	a6,a4,a6
    b9e6:	17fd                	addi	a5,a5,-1
    b9e8:	ff05a823          	sw	a6,-16(a1)
    b9ec:	a889                	j	ba3e <__subtf3+0xd5e>
    b9ee:	00586833          	or	a6,a6,t0
    b9f2:	01486833          	or	a6,a6,s4
    b9f6:	00d86833          	or	a6,a6,a3
    b9fa:	de0804e3          	beqz	a6,b7e2 <__subtf3+0xb02>
    b9fe:	bf45                	j	b9ae <__subtf3+0xcce>
    ba00:	5562                	lw	a0,56(sp)
    ba02:	c509                	beqz	a0,ba0c <__subtf3+0xd2c>
    ba04:	2739                	jal	c112 <__clzsi2>
    ba06:	02050513          	addi	a0,a0,32 # 8020 <_write_r+0x1c>
    ba0a:	b76d                	j	b9b4 <__subtf3+0xcd4>
    ba0c:	5552                	lw	a0,52(sp)
    ba0e:	c509                	beqz	a0,ba18 <__subtf3+0xd38>
    ba10:	2709                	jal	c112 <__clzsi2>
    ba12:	04050513          	addi	a0,a0,64
    ba16:	bf79                	j	b9b4 <__subtf3+0xcd4>
    ba18:	5542                	lw	a0,48(sp)
    ba1a:	2de5                	jal	c112 <__clzsi2>
    ba1c:	06050513          	addi	a0,a0,96
    ba20:	bf51                	j	b9b4 <__subtf3+0xcd4>
    ba22:	5671                	li	a2,-4
    ba24:	1818                	addi	a4,sp,48
    ba26:	02c78633          	mul	a2,a5,a2
    ba2a:	468d                	li	a3,3
    ba2c:	00c705b3          	add	a1,a4,a2
    ba30:	45cc                	lw	a1,12(a1)
    ba32:	16fd                	addi	a3,a3,-1
    ba34:	c74c                	sw	a1,12(a4)
    ba36:	1771                	addi	a4,a4,-4
    ba38:	fef6dae3          	ble	a5,a3,ba2c <__subtf3+0xd4c>
    ba3c:	17fd                	addi	a5,a5,-1
    ba3e:	56fd                	li	a3,-1
    ba40:	06d79e63          	bne	a5,a3,babc <__subtf3+0xddc>
    ba44:	10854c63          	blt	a0,s0,bb5c <__subtf3+0xe7c>
    ba48:	40850433          	sub	s0,a0,s0
    ba4c:	02000713          	li	a4,32
    ba50:	0405                	addi	s0,s0,1
    ba52:	02e447b3          	div	a5,s0,a4
    ba56:	4501                	li	a0,0
    ba58:	02e46433          	rem	s0,s0,a4
    ba5c:	4701                	li	a4,0
    ba5e:	06f74863          	blt	a4,a5,bace <__subtf3+0xdee>
    ba62:	873e                	mv	a4,a5
    ba64:	0007d363          	bgez	a5,ba6a <__subtf3+0xd8a>
    ba68:	4701                	li	a4,0
    ba6a:	00279313          	slli	t1,a5,0x2
    ba6e:	e041                	bnez	s0,baee <__subtf3+0xe0e>
    ba70:	468d                	li	a3,3
    ba72:	1818                	addi	a4,sp,48
    ba74:	8e9d                	sub	a3,a3,a5
    ba76:	0686d563          	ble	s0,a3,bae0 <__subtf3+0xe00>
    ba7a:	4711                	li	a4,4
    ba7c:	40f707b3          	sub	a5,a4,a5
    ba80:	468d                	li	a3,3
    ba82:	0cf6d563          	ble	a5,a3,bb4c <__subtf3+0xe6c>
    ba86:	5742                	lw	a4,48(sp)
    ba88:	00a037b3          	snez	a5,a0
    ba8c:	8fd9                	or	a5,a5,a4
    ba8e:	d83e                	sw	a5,48(sp)
    ba90:	4401                	li	s0,0
    ba92:	d66ff06f          	j	aff8 <__subtf3+0x318>
    ba96:	1810                	addi	a2,sp,48
    ba98:	00e60333          	add	t1,a2,a4
    ba9c:	00e588b3          	add	a7,a1,a4
    baa0:	98b2                	add	a7,a7,a2
    baa2:	00c32603          	lw	a2,12(t1)
    baa6:	01032303          	lw	t1,16(t1)
    baaa:	00d65633          	srl	a2,a2,a3
    baae:	01031333          	sll	t1,t1,a6
    bab2:	00666633          	or	a2,a2,t1
    bab6:	00c8a823          	sw	a2,16(a7)
    baba:	bf31                	j	b9d6 <__subtf3+0xcf6>
    babc:	00279713          	slli	a4,a5,0x2
    bac0:	03010813          	addi	a6,sp,48
    bac4:	9742                	add	a4,a4,a6
    bac6:	00072023          	sw	zero,0(a4)
    baca:	17fd                	addi	a5,a5,-1
    bacc:	bf95                	j	ba40 <__subtf3+0xd60>
    bace:	00271693          	slli	a3,a4,0x2
    bad2:	03010893          	addi	a7,sp,48
    bad6:	96c6                	add	a3,a3,a7
    bad8:	4294                	lw	a3,0(a3)
    bada:	0705                	addi	a4,a4,1
    badc:	8d55                	or	a0,a0,a3
    bade:	b741                	j	ba5e <__subtf3+0xd7e>
    bae0:	00670633          	add	a2,a4,t1
    bae4:	4210                	lw	a2,0(a2)
    bae6:	0405                	addi	s0,s0,1
    bae8:	c310                	sw	a2,0(a4)
    baea:	0711                	addi	a4,a4,4
    baec:	b769                	j	ba76 <__subtf3+0xd96>
    baee:	070a                	slli	a4,a4,0x2
    baf0:	04010e13          	addi	t3,sp,64
    baf4:	9772                	add	a4,a4,t3
    baf6:	02000613          	li	a2,32
    bafa:	ff072703          	lw	a4,-16(a4)
    bafe:	8e01                	sub	a2,a2,s0
    bb00:	00c71733          	sll	a4,a4,a2
    bb04:	8d59                	or	a0,a0,a4
    bb06:	470d                	li	a4,3
    bb08:	180c                	addi	a1,sp,48
    bb0a:	4801                	li	a6,0
    bb0c:	8f1d                	sub	a4,a4,a5
    bb0e:	00e84f63          	blt	a6,a4,bb2c <__subtf3+0xe4c>
    bb12:	4691                	li	a3,4
    bb14:	40f687b3          	sub	a5,a3,a5
    bb18:	56f2                	lw	a3,60(sp)
    bb1a:	070a                	slli	a4,a4,0x2
    bb1c:	04010f93          	addi	t6,sp,64
    bb20:	977e                	add	a4,a4,t6
    bb22:	0086d433          	srl	s0,a3,s0
    bb26:	fe872823          	sw	s0,-16(a4)
    bb2a:	bf99                	j	ba80 <__subtf3+0xda0>
    bb2c:	006588b3          	add	a7,a1,t1
    bb30:	0008a683          	lw	a3,0(a7)
    bb34:	0048a883          	lw	a7,4(a7)
    bb38:	0086d6b3          	srl	a3,a3,s0
    bb3c:	00c898b3          	sll	a7,a7,a2
    bb40:	0116e6b3          	or	a3,a3,a7
    bb44:	c194                	sw	a3,0(a1)
    bb46:	0805                	addi	a6,a6,1
    bb48:	0591                	addi	a1,a1,4
    bb4a:	b7d1                	j	bb0e <__subtf3+0xe2e>
    bb4c:	00279713          	slli	a4,a5,0x2
    bb50:	1810                	addi	a2,sp,48
    bb52:	9732                	add	a4,a4,a2
    bb54:	00072023          	sw	zero,0(a4)
    bb58:	0785                	addi	a5,a5,1
    bb5a:	b725                	j	ba82 <__subtf3+0xda2>
    bb5c:	57f2                	lw	a5,60(sp)
    bb5e:	fff80737          	lui	a4,0xfff80
    bb62:	177d                	addi	a4,a4,-1
    bb64:	8c09                	sub	s0,s0,a0
    bb66:	8ff9                	and	a5,a5,a4
    bb68:	fb0ff06f          	j	b318 <__subtf3+0x638>
    bb6c:	de02                	sw	zero,60(sp)
    bb6e:	dc02                	sw	zero,56(sp)
    bb70:	da02                	sw	zero,52(sp)
    bb72:	d802                	sw	zero,48(sp)
    bb74:	ce0ff06f          	j	b054 <__subtf3+0x374>

0000bb78 <__fixtfsi>:
    bb78:	4158                	lw	a4,4(a0)
    bb7a:	451c                	lw	a5,8(a0)
    bb7c:	4550                	lw	a2,12(a0)
    bb7e:	1101                	addi	sp,sp,-32
    bb80:	4114                	lw	a3,0(a0)
    bb82:	c23a                	sw	a4,4(sp)
    bb84:	c43e                	sw	a5,8(sp)
    bb86:	ca3a                	sw	a4,20(sp)
    bb88:	cc3e                	sw	a5,24(sp)
    bb8a:	6711                	lui	a4,0x4
    bb8c:	00161793          	slli	a5,a2,0x1
    bb90:	c036                	sw	a3,0(sp)
    bb92:	c836                	sw	a3,16(sp)
    bb94:	c632                	sw	a2,12(sp)
    bb96:	0117d693          	srli	a3,a5,0x11
    bb9a:	ffe70793          	addi	a5,a4,-2 # 3ffe <_ldtoa_r+0x16a>
    bb9e:	4501                	li	a0,0
    bba0:	00d7de63          	ble	a3,a5,bbbc <__fixtfsi+0x44>
    bba4:	01d70793          	addi	a5,a4,29
    bba8:	01061593          	slli	a1,a2,0x10
    bbac:	827d                	srli	a2,a2,0x1f
    bbae:	00d7d963          	ble	a3,a5,bbc0 <__fixtfsi+0x48>
    bbb2:	80000537          	lui	a0,0x80000
    bbb6:	fff54513          	not	a0,a0
    bbba:	9532                	add	a0,a0,a2
    bbbc:	6105                	addi	sp,sp,32
    bbbe:	8082                	ret
    bbc0:	67c1                	lui	a5,0x10
    bbc2:	81c1                	srli	a1,a1,0x10
    bbc4:	8ddd                	or	a1,a1,a5
    bbc6:	06f70793          	addi	a5,a4,111
    bbca:	8f95                	sub	a5,a5,a3
    bbcc:	4057d713          	srai	a4,a5,0x5
    bbd0:	ce2e                	sw	a1,28(sp)
    bbd2:	8bfd                	andi	a5,a5,31
    bbd4:	efa5                	bnez	a5,bc4c <__fixtfsi+0xd4>
    bbd6:	458d                	li	a1,3
    bbd8:	0814                	addi	a3,sp,16
    bbda:	00271513          	slli	a0,a4,0x2
    bbde:	8d99                	sub	a1,a1,a4
    bbe0:	02f5d563          	ble	a5,a1,bc0a <__fixtfsi+0x92>
    bbe4:	4791                	li	a5,4
    bbe6:	40e78733          	sub	a4,a5,a4
    bbea:	0814                	addi	a3,sp,16
    bbec:	00271793          	slli	a5,a4,0x2
    bbf0:	97b6                	add	a5,a5,a3
    bbf2:	4691                	li	a3,4
    bbf4:	0007a023          	sw	zero,0(a5) # 10000 <__bss_end+0x1f80>
    bbf8:	0705                	addi	a4,a4,1
    bbfa:	0791                	addi	a5,a5,4
    bbfc:	fed71ce3          	bne	a4,a3,bbf4 <__fixtfsi+0x7c>
    bc00:	4542                	lw	a0,16(sp)
    bc02:	de4d                	beqz	a2,bbbc <__fixtfsi+0x44>
    bc04:	40a00533          	neg	a0,a0
    bc08:	bf55                	j	bbbc <__fixtfsi+0x44>
    bc0a:	00a68833          	add	a6,a3,a0
    bc0e:	00082803          	lw	a6,0(a6)
    bc12:	0785                	addi	a5,a5,1
    bc14:	0106a023          	sw	a6,0(a3)
    bc18:	0691                	addi	a3,a3,4
    bc1a:	b7d9                	j	bbe0 <__fixtfsi+0x68>
    bc1c:	ff052683          	lw	a3,-16(a0) # 7ffffff0 <pulp__FC+0x7ffffff1>
    bc20:	ff072303          	lw	t1,-16(a4)
    bc24:	011696b3          	sll	a3,a3,a7
    bc28:	00f35333          	srl	t1,t1,a5
    bc2c:	0066e6b3          	or	a3,a3,t1
    bc30:	c836                	sw	a3,16(sp)
    bc32:	4685                	li	a3,1
    bc34:	ff06c4e3          	blt	a3,a6,bc1c <__fixtfsi+0xa4>
    bc38:	00168713          	addi	a4,a3,1
    bc3c:	1008                	addi	a0,sp,32
    bc3e:	068a                	slli	a3,a3,0x2
    bc40:	96aa                	add	a3,a3,a0
    bc42:	00f5d7b3          	srl	a5,a1,a5
    bc46:	fef6a823          	sw	a5,-16(a3)
    bc4a:	b745                	j	bbea <__fixtfsi+0x72>
    bc4c:	00170513          	addi	a0,a4,1
    bc50:	480d                	li	a6,3
    bc52:	02010313          	addi	t1,sp,32
    bc56:	40e80833          	sub	a6,a6,a4
    bc5a:	050a                	slli	a0,a0,0x2
    bc5c:	02000893          	li	a7,32
    bc60:	070a                	slli	a4,a4,0x2
    bc62:	4681                	li	a3,0
    bc64:	951a                	add	a0,a0,t1
    bc66:	40f888b3          	sub	a7,a7,a5
    bc6a:	971a                	add	a4,a4,t1
    bc6c:	b7e1                	j	bc34 <__fixtfsi+0xbc>

0000bc6e <__floatsitf>:
    bc6e:	7179                	addi	sp,sp,-48
    bc70:	d226                	sw	s1,36(sp)
    bc72:	d606                	sw	ra,44(sp)
    bc74:	d422                	sw	s0,40(sp)
    bc76:	d04a                	sw	s2,32(sp)
    bc78:	84aa                	mv	s1,a0
    bc7a:	c9f1                	beqz	a1,bd4e <__floatsitf+0xe0>
    bc7c:	842e                	mv	s0,a1
    bc7e:	01f5d913          	srli	s2,a1,0x1f
    bc82:	0005d463          	bgez	a1,bc8a <__floatsitf+0x1c>
    bc86:	40b00433          	neg	s0,a1
    bc8a:	8522                	mv	a0,s0
    bc8c:	2159                	jal	c112 <__clzsi2>
    bc8e:	05150593          	addi	a1,a0,81
    bc92:	6711                	lui	a4,0x4
    bc94:	0779                	addi	a4,a4,30
    bc96:	4055d793          	srai	a5,a1,0x5
    bc9a:	c822                	sw	s0,16(sp)
    bc9c:	ca02                	sw	zero,20(sp)
    bc9e:	cc02                	sw	zero,24(sp)
    bca0:	ce02                	sw	zero,28(sp)
    bca2:	89fd                	andi	a1,a1,31
    bca4:	8f09                	sub	a4,a4,a0
    bca6:	c585                	beqz	a1,bcce <__floatsitf+0x60>
    bca8:	4689                	li	a3,2
    bcaa:	0ad79063          	bne	a5,a3,bd4a <__floatsitf+0xdc>
    bcae:	02000693          	li	a3,32
    bcb2:	8e8d                	sub	a3,a3,a1
    bcb4:	00d456b3          	srl	a3,s0,a3
    bcb8:	ce36                	sw	a3,28(sp)
    bcba:	fff78693          	addi	a3,a5,-1
    bcbe:	1010                	addi	a2,sp,32
    bcc0:	078a                	slli	a5,a5,0x2
    bcc2:	97b2                	add	a5,a5,a2
    bcc4:	00b41433          	sll	s0,s0,a1
    bcc8:	fe87a823          	sw	s0,-16(a5)
    bccc:	a839                	j	bcea <__floatsitf+0x7c>
    bcce:	468d                	li	a3,3
    bcd0:	8e9d                	sub	a3,a3,a5
    bcd2:	1010                	addi	a2,sp,32
    bcd4:	068a                	slli	a3,a3,0x2
    bcd6:	96b2                	add	a3,a3,a2
    bcd8:	ff06a683          	lw	a3,-16(a3)
    bcdc:	4609                	li	a2,2
    bcde:	ce36                	sw	a3,28(sp)
    bce0:	4689                	li	a3,2
    bce2:	00c79463          	bne	a5,a2,bcea <__floatsitf+0x7c>
    bce6:	cc22                	sw	s0,24(sp)
    bce8:	4685                	li	a3,1
    bcea:	081c                	addi	a5,sp,16
    bcec:	00269613          	slli	a2,a3,0x2
    bcf0:	963e                	add	a2,a2,a5
    bcf2:	57fd                	li	a5,-1
    bcf4:	00062023          	sw	zero,0(a2)
    bcf8:	16fd                	addi	a3,a3,-1
    bcfa:	1671                	addi	a2,a2,-4
    bcfc:	fef69ce3          	bne	a3,a5,bcf4 <__floatsitf+0x86>
    bd00:	47f2                	lw	a5,28(sp)
    bd02:	66a1                	lui	a3,0x8
    bd04:	16fd                	addi	a3,a3,-1
    bd06:	8ef9                	and	a3,a3,a4
    bd08:	00e15703          	lhu	a4,14(sp)
    bd0c:	00f11623          	sh	a5,12(sp)
    bd10:	77e1                	lui	a5,0xffff8
    bd12:	8f7d                	and	a4,a4,a5
    bd14:	8f55                	or	a4,a4,a3
    bd16:	00875793          	srli	a5,a4,0x8
    bd1a:	00e11723          	sh	a4,14(sp)
    bd1e:	07f7f793          	andi	a5,a5,127
    bd22:	00791713          	slli	a4,s2,0x7
    bd26:	8fd9                	or	a5,a5,a4
    bd28:	00f107a3          	sb	a5,15(sp)
    bd2c:	47c2                	lw	a5,16(sp)
    bd2e:	50b2                	lw	ra,44(sp)
    bd30:	c09c                	sw	a5,0(s1)
    bd32:	47d2                	lw	a5,20(sp)
    bd34:	5422                	lw	s0,40(sp)
    bd36:	c0dc                	sw	a5,4(s1)
    bd38:	47e2                	lw	a5,24(sp)
    bd3a:	8526                	mv	a0,s1
    bd3c:	c49c                	sw	a5,8(s1)
    bd3e:	47b2                	lw	a5,12(sp)
    bd40:	5902                	lw	s2,32(sp)
    bd42:	c4dc                	sw	a5,12(s1)
    bd44:	5492                	lw	s1,36(sp)
    bd46:	6145                	addi	sp,sp,48
    bd48:	8082                	ret
    bd4a:	478d                	li	a5,3
    bd4c:	b7bd                	j	bcba <__floatsitf+0x4c>
    bd4e:	ce02                	sw	zero,28(sp)
    bd50:	cc02                	sw	zero,24(sp)
    bd52:	ca02                	sw	zero,20(sp)
    bd54:	c802                	sw	zero,16(sp)
    bd56:	4701                	li	a4,0
    bd58:	4901                	li	s2,0
    bd5a:	b75d                	j	bd00 <__floatsitf+0x92>

0000bd5c <__extenddftf2>:
    bd5c:	01465793          	srli	a5,a2,0x14
    bd60:	00100737          	lui	a4,0x100
    bd64:	177d                	addi	a4,a4,-1
    bd66:	7ff7f793          	andi	a5,a5,2047
    bd6a:	7179                	addi	sp,sp,-48
    bd6c:	8f71                	and	a4,a4,a2
    bd6e:	00178693          	addi	a3,a5,1 # ffff8001 <pulp__FC+0xffff8002>
    bd72:	d422                	sw	s0,40(sp)
    bd74:	d226                	sw	s1,36(sp)
    bd76:	01f65413          	srli	s0,a2,0x1f
    bd7a:	d606                	sw	ra,44(sp)
    bd7c:	c82e                	sw	a1,16(sp)
    bd7e:	ca3a                	sw	a4,20(sp)
    bd80:	ce02                	sw	zero,28(sp)
    bd82:	cc02                	sw	zero,24(sp)
    bd84:	7ff6f693          	andi	a3,a3,2047
    bd88:	4605                	li	a2,1
    bd8a:	84aa                	mv	s1,a0
    bd8c:	06d65563          	ble	a3,a2,bdf6 <__extenddftf2+0x9a>
    bd90:	6691                	lui	a3,0x4
    bd92:	c0068693          	addi	a3,a3,-1024 # 3c00 <emul+0x162>
    bd96:	0045d513          	srli	a0,a1,0x4
    bd9a:	97b6                	add	a5,a5,a3
    bd9c:	00475693          	srli	a3,a4,0x4
    bda0:	0772                	slli	a4,a4,0x1c
    bda2:	8f49                	or	a4,a4,a0
    bda4:	05f2                	slli	a1,a1,0x1c
    bda6:	ce36                	sw	a3,28(sp)
    bda8:	cc3a                	sw	a4,24(sp)
    bdaa:	ca2e                	sw	a1,20(sp)
    bdac:	c802                	sw	zero,16(sp)
    bdae:	4772                	lw	a4,28(sp)
    bdb0:	6521                	lui	a0,0x8
    bdb2:	157d                	addi	a0,a0,-1
    bdb4:	8fe9                	and	a5,a5,a0
    bdb6:	00e15503          	lhu	a0,14(sp)
    bdba:	00e11623          	sh	a4,12(sp)
    bdbe:	7761                	lui	a4,0xffff8
    bdc0:	8d79                	and	a0,a0,a4
    bdc2:	8fc9                	or	a5,a5,a0
    bdc4:	00f11723          	sh	a5,14(sp)
    bdc8:	0087d713          	srli	a4,a5,0x8
    bdcc:	47c2                	lw	a5,16(sp)
    bdce:	00741613          	slli	a2,s0,0x7
    bdd2:	c09c                	sw	a5,0(s1)
    bdd4:	47d2                	lw	a5,20(sp)
    bdd6:	07f77413          	andi	s0,a4,127
    bdda:	c0dc                	sw	a5,4(s1)
    bddc:	8c51                	or	s0,s0,a2
    bdde:	47e2                	lw	a5,24(sp)
    bde0:	008107a3          	sb	s0,15(sp)
    bde4:	c49c                	sw	a5,8(s1)
    bde6:	47b2                	lw	a5,12(sp)
    bde8:	50b2                	lw	ra,44(sp)
    bdea:	5422                	lw	s0,40(sp)
    bdec:	c4dc                	sw	a5,12(s1)
    bdee:	8526                	mv	a0,s1
    bdf0:	5492                	lw	s1,36(sp)
    bdf2:	6145                	addi	sp,sp,48
    bdf4:	8082                	ret
    bdf6:	00b76533          	or	a0,a4,a1
    bdfa:	e7cd                	bnez	a5,bea4 <__extenddftf2+0x148>
    bdfc:	d94d                	beqz	a0,bdae <__extenddftf2+0x52>
    bdfe:	c329                	beqz	a4,be40 <__extenddftf2+0xe4>
    be00:	853a                	mv	a0,a4
    be02:	2e01                	jal	c112 <__clzsi2>
    be04:	03150693          	addi	a3,a0,49 # 8031 <_write_r+0x2d>
    be08:	4056d713          	srai	a4,a3,0x5
    be0c:	8afd                	andi	a3,a3,31
    be0e:	ce8d                	beqz	a3,be48 <__extenddftf2+0xec>
    be10:	5671                	li	a2,-4
    be12:	02000813          	li	a6,32
    be16:	081c                	addi	a5,sp,16
    be18:	02c70633          	mul	a2,a4,a2
    be1c:	5341                	li	t1,-16
    be1e:	40d80833          	sub	a6,a6,a3
    be22:	1671                	addi	a2,a2,-4
    be24:	17f1                	addi	a5,a5,-4
    be26:	06661063          	bne	a2,t1,be86 <__extenddftf2+0x12a>
    be2a:	101c                	addi	a5,sp,32
    be2c:	fff70613          	addi	a2,a4,-1 # ffff7fff <pulp__FC+0xffff8000>
    be30:	070a                	slli	a4,a4,0x2
    be32:	973e                	add	a4,a4,a5
    be34:	47c2                	lw	a5,16(sp)
    be36:	00d796b3          	sll	a3,a5,a3
    be3a:	fed72823          	sw	a3,-16(a4)
    be3e:	a025                	j	be66 <__extenddftf2+0x10a>
    be40:	2cc9                	jal	c112 <__clzsi2>
    be42:	02050513          	addi	a0,a0,32
    be46:	bf7d                	j	be04 <__extenddftf2+0xa8>
    be48:	5671                	li	a2,-4
    be4a:	0814                	addi	a3,sp,16
    be4c:	02c70633          	mul	a2,a4,a2
    be50:	478d                	li	a5,3
    be52:	00c685b3          	add	a1,a3,a2
    be56:	45cc                	lw	a1,12(a1)
    be58:	17fd                	addi	a5,a5,-1
    be5a:	c6cc                	sw	a1,12(a3)
    be5c:	16f1                	addi	a3,a3,-4
    be5e:	fee7dae3          	ble	a4,a5,be52 <__extenddftf2+0xf6>
    be62:	fff70613          	addi	a2,a4,-1
    be66:	00261713          	slli	a4,a2,0x2
    be6a:	080c                	addi	a1,sp,16
    be6c:	972e                	add	a4,a4,a1
    be6e:	57fd                	li	a5,-1
    be70:	00072023          	sw	zero,0(a4)
    be74:	167d                	addi	a2,a2,-1
    be76:	1771                	addi	a4,a4,-4
    be78:	fef61ce3          	bne	a2,a5,be70 <__extenddftf2+0x114>
    be7c:	6791                	lui	a5,0x4
    be7e:	c0c78793          	addi	a5,a5,-1012 # 3c0c <emul+0x16e>
    be82:	8f89                	sub	a5,a5,a0
    be84:	b72d                	j	bdae <__extenddftf2+0x52>
    be86:	080c                	addi	a1,sp,16
    be88:	00c588b3          	add	a7,a1,a2
    be8c:	00c8a583          	lw	a1,12(a7)
    be90:	0108a883          	lw	a7,16(a7)
    be94:	0105d5b3          	srl	a1,a1,a6
    be98:	00d898b3          	sll	a7,a7,a3
    be9c:	0115e5b3          	or	a1,a1,a7
    bea0:	cb8c                	sw	a1,16(a5)
    bea2:	b741                	j	be22 <__extenddftf2+0xc6>
    bea4:	67a1                	lui	a5,0x8
    bea6:	cd11                	beqz	a0,bec2 <__extenddftf2+0x166>
    bea8:	01c71793          	slli	a5,a4,0x1c
    beac:	0045d693          	srli	a3,a1,0x4
    beb0:	8fd5                	or	a5,a5,a3
    beb2:	cc3e                	sw	a5,24(sp)
    beb4:	8311                	srli	a4,a4,0x4
    beb6:	67a1                	lui	a5,0x8
    beb8:	05f2                	slli	a1,a1,0x1c
    beba:	8f5d                	or	a4,a4,a5
    bebc:	ca2e                	sw	a1,20(sp)
    bebe:	c802                	sw	zero,16(sp)
    bec0:	ce3a                	sw	a4,28(sp)
    bec2:	17fd                	addi	a5,a5,-1
    bec4:	b5ed                	j	bdae <__extenddftf2+0x52>

0000bec6 <__trunctfdf2>:
    bec6:	454c                	lw	a1,12(a0)
    bec8:	451c                	lw	a5,8(a0)
    beca:	1101                	addi	sp,sp,-32
    becc:	4158                	lw	a4,4(a0)
    bece:	4114                	lw	a3,0(a0)
    bed0:	c43e                	sw	a5,8(sp)
    bed2:	cc3e                	sw	a5,24(sp)
    bed4:	01059793          	slli	a5,a1,0x10
    bed8:	c23a                	sw	a4,4(sp)
    beda:	ca3a                	sw	a4,20(sp)
    bedc:	83c1                	srli	a5,a5,0x10
    bede:	00159713          	slli	a4,a1,0x1
    bee2:	c62e                	sw	a1,12(sp)
    bee4:	c036                	sw	a3,0(sp)
    bee6:	c836                	sw	a3,16(sp)
    bee8:	ce3e                	sw	a5,28(sp)
    beea:	8345                	srli	a4,a4,0x11
    beec:	81fd                	srli	a1,a1,0x1f
    beee:	01010313          	addi	t1,sp,16
    bef2:	0870                	addi	a2,sp,28
    bef4:	421c                	lw	a5,0(a2)
    bef6:	ffc62683          	lw	a3,-4(a2)
    befa:	078e                	slli	a5,a5,0x3
    befc:	82f5                	srli	a3,a3,0x1d
    befe:	8fd5                	or	a5,a5,a3
    bf00:	c21c                	sw	a5,0(a2)
    bf02:	1671                	addi	a2,a2,-4
    bf04:	fec318e3          	bne	t1,a2,bef4 <__trunctfdf2+0x2e>
    bf08:	46c2                	lw	a3,16(sp)
    bf0a:	00170793          	addi	a5,a4,1
    bf0e:	00369513          	slli	a0,a3,0x3
    bf12:	66a1                	lui	a3,0x8
    bf14:	16fd                	addi	a3,a3,-1
    bf16:	8ff5                	and	a5,a5,a3
    bf18:	c82a                	sw	a0,16(sp)
    bf1a:	4685                	li	a3,1
    bf1c:	12f6df63          	ble	a5,a3,c05a <__trunctfdf2+0x194>
    bf20:	77f1                	lui	a5,0xffffc
    bf22:	40078793          	addi	a5,a5,1024 # ffffc400 <pulp__FC+0xffffc401>
    bf26:	973e                	add	a4,a4,a5
    bf28:	7fe00793          	li	a5,2046
    bf2c:	16e7c563          	blt	a5,a4,c096 <__trunctfdf2+0x1d0>
    bf30:	04e05863          	blez	a4,bf80 <__trunctfdf2+0xba>
    bf34:	47e2                	lw	a5,24(sp)
    bf36:	4672                	lw	a2,28(sp)
    bf38:	4852                	lw	a6,20(sp)
    bf3a:	01c7d693          	srli	a3,a5,0x1c
    bf3e:	0612                	slli	a2,a2,0x4
    bf40:	8e55                	or	a2,a2,a3
    bf42:	00481693          	slli	a3,a6,0x4
    bf46:	8ec9                	or	a3,a3,a0
    bf48:	0792                	slli	a5,a5,0x4
    bf4a:	01c85813          	srli	a6,a6,0x1c
    bf4e:	00d036b3          	snez	a3,a3
    bf52:	0107e7b3          	or	a5,a5,a6
    bf56:	8edd                	or	a3,a3,a5
    bf58:	ca32                	sw	a2,20(sp)
    bf5a:	c836                	sw	a3,16(sp)
    bf5c:	46c2                	lw	a3,16(sp)
    bf5e:	47d2                	lw	a5,20(sp)
    bf60:	0076f613          	andi	a2,a3,7
    bf64:	12060d63          	beqz	a2,c09e <__trunctfdf2+0x1d8>
    bf68:	00f6f613          	andi	a2,a3,15
    bf6c:	4511                	li	a0,4
    bf6e:	12a60863          	beq	a2,a0,c09e <__trunctfdf2+0x1d8>
    bf72:	00468613          	addi	a2,a3,4 # 8004 <_write_r>
    bf76:	00d636b3          	sltu	a3,a2,a3
    bf7a:	97b6                	add	a5,a5,a3
    bf7c:	86b2                	mv	a3,a2
    bf7e:	a205                	j	c09e <__trunctfdf2+0x1d8>
    bf80:	fcc00793          	li	a5,-52
    bf84:	00f75663          	ble	a5,a4,bf90 <__trunctfdf2+0xca>
    bf88:	ca02                	sw	zero,20(sp)
    bf8a:	c836                	sw	a3,16(sp)
    bf8c:	4701                	li	a4,0
    bf8e:	b7f9                	j	bf5c <__trunctfdf2+0x96>
    bf90:	47f2                	lw	a5,28(sp)
    bf92:	000806b7          	lui	a3,0x80
    bf96:	8fd5                	or	a5,a5,a3
    bf98:	ce3e                	sw	a5,28(sp)
    bf9a:	03d00793          	li	a5,61
    bf9e:	40e78733          	sub	a4,a5,a4
    bfa2:	40575513          	srai	a0,a4,0x5
    bfa6:	879a                	mv	a5,t1
    bfa8:	8b7d                	andi	a4,a4,31
    bfaa:	4681                	li	a3,0
    bfac:	4881                	li	a7,0
    bfae:	0007a803          	lw	a6,0(a5)
    bfb2:	0685                	addi	a3,a3,1
    bfb4:	0108e8b3          	or	a7,a7,a6
    bfb8:	0791                	addi	a5,a5,4
    bfba:	fed51ae3          	bne	a0,a3,bfae <__trunctfdf2+0xe8>
    bfbe:	00269e93          	slli	t4,a3,0x2
    bfc2:	ef15                	bnez	a4,bffe <__trunctfdf2+0x138>
    bfc4:	478d                	li	a5,3
    bfc6:	8f95                	sub	a5,a5,a3
    bfc8:	02e7d463          	ble	a4,a5,bff0 <__trunctfdf2+0x12a>
    bfcc:	4791                	li	a5,4
    bfce:	40d786b3          	sub	a3,a5,a3
    bfd2:	4711                	li	a4,4
    bfd4:	00269793          	slli	a5,a3,0x2
    bfd8:	979a                	add	a5,a5,t1
    bfda:	0007a023          	sw	zero,0(a5)
    bfde:	0685                	addi	a3,a3,1
    bfe0:	fee69ae3          	bne	a3,a4,bfd4 <__trunctfdf2+0x10e>
    bfe4:	4742                	lw	a4,16(sp)
    bfe6:	011037b3          	snez	a5,a7
    bfea:	8fd9                	or	a5,a5,a4
    bfec:	c83e                	sw	a5,16(sp)
    bfee:	bf79                	j	bf8c <__trunctfdf2+0xc6>
    bff0:	01d60533          	add	a0,a2,t4
    bff4:	4108                	lw	a0,0(a0)
    bff6:	0705                	addi	a4,a4,1
    bff8:	c208                	sw	a0,0(a2)
    bffa:	0611                	addi	a2,a2,4
    bffc:	b7f1                	j	bfc8 <__trunctfdf2+0x102>
    bffe:	1008                	addi	a0,sp,32
    c000:	01d507b3          	add	a5,a0,t4
    c004:	02000813          	li	a6,32
    c008:	ff07a783          	lw	a5,-16(a5)
    c00c:	40e80833          	sub	a6,a6,a4
    c010:	010797b3          	sll	a5,a5,a6
    c014:	00f8e8b3          	or	a7,a7,a5
    c018:	478d                	li	a5,3
    c01a:	4e01                	li	t3,0
    c01c:	8f95                	sub	a5,a5,a3
    c01e:	00fe4e63          	blt	t3,a5,c03a <__trunctfdf2+0x174>
    c022:	4611                	li	a2,4
    c024:	40d606b3          	sub	a3,a2,a3
    c028:	078a                	slli	a5,a5,0x2
    c02a:	1010                	addi	a2,sp,32
    c02c:	97b2                	add	a5,a5,a2
    c02e:	4672                	lw	a2,28(sp)
    c030:	00e65733          	srl	a4,a2,a4
    c034:	fee7a823          	sw	a4,-16(a5)
    c038:	bf69                	j	bfd2 <__trunctfdf2+0x10c>
    c03a:	01d60f33          	add	t5,a2,t4
    c03e:	000f2503          	lw	a0,0(t5)
    c042:	004f2f03          	lw	t5,4(t5)
    c046:	00e55533          	srl	a0,a0,a4
    c04a:	010f1f33          	sll	t5,t5,a6
    c04e:	01e56533          	or	a0,a0,t5
    c052:	c208                	sw	a0,0(a2)
    c054:	0e05                	addi	t3,t3,1
    c056:	0611                	addi	a2,a2,4
    c058:	b7d9                	j	c01e <__trunctfdf2+0x158>
    c05a:	4652                	lw	a2,20(sp)
    c05c:	47e2                	lw	a5,24(sp)
    c05e:	4872                	lw	a6,28(sp)
    c060:	00f666b3          	or	a3,a2,a5
    c064:	0106e6b3          	or	a3,a3,a6
    c068:	8ec9                	or	a3,a3,a0
    c06a:	e709                	bnez	a4,c074 <__trunctfdf2+0x1ae>
    c06c:	00d036b3          	snez	a3,a3
    c070:	4781                	li	a5,0
    c072:	b5fd                	j	bf60 <__trunctfdf2+0x9a>
    c074:	cad1                	beqz	a3,c108 <__trunctfdf2+0x242>
    c076:	01c65693          	srli	a3,a2,0x1c
    c07a:	0812                	slli	a6,a6,0x4
    c07c:	00479613          	slli	a2,a5,0x4
    c080:	83f1                	srli	a5,a5,0x1c
    c082:	00400737          	lui	a4,0x400
    c086:	8ed1                	or	a3,a3,a2
    c088:	0107e7b3          	or	a5,a5,a6
    c08c:	8fd9                	or	a5,a5,a4
    c08e:	9ae1                	andi	a3,a3,-8
    c090:	7ff00713          	li	a4,2047
    c094:	b5f1                	j	bf60 <__trunctfdf2+0x9a>
    c096:	4781                	li	a5,0
    c098:	4681                	li	a3,0
    c09a:	7ff00713          	li	a4,2047
    c09e:	00879513          	slli	a0,a5,0x8
    c0a2:	00055b63          	bgez	a0,c0b8 <__trunctfdf2+0x1f2>
    c0a6:	0705                	addi	a4,a4,1
    c0a8:	7ff00613          	li	a2,2047
    c0ac:	06c70063          	beq	a4,a2,c10c <__trunctfdf2+0x246>
    c0b0:	ff800637          	lui	a2,0xff800
    c0b4:	167d                	addi	a2,a2,-1
    c0b6:	8ff1                	and	a5,a5,a2
    c0b8:	01d79613          	slli	a2,a5,0x1d
    c0bc:	828d                	srli	a3,a3,0x3
    c0be:	8ed1                	or	a3,a3,a2
    c0c0:	7ff00613          	li	a2,2047
    c0c4:	838d                	srli	a5,a5,0x3
    c0c6:	00c71963          	bne	a4,a2,c0d8 <__trunctfdf2+0x212>
    c0ca:	8edd                	or	a3,a3,a5
    c0cc:	4781                	li	a5,0
    c0ce:	c689                	beqz	a3,c0d8 <__trunctfdf2+0x212>
    c0d0:	000807b7          	lui	a5,0x80
    c0d4:	4681                	li	a3,0
    c0d6:	4581                	li	a1,0
    c0d8:	00100637          	lui	a2,0x100
    c0dc:	167d                	addi	a2,a2,-1
    c0de:	8ff1                	and	a5,a5,a2
    c0e0:	80100637          	lui	a2,0x80100
    c0e4:	7ff77713          	andi	a4,a4,2047
    c0e8:	167d                	addi	a2,a2,-1
    c0ea:	0752                	slli	a4,a4,0x14
    c0ec:	8ff1                	and	a5,a5,a2
    c0ee:	8fd9                	or	a5,a5,a4
    c0f0:	80000737          	lui	a4,0x80000
    c0f4:	fff74713          	not	a4,a4
    c0f8:	05fe                	slli	a1,a1,0x1f
    c0fa:	8ff9                	and	a5,a5,a4
    c0fc:	00b7e733          	or	a4,a5,a1
    c100:	8536                	mv	a0,a3
    c102:	85ba                	mv	a1,a4
    c104:	6105                	addi	sp,sp,32
    c106:	8082                	ret
    c108:	4781                	li	a5,0
    c10a:	bf41                	j	c09a <__trunctfdf2+0x1d4>
    c10c:	4781                	li	a5,0
    c10e:	4681                	li	a3,0
    c110:	b765                	j	c0b8 <__trunctfdf2+0x1f2>

0000c112 <__clzsi2>:
    c112:	67c1                	lui	a5,0x10
    c114:	02f57563          	bleu	a5,a0,c13e <__clzsi2+0x2c>
    c118:	0ff00793          	li	a5,255
    c11c:	00a7b7b3          	sltu	a5,a5,a0
    c120:	078e                	slli	a5,a5,0x3
    c122:	02000713          	li	a4,32
    c126:	8f1d                	sub	a4,a4,a5
    c128:	00f557b3          	srl	a5,a0,a5
    c12c:	6535                	lui	a0,0xd
    c12e:	53c50513          	addi	a0,a0,1340 # d53c <__clz_tab>
    c132:	97aa                	add	a5,a5,a0
    c134:	0007c503          	lbu	a0,0(a5) # 10000 <__bss_end+0x1f80>
    c138:	40a70533          	sub	a0,a4,a0
    c13c:	8082                	ret
    c13e:	01000737          	lui	a4,0x1000
    c142:	47c1                	li	a5,16
    c144:	fce56fe3          	bltu	a0,a4,c122 <__clzsi2+0x10>
    c148:	47e1                	li	a5,24
    c14a:	bfe1                	j	c122 <__clzsi2+0x10>
