
requested_csr_por.elf:     file format elf32-littleriscv


Disassembly of section .vectors:

00000000 <__vector_start>:
   0:	0c50006f          	j	8c4 <u_sw_irq_handler>
   4:	08d0006f          	j	890 <__no_irq_handler>
   8:	0890006f          	j	890 <__no_irq_handler>
   c:	0930006f          	j	89e <m_software_irq_handler>
  10:	0810006f          	j	890 <__no_irq_handler>
  14:	07d0006f          	j	890 <__no_irq_handler>
  18:	0790006f          	j	890 <__no_irq_handler>
  1c:	0850006f          	j	8a0 <m_timer_irq_handler>
  20:	0710006f          	j	890 <__no_irq_handler>
  24:	06d0006f          	j	890 <__no_irq_handler>
  28:	0690006f          	j	890 <__no_irq_handler>
  2c:	0770006f          	j	8a2 <m_external_irq_handler>
  30:	0610006f          	j	890 <__no_irq_handler>
  34:	05d0006f          	j	890 <__no_irq_handler>
  38:	0590006f          	j	890 <__no_irq_handler>
  3c:	0550006f          	j	890 <__no_irq_handler>
  40:	0650006f          	j	8a4 <m_fast0_irq_handler>
  44:	0630006f          	j	8a6 <m_fast1_irq_handler>
  48:	0610006f          	j	8a8 <m_fast2_irq_handler>
  4c:	05f0006f          	j	8aa <m_fast3_irq_handler>
  50:	05d0006f          	j	8ac <m_fast4_irq_handler>
  54:	05b0006f          	j	8ae <m_fast5_irq_handler>
  58:	0590006f          	j	8b0 <m_fast6_irq_handler>
  5c:	0570006f          	j	8b2 <m_fast7_irq_handler>
  60:	0550006f          	j	8b4 <m_fast8_irq_handler>
  64:	0530006f          	j	8b6 <m_fast9_irq_handler>
  68:	0510006f          	j	8b8 <m_fast10_irq_handler>
  6c:	04f0006f          	j	8ba <m_fast11_irq_handler>
  70:	04d0006f          	j	8bc <m_fast12_irq_handler>
  74:	04b0006f          	j	8be <m_fast13_irq_handler>
  78:	0490006f          	j	8c0 <m_fast14_irq_handler>
  7c:	0470006f          	j	8c2 <m_fast15_irq_handler>

Disassembly of section .init:

00000080 <_start>:
  80:	0000e197          	auipc	gp,0xe
  84:	df818193          	addi	gp,gp,-520 # de78 <__global_pointer$>
  88:	00400117          	auipc	sp,0x400
  8c:	f7810113          	addi	sp,sp,-136 # 400000 <__heap_end>
  90:	00000517          	auipc	a0,0x0
  94:	f7050513          	addi	a0,a0,-144 # 0 <__vector_start>
  98:	00156513          	ori	a0,a0,1
  9c:	30551073          	csrw	mtvec,a0
  a0:	0000e517          	auipc	a0,0xe
  a4:	fa450513          	addi	a0,a0,-92 # e044 <_edata>
  a8:	0000e617          	auipc	a2,0xe
  ac:	fd860613          	addi	a2,a2,-40 # e080 <__bss_end>
  b0:	8e09                	sub	a2,a2,a0
  b2:	4581                	li	a1,0
  b4:	41d000ef          	jal	ra,cd0 <memset>
  b8:	00001517          	auipc	a0,0x1
  bc:	b6e50513          	addi	a0,a0,-1170 # c26 <__libc_fini_array>
  c0:	33f000ef          	jal	ra,bfe <atexit>
  c4:	3ab000ef          	jal	ra,c6e <__libc_init_array>
  c8:	4501                	li	a0,0
  ca:	4581                	li	a1,0
  cc:	4601                	li	a2,0
  ce:	2021                	jal	d6 <main>
  d0:	33b0006f          	j	c0a <exit>

000000d4 <_fini>:
  d4:	8082                	ret

Disassembly of section .text:

000000d6 <main>:
      d6:	0000c537          	lui	a0,0xc
      da:	df010113          	addi	sp,sp,-528
      de:	2fc50513          	addi	a0,a0,764 # c2fc <__clzsi2+0x1ea>
      e2:	20112623          	sw	ra,524(sp)
      e6:	20812423          	sw	s0,520(sp)
      ea:	20912223          	sw	s1,516(sp)
      ee:	21212023          	sw	s2,512(sp)
      f2:	1f312e23          	sw	s3,508(sp)
      f6:	1f412c23          	sw	s4,504(sp)
      fa:	1f512a23          	sw	s5,500(sp)
      fe:	1f612823          	sw	s6,496(sp)
     102:	1f712623          	sw	s7,492(sp)
     106:	1f812423          	sw	s8,488(sp)
     10a:	1f912223          	sw	s9,484(sp)
     10e:	1fa12023          	sw	s10,480(sp)
     112:	1db12e23          	sw	s11,476(sp)
     116:	51f000ef          	jal	ra,e34 <puts>
     11a:	30002df3          	csrr	s11,mstatus
     11e:	30102d73          	csrr	s10,0x301
     122:	30402cf3          	csrr	s9,0x304
     126:	30502c73          	csrr	s8,mtvec
     12a:	6709                	lui	a4,0x2
     12c:	80070713          	addi	a4,a4,-2048 # 1800 <_vfprintf_r+0x8ec>
     130:	4401                	li	s0,0
     132:	00ed8963          	beq	s11,a4,144 <main+0x6e>
     136:	0000c537          	lui	a0,0xc
     13a:	15050513          	addi	a0,a0,336 # c150 <__clzsi2+0x3e>
     13e:	4f7000ef          	jal	ra,e34 <puts>
     142:	4405                	li	s0,1
     144:	408015b7          	lui	a1,0x40801
     148:	10458593          	addi	a1,a1,260 # 40801104 <__heap_end+0x40401104>
     14c:	00bd0963          	beq	s10,a1,15e <main+0x88>
     150:	0000c537          	lui	a0,0xc
     154:	17050513          	addi	a0,a0,368 # c170 <__clzsi2+0x5e>
     158:	441000ef          	jal	ra,d98 <printf>
     15c:	0405                	addi	s0,s0,1
     15e:	000c8963          	beqz	s9,170 <main+0x9a>
     162:	0000c537          	lui	a0,0xc
     166:	18c50513          	addi	a0,a0,396 # c18c <__clzsi2+0x7a>
     16a:	4cb000ef          	jal	ra,e34 <puts>
     16e:	0405                	addi	s0,s0,1
     170:	4705                	li	a4,1
     172:	00ec0963          	beq	s8,a4,184 <main+0xae>
     176:	0000c537          	lui	a0,0xc
     17a:	1a850513          	addi	a0,a0,424 # c1a8 <__clzsi2+0x96>
     17e:	4b7000ef          	jal	ra,e34 <puts>
     182:	0405                	addi	s0,s0,1
     184:	32302773          	csrr	a4,0x323
     188:	ceba                	sw	a4,92(sp)
     18a:	32402773          	csrr	a4,0x324
     18e:	d0ba                	sw	a4,96(sp)
     190:	32502773          	csrr	a4,0x325
     194:	d2ba                	sw	a4,100(sp)
     196:	32602773          	csrr	a4,0x326
     19a:	d4ba                	sw	a4,104(sp)
     19c:	32702773          	csrr	a4,0x327
     1a0:	d6ba                	sw	a4,108(sp)
     1a2:	32802773          	csrr	a4,0x328
     1a6:	d8ba                	sw	a4,112(sp)
     1a8:	32902773          	csrr	a4,0x329
     1ac:	daba                	sw	a4,116(sp)
     1ae:	32a02773          	csrr	a4,0x32a
     1b2:	dcba                	sw	a4,120(sp)
     1b4:	32b02773          	csrr	a4,0x32b
     1b8:	deba                	sw	a4,124(sp)
     1ba:	32c02773          	csrr	a4,0x32c
     1be:	c13a                	sw	a4,128(sp)
     1c0:	32d02773          	csrr	a4,0x32d
     1c4:	c33a                	sw	a4,132(sp)
     1c6:	32e02773          	csrr	a4,0x32e
     1ca:	c53a                	sw	a4,136(sp)
     1cc:	32f02773          	csrr	a4,0x32f
     1d0:	c73a                	sw	a4,140(sp)
     1d2:	33002773          	csrr	a4,0x330
     1d6:	c93a                	sw	a4,144(sp)
     1d8:	33102773          	csrr	a4,0x331
     1dc:	cb3a                	sw	a4,148(sp)
     1de:	33202773          	csrr	a4,0x332
     1e2:	cd3a                	sw	a4,152(sp)
     1e4:	33302773          	csrr	a4,0x333
     1e8:	cf3a                	sw	a4,156(sp)
     1ea:	33402773          	csrr	a4,0x334
     1ee:	d13a                	sw	a4,160(sp)
     1f0:	33502773          	csrr	a4,0x335
     1f4:	d33a                	sw	a4,164(sp)
     1f6:	33602773          	csrr	a4,0x336
     1fa:	d53a                	sw	a4,168(sp)
     1fc:	33702773          	csrr	a4,0x337
     200:	d73a                	sw	a4,172(sp)
     202:	33802773          	csrr	a4,0x338
     206:	d93a                	sw	a4,176(sp)
     208:	33902773          	csrr	a4,0x339
     20c:	db3a                	sw	a4,180(sp)
     20e:	33a02773          	csrr	a4,0x33a
     212:	dd3a                	sw	a4,184(sp)
     214:	33b02773          	csrr	a4,0x33b
     218:	df3a                	sw	a4,188(sp)
     21a:	33c02773          	csrr	a4,0x33c
     21e:	c1ba                	sw	a4,192(sp)
     220:	33d02773          	csrr	a4,0x33d
     224:	c3ba                	sw	a4,196(sp)
     226:	33e02773          	csrr	a4,0x33e
     22a:	c5ba                	sw	a4,200(sp)
     22c:	33f02773          	csrr	a4,0x33f
     230:	4681                	li	a3,0
     232:	c7ba                	sw	a4,204(sp)
     234:	07400613          	li	a2,116
     238:	4701                	li	a4,0
     23a:	089c                	addi	a5,sp,80
     23c:	00e785b3          	add	a1,a5,a4
     240:	45cc                	lw	a1,12(a1)
     242:	0711                	addi	a4,a4,4
     244:	96ae                	add	a3,a3,a1
     246:	fec71ae3          	bne	a4,a2,23a <main+0x164>
     24a:	ca81                	beqz	a3,25a <main+0x184>
     24c:	0000c537          	lui	a0,0xc
     250:	1c450513          	addi	a0,a0,452 # c1c4 <__clzsi2+0xb2>
     254:	3e1000ef          	jal	ra,e34 <puts>
     258:	0405                	addi	s0,s0,1
     25a:	7a0024f3          	csrr	s1,pcer
     25e:	7a1027f3          	csrr	a5,pcmr
     262:	c43e                	sw	a5,8(sp)
     264:	7a2027f3          	csrr	a5,0x7a2
     268:	c63e                	sw	a5,12(sp)
     26a:	7a3027f3          	csrr	a5,0x7a3
     26e:	c83e                	sw	a5,16(sp)
     270:	7a4027f3          	csrr	a5,0x7a4
     274:	ca3e                	sw	a5,20(sp)
     276:	c881                	beqz	s1,286 <main+0x1b0>
     278:	0000c537          	lui	a0,0xc
     27c:	1ec50513          	addi	a0,a0,492 # c1ec <__clzsi2+0xda>
     280:	3b5000ef          	jal	ra,e34 <puts>
     284:	0405                	addi	s0,s0,1
     286:	28001737          	lui	a4,0x28001
     28a:	47a2                	lw	a5,8(sp)
     28c:	04070713          	addi	a4,a4,64 # 28001040 <__heap_end+0x27c01040>
     290:	00e78963          	beq	a5,a4,2a2 <main+0x1cc>
     294:	0000c537          	lui	a0,0xc
     298:	20c50513          	addi	a0,a0,524 # c20c <__clzsi2+0xfa>
     29c:	399000ef          	jal	ra,e34 <puts>
     2a0:	0405                	addi	s0,s0,1
     2a2:	47b2                	lw	a5,12(sp)
     2a4:	cb81                	beqz	a5,2b4 <main+0x1de>
     2a6:	0000c537          	lui	a0,0xc
     2aa:	23050513          	addi	a0,a0,560 # c230 <__clzsi2+0x11e>
     2ae:	387000ef          	jal	ra,e34 <puts>
     2b2:	0405                	addi	s0,s0,1
     2b4:	47c2                	lw	a5,16(sp)
     2b6:	cb81                	beqz	a5,2c6 <main+0x1f0>
     2b8:	0000c537          	lui	a0,0xc
     2bc:	24c50513          	addi	a0,a0,588 # c24c <__clzsi2+0x13a>
     2c0:	375000ef          	jal	ra,e34 <puts>
     2c4:	0405                	addi	s0,s0,1
     2c6:	47d2                	lw	a5,20(sp)
     2c8:	4711                	li	a4,4
     2ca:	00e78963          	beq	a5,a4,2dc <main+0x206>
     2ce:	0000c537          	lui	a0,0xc
     2d2:	26850513          	addi	a0,a0,616 # c268 <__clzsi2+0x156>
     2d6:	35f000ef          	jal	ra,e34 <puts>
     2da:	0405                	addi	s0,s0,1
     2dc:	7a8027f3          	csrr	a5,0x7a8
     2e0:	cc3e                	sw	a5,24(sp)
     2e2:	7aa027f3          	csrr	a5,0x7aa
     2e6:	ce3e                	sw	a5,28(sp)
     2e8:	47e2                	lw	a5,24(sp)
     2ea:	cb81                	beqz	a5,2fa <main+0x224>
     2ec:	0000c537          	lui	a0,0xc
     2f0:	28450513          	addi	a0,a0,644 # c284 <__clzsi2+0x172>
     2f4:	341000ef          	jal	ra,e34 <puts>
     2f8:	0405                	addi	s0,s0,1
     2fa:	47f2                	lw	a5,28(sp)
     2fc:	cb81                	beqz	a5,30c <main+0x236>
     2fe:	0000c537          	lui	a0,0xc
     302:	2a450513          	addi	a0,a0,676 # c2a4 <__clzsi2+0x192>
     306:	32f000ef          	jal	ra,e34 <puts>
     30a:	0405                	addi	s0,s0,1
     30c:	b00027f3          	csrr	a5,0xb00
     310:	d03e                	sw	a5,32(sp)
     312:	b02027f3          	csrr	a5,0xb02
     316:	d23e                	sw	a5,36(sp)
     318:	5782                	lw	a5,32(sp)
     31a:	cb81                	beqz	a5,32a <main+0x254>
     31c:	0000c537          	lui	a0,0xc
     320:	2c450513          	addi	a0,a0,708 # c2c4 <__clzsi2+0x1b2>
     324:	311000ef          	jal	ra,e34 <puts>
     328:	0405                	addi	s0,s0,1
     32a:	5792                	lw	a5,36(sp)
     32c:	cb81                	beqz	a5,33c <main+0x266>
     32e:	0000c537          	lui	a0,0xc
     332:	2e050513          	addi	a0,a0,736 # c2e0 <__clzsi2+0x1ce>
     336:	2ff000ef          	jal	ra,e34 <puts>
     33a:	0405                	addi	s0,s0,1
     33c:	b0302773          	csrr	a4,0xb03
     340:	cfba                	sw	a4,220(sp)
     342:	b0402773          	csrr	a4,0xb04
     346:	d1ba                	sw	a4,224(sp)
     348:	b0502773          	csrr	a4,0xb05
     34c:	d3ba                	sw	a4,228(sp)
     34e:	b0602773          	csrr	a4,0xb06
     352:	d5ba                	sw	a4,232(sp)
     354:	b0702773          	csrr	a4,0xb07
     358:	d7ba                	sw	a4,236(sp)
     35a:	b0802773          	csrr	a4,0xb08
     35e:	d9ba                	sw	a4,240(sp)
     360:	b0902773          	csrr	a4,0xb09
     364:	dbba                	sw	a4,244(sp)
     366:	b0a02773          	csrr	a4,0xb0a
     36a:	ddba                	sw	a4,248(sp)
     36c:	b0b02773          	csrr	a4,0xb0b
     370:	dfba                	sw	a4,252(sp)
     372:	b0c02773          	csrr	a4,0xb0c
     376:	10e12023          	sw	a4,256(sp)
     37a:	b0d02773          	csrr	a4,0xb0d
     37e:	10e12223          	sw	a4,260(sp)
     382:	b0e02773          	csrr	a4,0xb0e
     386:	10e12423          	sw	a4,264(sp)
     38a:	b0f02773          	csrr	a4,0xb0f
     38e:	10e12623          	sw	a4,268(sp)
     392:	b1002773          	csrr	a4,0xb10
     396:	10e12823          	sw	a4,272(sp)
     39a:	b1102773          	csrr	a4,0xb11
     39e:	10e12a23          	sw	a4,276(sp)
     3a2:	b1202773          	csrr	a4,0xb12
     3a6:	10e12c23          	sw	a4,280(sp)
     3aa:	b1302773          	csrr	a4,0xb13
     3ae:	10e12e23          	sw	a4,284(sp)
     3b2:	b1402773          	csrr	a4,0xb14
     3b6:	12e12023          	sw	a4,288(sp)
     3ba:	b1502773          	csrr	a4,0xb15
     3be:	12e12223          	sw	a4,292(sp)
     3c2:	b1602773          	csrr	a4,0xb16
     3c6:	12e12423          	sw	a4,296(sp)
     3ca:	b1702773          	csrr	a4,0xb17
     3ce:	12e12623          	sw	a4,300(sp)
     3d2:	b1802773          	csrr	a4,0xb18
     3d6:	12e12823          	sw	a4,304(sp)
     3da:	b1902773          	csrr	a4,0xb19
     3de:	12e12a23          	sw	a4,308(sp)
     3e2:	b1a02773          	csrr	a4,0xb1a
     3e6:	12e12c23          	sw	a4,312(sp)
     3ea:	b1b02773          	csrr	a4,0xb1b
     3ee:	12e12e23          	sw	a4,316(sp)
     3f2:	b1c02773          	csrr	a4,0xb1c
     3f6:	14e12023          	sw	a4,320(sp)
     3fa:	b1d02773          	csrr	a4,0xb1d
     3fe:	14e12223          	sw	a4,324(sp)
     402:	b1e02773          	csrr	a4,0xb1e
     406:	14e12423          	sw	a4,328(sp)
     40a:	b1f02773          	csrr	a4,0xb1f
     40e:	4681                	li	a3,0
     410:	14e12623          	sw	a4,332(sp)
     414:	07400613          	li	a2,116
     418:	4701                	li	a4,0
     41a:	099c                	addi	a5,sp,208
     41c:	00e785b3          	add	a1,a5,a4
     420:	45cc                	lw	a1,12(a1)
     422:	0711                	addi	a4,a4,4
     424:	96ae                	add	a3,a3,a1
     426:	fec71ae3          	bne	a4,a2,41a <main+0x344>
     42a:	ca81                	beqz	a3,43a <main+0x364>
     42c:	0000c537          	lui	a0,0xc
     430:	30050513          	addi	a0,a0,768 # c300 <__clzsi2+0x1ee>
     434:	201000ef          	jal	ra,e34 <puts>
     438:	0405                	addi	s0,s0,1
     43a:	b80027f3          	csrr	a5,0xb80
     43e:	d43e                	sw	a5,40(sp)
     440:	cb81                	beqz	a5,450 <main+0x37a>
     442:	0000c537          	lui	a0,0xc
     446:	32850513          	addi	a0,a0,808 # c328 <__clzsi2+0x216>
     44a:	1eb000ef          	jal	ra,e34 <puts>
     44e:	0405                	addi	s0,s0,1
     450:	b82027f3          	csrr	a5,0xb82
     454:	d63e                	sw	a5,44(sp)
     456:	cb81                	beqz	a5,466 <main+0x390>
     458:	0000c537          	lui	a0,0xc
     45c:	34850513          	addi	a0,a0,840 # c348 <__clzsi2+0x236>
     460:	1d5000ef          	jal	ra,e34 <puts>
     464:	0405                	addi	s0,s0,1
     466:	b8302773          	csrr	a4,0xb83
     46a:	14e12e23          	sw	a4,348(sp)
     46e:	b8402773          	csrr	a4,0xb84
     472:	16e12023          	sw	a4,352(sp)
     476:	b8502773          	csrr	a4,0xb85
     47a:	16e12223          	sw	a4,356(sp)
     47e:	b8602773          	csrr	a4,0xb86
     482:	16e12423          	sw	a4,360(sp)
     486:	b8702773          	csrr	a4,0xb87
     48a:	16e12623          	sw	a4,364(sp)
     48e:	b8802773          	csrr	a4,0xb88
     492:	16e12823          	sw	a4,368(sp)
     496:	b8902773          	csrr	a4,0xb89
     49a:	16e12a23          	sw	a4,372(sp)
     49e:	b8a02773          	csrr	a4,0xb8a
     4a2:	16e12c23          	sw	a4,376(sp)
     4a6:	b8b02773          	csrr	a4,0xb8b
     4aa:	16e12e23          	sw	a4,380(sp)
     4ae:	b8c02773          	csrr	a4,0xb8c
     4b2:	18e12023          	sw	a4,384(sp)
     4b6:	b8d02773          	csrr	a4,0xb8d
     4ba:	18e12223          	sw	a4,388(sp)
     4be:	b8e02773          	csrr	a4,0xb8e
     4c2:	18e12423          	sw	a4,392(sp)
     4c6:	b8f02773          	csrr	a4,0xb8f
     4ca:	18e12623          	sw	a4,396(sp)
     4ce:	b9002773          	csrr	a4,0xb90
     4d2:	18e12823          	sw	a4,400(sp)
     4d6:	b9102773          	csrr	a4,0xb91
     4da:	18e12a23          	sw	a4,404(sp)
     4de:	b9202773          	csrr	a4,0xb92
     4e2:	18e12c23          	sw	a4,408(sp)
     4e6:	b9302773          	csrr	a4,0xb93
     4ea:	18e12e23          	sw	a4,412(sp)
     4ee:	b9402773          	csrr	a4,0xb94
     4f2:	1ae12023          	sw	a4,416(sp)
     4f6:	b9502773          	csrr	a4,0xb95
     4fa:	1ae12223          	sw	a4,420(sp)
     4fe:	b9602773          	csrr	a4,0xb96
     502:	1ae12423          	sw	a4,424(sp)
     506:	b9702773          	csrr	a4,0xb97
     50a:	1ae12623          	sw	a4,428(sp)
     50e:	b9802773          	csrr	a4,0xb98
     512:	1ae12823          	sw	a4,432(sp)
     516:	b9902773          	csrr	a4,0xb99
     51a:	1ae12a23          	sw	a4,436(sp)
     51e:	b9a02773          	csrr	a4,0xb9a
     522:	1ae12c23          	sw	a4,440(sp)
     526:	b9b02773          	csrr	a4,0xb9b
     52a:	1ae12e23          	sw	a4,444(sp)
     52e:	b9c02773          	csrr	a4,0xb9c
     532:	1ce12023          	sw	a4,448(sp)
     536:	b9d02773          	csrr	a4,0xb9d
     53a:	1ce12223          	sw	a4,452(sp)
     53e:	b9e02773          	csrr	a4,0xb9e
     542:	1ce12423          	sw	a4,456(sp)
     546:	b9f02773          	csrr	a4,0xb9f
     54a:	4681                	li	a3,0
     54c:	1ce12623          	sw	a4,460(sp)
     550:	07400613          	li	a2,116
     554:	4701                	li	a4,0
     556:	0a9c                	addi	a5,sp,336
     558:	00e785b3          	add	a1,a5,a4
     55c:	45cc                	lw	a1,12(a1)
     55e:	0711                	addi	a4,a4,4
     560:	96ae                	add	a3,a3,a1
     562:	fec71ae3          	bne	a4,a2,556 <main+0x480>
     566:	ca81                	beqz	a3,576 <main+0x4a0>
     568:	0000c537          	lui	a0,0xc
     56c:	36850513          	addi	a0,a0,872 # c368 <__clzsi2+0x256>
     570:	0c5000ef          	jal	ra,e34 <puts>
     574:	0405                	addi	s0,s0,1
     576:	f11027f3          	csrr	a5,0xf11
     57a:	d83e                	sw	a5,48(sp)
     57c:	f12027f3          	csrr	a5,0xf12
     580:	da3e                	sw	a5,52(sp)
     582:	f13027f3          	csrr	a5,0xf13
     586:	dc3e                	sw	a5,56(sp)
     588:	f14027f3          	csrr	a5,mhartid
     58c:	de3e                	sw	a5,60(sp)
     58e:	57c2                	lw	a5,48(sp)
     590:	60200713          	li	a4,1538
     594:	00e78963          	beq	a5,a4,5a6 <main+0x4d0>
     598:	0000c537          	lui	a0,0xc
     59c:	39450513          	addi	a0,a0,916 # c394 <__clzsi2+0x282>
     5a0:	095000ef          	jal	ra,e34 <puts>
     5a4:	0405                	addi	s0,s0,1
     5a6:	57d2                	lw	a5,52(sp)
     5a8:	4711                	li	a4,4
     5aa:	00e78963          	beq	a5,a4,5bc <main+0x4e6>
     5ae:	0000c537          	lui	a0,0xc
     5b2:	3b450513          	addi	a0,a0,948 # c3b4 <__clzsi2+0x2a2>
     5b6:	07f000ef          	jal	ra,e34 <puts>
     5ba:	0405                	addi	s0,s0,1
     5bc:	57e2                	lw	a5,56(sp)
     5be:	cb81                	beqz	a5,5ce <main+0x4f8>
     5c0:	0000c537          	lui	a0,0xc
     5c4:	3d450513          	addi	a0,a0,980 # c3d4 <__clzsi2+0x2c2>
     5c8:	06d000ef          	jal	ra,e34 <puts>
     5cc:	0405                	addi	s0,s0,1
     5ce:	57f2                	lw	a5,60(sp)
     5d0:	cb81                	beqz	a5,5e0 <main+0x50a>
     5d2:	0000c537          	lui	a0,0xc
     5d6:	3f450513          	addi	a0,a0,1012 # c3f4 <__clzsi2+0x2e2>
     5da:	05b000ef          	jal	ra,e34 <puts>
     5de:	0405                	addi	s0,s0,1
     5e0:	32002bf3          	csrr	s7,0x320
     5e4:	4735                	li	a4,13
     5e6:	00eb8963          	beq	s7,a4,5f8 <main+0x522>
     5ea:	0000c537          	lui	a0,0xc
     5ee:	42050513          	addi	a0,a0,1056 # c420 <__clzsi2+0x30e>
     5f2:	043000ef          	jal	ra,e34 <puts>
     5f6:	0405                	addi	s0,s0,1
     5f8:	34002b73          	csrr	s6,0x340
     5fc:	34102af3          	csrr	s5,mepc
     600:	34202a73          	csrr	s4,mcause
     604:	343029f3          	csrr	s3,0x343
     608:	34402973          	csrr	s2,0x344
     60c:	000b0963          	beqz	s6,61e <main+0x548>
     610:	0000c537          	lui	a0,0xc
     614:	44450513          	addi	a0,a0,1092 # c444 <__clzsi2+0x332>
     618:	01d000ef          	jal	ra,e34 <puts>
     61c:	0405                	addi	s0,s0,1
     61e:	000a8963          	beqz	s5,630 <main+0x55a>
     622:	0000c537          	lui	a0,0xc
     626:	46450513          	addi	a0,a0,1124 # c464 <__clzsi2+0x352>
     62a:	00b000ef          	jal	ra,e34 <puts>
     62e:	0405                	addi	s0,s0,1
     630:	000a0963          	beqz	s4,642 <main+0x56c>
     634:	0000c537          	lui	a0,0xc
     638:	48050513          	addi	a0,a0,1152 # c480 <__clzsi2+0x36e>
     63c:	7f8000ef          	jal	ra,e34 <puts>
     640:	0405                	addi	s0,s0,1
     642:	00098963          	beqz	s3,654 <main+0x57e>
     646:	0000c537          	lui	a0,0xc
     64a:	4a050513          	addi	a0,a0,1184 # c4a0 <__clzsi2+0x38e>
     64e:	7e6000ef          	jal	ra,e34 <puts>
     652:	0405                	addi	s0,s0,1
     654:	00090963          	beqz	s2,666 <main+0x590>
     658:	0000c537          	lui	a0,0xc
     65c:	4bc50513          	addi	a0,a0,1212 # c4bc <__clzsi2+0x3aa>
     660:	7d4000ef          	jal	ra,e34 <puts>
     664:	0405                	addi	s0,s0,1
     666:	03500713          	li	a4,53
     66a:	c4ba                	sw	a4,72(sp)
     66c:	7c071073          	csrw	0x7c0,a4
     670:	c4ba                	sw	a4,72(sp)
     672:	4705                	li	a4,1
     674:	c6ba                	sw	a4,76(sp)
     676:	7c171073          	csrw	priv_emstatus,a4
     67a:	c4ba                	sw	a4,72(sp)
     67c:	7c0026f3          	csrr	a3,0x7c0
     680:	7c102773          	csrr	a4,priv_emstatus
     684:	0000c537          	lui	a0,0xc
     688:	4d850513          	addi	a0,a0,1240 # c4d8 <__clzsi2+0x3c6>
     68c:	c236                	sw	a3,4(sp)
     68e:	c03a                	sw	a4,0(sp)
     690:	7a4000ef          	jal	ra,e34 <puts>
     694:	0000c537          	lui	a0,0xc
     698:	85ee                	mv	a1,s11
     69a:	4e850513          	addi	a0,a0,1256 # c4e8 <__clzsi2+0x3d6>
     69e:	6fa000ef          	jal	ra,d98 <printf>
     6a2:	0000c537          	lui	a0,0xc
     6a6:	85ea                	mv	a1,s10
     6a8:	50050513          	addi	a0,a0,1280 # c500 <__clzsi2+0x3ee>
     6ac:	6ec000ef          	jal	ra,d98 <printf>
     6b0:	0000c537          	lui	a0,0xc
     6b4:	85e6                	mv	a1,s9
     6b6:	51850513          	addi	a0,a0,1304 # c518 <__clzsi2+0x406>
     6ba:	6de000ef          	jal	ra,d98 <printf>
     6be:	0000c537          	lui	a0,0xc
     6c2:	85e2                	mv	a1,s8
     6c4:	53050513          	addi	a0,a0,1328 # c530 <__clzsi2+0x41e>
     6c8:	6d0000ef          	jal	ra,d98 <printf>
     6cc:	0000c537          	lui	a0,0xc
     6d0:	85de                	mv	a1,s7
     6d2:	54850513          	addi	a0,a0,1352 # c548 <__clzsi2+0x436>
     6d6:	6c2000ef          	jal	ra,d98 <printf>
     6da:	45f6                	lw	a1,92(sp)
     6dc:	0000c537          	lui	a0,0xc
     6e0:	56050513          	addi	a0,a0,1376 # c560 <__clzsi2+0x44e>
     6e4:	6b4000ef          	jal	ra,d98 <printf>
     6e8:	45be                	lw	a1,204(sp)
     6ea:	0000c537          	lui	a0,0xc
     6ee:	57850513          	addi	a0,a0,1400 # c578 <__clzsi2+0x466>
     6f2:	6a6000ef          	jal	ra,d98 <printf>
     6f6:	0000c537          	lui	a0,0xc
     6fa:	85da                	mv	a1,s6
     6fc:	59050513          	addi	a0,a0,1424 # c590 <__clzsi2+0x47e>
     700:	698000ef          	jal	ra,d98 <printf>
     704:	0000c537          	lui	a0,0xc
     708:	85d6                	mv	a1,s5
     70a:	5a850513          	addi	a0,a0,1448 # c5a8 <__clzsi2+0x496>
     70e:	68a000ef          	jal	ra,d98 <printf>
     712:	0000c537          	lui	a0,0xc
     716:	85d2                	mv	a1,s4
     718:	5c050513          	addi	a0,a0,1472 # c5c0 <__clzsi2+0x4ae>
     71c:	67c000ef          	jal	ra,d98 <printf>
     720:	0000c537          	lui	a0,0xc
     724:	85ce                	mv	a1,s3
     726:	5d850513          	addi	a0,a0,1496 # c5d8 <__clzsi2+0x4c6>
     72a:	66e000ef          	jal	ra,d98 <printf>
     72e:	0000c537          	lui	a0,0xc
     732:	85ca                	mv	a1,s2
     734:	5f050513          	addi	a0,a0,1520 # c5f0 <__clzsi2+0x4de>
     738:	660000ef          	jal	ra,d98 <printf>
     73c:	0000c537          	lui	a0,0xc
     740:	85a6                	mv	a1,s1
     742:	60850513          	addi	a0,a0,1544 # c608 <__clzsi2+0x4f6>
     746:	652000ef          	jal	ra,d98 <printf>
     74a:	45a2                	lw	a1,8(sp)
     74c:	0000c537          	lui	a0,0xc
     750:	62050513          	addi	a0,a0,1568 # c620 <__clzsi2+0x50e>
     754:	644000ef          	jal	ra,d98 <printf>
     758:	45b2                	lw	a1,12(sp)
     75a:	0000c537          	lui	a0,0xc
     75e:	63850513          	addi	a0,a0,1592 # c638 <__clzsi2+0x526>
     762:	636000ef          	jal	ra,d98 <printf>
     766:	45c2                	lw	a1,16(sp)
     768:	0000c537          	lui	a0,0xc
     76c:	65050513          	addi	a0,a0,1616 # c650 <__clzsi2+0x53e>
     770:	2525                	jal	d98 <printf>
     772:	45d2                	lw	a1,20(sp)
     774:	0000c537          	lui	a0,0xc
     778:	66850513          	addi	a0,a0,1640 # c668 <__clzsi2+0x556>
     77c:	2d31                	jal	d98 <printf>
     77e:	45e2                	lw	a1,24(sp)
     780:	0000c537          	lui	a0,0xc
     784:	68050513          	addi	a0,a0,1664 # c680 <__clzsi2+0x56e>
     788:	2d01                	jal	d98 <printf>
     78a:	45f2                	lw	a1,28(sp)
     78c:	0000c537          	lui	a0,0xc
     790:	69850513          	addi	a0,a0,1688 # c698 <__clzsi2+0x586>
     794:	2511                	jal	d98 <printf>
     796:	5582                	lw	a1,32(sp)
     798:	0000c537          	lui	a0,0xc
     79c:	6b050513          	addi	a0,a0,1712 # c6b0 <__clzsi2+0x59e>
     7a0:	2be5                	jal	d98 <printf>
     7a2:	5592                	lw	a1,36(sp)
     7a4:	0000c537          	lui	a0,0xc
     7a8:	6c850513          	addi	a0,a0,1736 # c6c8 <__clzsi2+0x5b6>
     7ac:	23f5                	jal	d98 <printf>
     7ae:	45fe                	lw	a1,220(sp)
     7b0:	0000c537          	lui	a0,0xc
     7b4:	6e050513          	addi	a0,a0,1760 # c6e0 <__clzsi2+0x5ce>
     7b8:	23c5                	jal	d98 <printf>
     7ba:	14c12583          	lw	a1,332(sp)
     7be:	0000c537          	lui	a0,0xc
     7c2:	6f850513          	addi	a0,a0,1784 # c6f8 <__clzsi2+0x5e6>
     7c6:	2bc9                	jal	d98 <printf>
     7c8:	55a2                	lw	a1,40(sp)
     7ca:	0000c537          	lui	a0,0xc
     7ce:	71050513          	addi	a0,a0,1808 # c710 <__clzsi2+0x5fe>
     7d2:	23d9                	jal	d98 <printf>
     7d4:	55b2                	lw	a1,44(sp)
     7d6:	0000c537          	lui	a0,0xc
     7da:	72850513          	addi	a0,a0,1832 # c728 <__clzsi2+0x616>
     7de:	2b6d                	jal	d98 <printf>
     7e0:	15c12583          	lw	a1,348(sp)
     7e4:	0000c537          	lui	a0,0xc
     7e8:	74050513          	addi	a0,a0,1856 # c740 <__clzsi2+0x62e>
     7ec:	2375                	jal	d98 <printf>
     7ee:	1cc12583          	lw	a1,460(sp)
     7f2:	0000c537          	lui	a0,0xc
     7f6:	75850513          	addi	a0,a0,1880 # c758 <__clzsi2+0x646>
     7fa:	2b79                	jal	d98 <printf>
     7fc:	55c2                	lw	a1,48(sp)
     7fe:	0000c537          	lui	a0,0xc
     802:	77050513          	addi	a0,a0,1904 # c770 <__clzsi2+0x65e>
     806:	2b49                	jal	d98 <printf>
     808:	55d2                	lw	a1,52(sp)
     80a:	0000c537          	lui	a0,0xc
     80e:	78850513          	addi	a0,a0,1928 # c788 <__clzsi2+0x676>
     812:	2359                	jal	d98 <printf>
     814:	55e2                	lw	a1,56(sp)
     816:	0000c537          	lui	a0,0xc
     81a:	7a050513          	addi	a0,a0,1952 # c7a0 <__clzsi2+0x68e>
     81e:	2bad                	jal	d98 <printf>
     820:	55f2                	lw	a1,60(sp)
     822:	0000c537          	lui	a0,0xc
     826:	7b850513          	addi	a0,a0,1976 # c7b8 <__clzsi2+0x6a6>
     82a:	23bd                	jal	d98 <printf>
     82c:	4692                	lw	a3,4(sp)
     82e:	0000c537          	lui	a0,0xc
     832:	85b6                	mv	a1,a3
     834:	7d050513          	addi	a0,a0,2000 # c7d0 <__clzsi2+0x6be>
     838:	2385                	jal	d98 <printf>
     83a:	4702                	lw	a4,0(sp)
     83c:	0000c537          	lui	a0,0xc
     840:	85ba                	mv	a1,a4
     842:	7f050513          	addi	a0,a0,2032 # c7f0 <__clzsi2+0x6de>
     846:	2b89                	jal	d98 <printf>
     848:	0000c537          	lui	a0,0xc
     84c:	2fc50513          	addi	a0,a0,764 # c2fc <__clzsi2+0x1ea>
     850:	23d5                	jal	e34 <puts>
     852:	00803533          	snez	a0,s0
     856:	20c12083          	lw	ra,524(sp)
     85a:	20812403          	lw	s0,520(sp)
     85e:	20412483          	lw	s1,516(sp)
     862:	20012903          	lw	s2,512(sp)
     866:	1fc12983          	lw	s3,508(sp)
     86a:	1f812a03          	lw	s4,504(sp)
     86e:	1f412a83          	lw	s5,500(sp)
     872:	1f012b03          	lw	s6,496(sp)
     876:	1ec12b83          	lw	s7,492(sp)
     87a:	1e812c03          	lw	s8,488(sp)
     87e:	1e412c83          	lw	s9,484(sp)
     882:	1e012d03          	lw	s10,480(sp)
     886:	1dc12d83          	lw	s11,476(sp)
     88a:	21010113          	addi	sp,sp,528
     88e:	8082                	ret

00000890 <__no_irq_handler>:
     890:	0000c517          	auipc	a0,0xc
     894:	04d50513          	addi	a0,a0,77 # c8dd <no_exception_handler_msg>
     898:	59c000ef          	jal	ra,e34 <puts>
     89c:	bfd5                	j	890 <__no_irq_handler>

0000089e <m_software_irq_handler>:
     89e:	bfcd                	j	890 <__no_irq_handler>

000008a0 <m_timer_irq_handler>:
     8a0:	bfc5                	j	890 <__no_irq_handler>

000008a2 <m_external_irq_handler>:
     8a2:	b7fd                	j	890 <__no_irq_handler>

000008a4 <m_fast0_irq_handler>:
     8a4:	b7f5                	j	890 <__no_irq_handler>

000008a6 <m_fast1_irq_handler>:
     8a6:	b7ed                	j	890 <__no_irq_handler>

000008a8 <m_fast2_irq_handler>:
     8a8:	b7e5                	j	890 <__no_irq_handler>

000008aa <m_fast3_irq_handler>:
     8aa:	b7dd                	j	890 <__no_irq_handler>

000008ac <m_fast4_irq_handler>:
     8ac:	b7d5                	j	890 <__no_irq_handler>

000008ae <m_fast5_irq_handler>:
     8ae:	b7cd                	j	890 <__no_irq_handler>

000008b0 <m_fast6_irq_handler>:
     8b0:	b7c5                	j	890 <__no_irq_handler>

000008b2 <m_fast7_irq_handler>:
     8b2:	bff9                	j	890 <__no_irq_handler>

000008b4 <m_fast8_irq_handler>:
     8b4:	bff1                	j	890 <__no_irq_handler>

000008b6 <m_fast9_irq_handler>:
     8b6:	bfe9                	j	890 <__no_irq_handler>

000008b8 <m_fast10_irq_handler>:
     8b8:	bfe1                	j	890 <__no_irq_handler>

000008ba <m_fast11_irq_handler>:
     8ba:	bfd9                	j	890 <__no_irq_handler>

000008bc <m_fast12_irq_handler>:
     8bc:	bfd1                	j	890 <__no_irq_handler>

000008be <m_fast13_irq_handler>:
     8be:	bfc9                	j	890 <__no_irq_handler>

000008c0 <m_fast14_irq_handler>:
     8c0:	bfc1                	j	890 <__no_irq_handler>

000008c2 <m_fast15_irq_handler>:
     8c2:	b7f9                	j	890 <__no_irq_handler>

000008c4 <u_sw_irq_handler>:
     8c4:	7139                	addi	sp,sp,-64
     8c6:	c006                	sw	ra,0(sp)
     8c8:	c22a                	sw	a0,4(sp)
     8ca:	c42e                	sw	a1,8(sp)
     8cc:	c632                	sw	a2,12(sp)
     8ce:	c836                	sw	a3,16(sp)
     8d0:	ca3a                	sw	a4,20(sp)
     8d2:	cc3e                	sw	a5,24(sp)
     8d4:	ce42                	sw	a6,28(sp)
     8d6:	d046                	sw	a7,32(sp)
     8d8:	d216                	sw	t0,36(sp)
     8da:	d41a                	sw	t1,40(sp)
     8dc:	d61e                	sw	t2,44(sp)
     8de:	d872                	sw	t3,48(sp)
     8e0:	da76                	sw	t4,52(sp)
     8e2:	dc7a                	sw	t5,56(sp)
     8e4:	de7e                	sw	t6,60(sp)
     8e6:	342022f3          	csrr	t0,mcause
     8ea:	4309                	li	t1,2
     8ec:	02628363          	beq	t0,t1,912 <handle_illegal_insn>
     8f0:	432d                	li	t1,11
     8f2:	00628663          	beq	t0,t1,8fe <handle_ecall>
     8f6:	430d                	li	t1,3
     8f8:	00628663          	beq	t0,t1,904 <handle_ebreak>
     8fc:	a015                	j	920 <handle_unknown>

000008fe <handle_ecall>:
     8fe:	206000ef          	jal	ra,b04 <handle_syscall>
     902:	a035                	j	92e <end_handler_incr_mepc>

00000904 <handle_ebreak>:
     904:	0000c517          	auipc	a0,0xc
     908:	f7850513          	addi	a0,a0,-136 # c87c <ebreak_msg>
     90c:	528000ef          	jal	ra,e34 <puts>
     910:	a839                	j	92e <end_handler_incr_mepc>

00000912 <handle_illegal_insn>:
     912:	0000c517          	auipc	a0,0xc
     916:	efe50513          	addi	a0,a0,-258 # c810 <illegal_insn_msg>
     91a:	51a000ef          	jal	ra,e34 <puts>
     91e:	a801                	j	92e <end_handler_incr_mepc>

00000920 <handle_unknown>:
     920:	0000c517          	auipc	a0,0xc
     924:	f8c50513          	addi	a0,a0,-116 # c8ac <unknown_msg>
     928:	50c000ef          	jal	ra,e34 <puts>
     92c:	a831                	j	948 <end_handler_ret>

0000092e <end_handler_incr_mepc>:
     92e:	341022f3          	csrr	t0,mepc
     932:	00028303          	lb	t1,0(t0)
     936:	450d                	li	a0,3
     938:	00a37333          	and	t1,t1,a0
     93c:	00a31363          	bne	t1,a0,942 <end_handler_incr_mepc2>
     940:	0289                	addi	t0,t0,2

00000942 <end_handler_incr_mepc2>:
     942:	0289                	addi	t0,t0,2
     944:	34129073          	csrw	mepc,t0

00000948 <end_handler_ret>:
     948:	4082                	lw	ra,0(sp)
     94a:	4512                	lw	a0,4(sp)
     94c:	45a2                	lw	a1,8(sp)
     94e:	4632                	lw	a2,12(sp)
     950:	46c2                	lw	a3,16(sp)
     952:	4752                	lw	a4,20(sp)
     954:	47e2                	lw	a5,24(sp)
     956:	4872                	lw	a6,28(sp)
     958:	5882                	lw	a7,32(sp)
     95a:	5292                	lw	t0,36(sp)
     95c:	5322                	lw	t1,40(sp)
     95e:	53b2                	lw	t2,44(sp)
     960:	5e42                	lw	t3,48(sp)
     962:	5ed2                	lw	t4,52(sp)
     964:	5f62                	lw	t5,56(sp)
     966:	5ff2                	lw	t6,60(sp)
     968:	6121                	addi	sp,sp,64
     96a:	30200073          	mret

0000096e <__syscall_error>:
     96e:	40a00533          	neg	a0,a0
     972:	20a1a223          	sw	a0,516(gp) # e07c <errno>
     976:	557d                	li	a0,-1
     978:	8082                	ret

0000097a <unimplemented_syscall>:
     97a:	0000d7b7          	lui	a5,0xd
     97e:	90c78793          	addi	a5,a5,-1780 # c90c <no_exception_handler_msg+0x2f>
     982:	100006b7          	lui	a3,0x10000
     986:	0007c703          	lbu	a4,0(a5)
     98a:	e311                	bnez	a4,98e <unimplemented_syscall+0x14>
     98c:	8082                	ret
     98e:	0785                	addi	a5,a5,1
     990:	c298                	sw	a4,0(a3)
     992:	bfd5                	j	986 <unimplemented_syscall+0xc>

00000994 <nanosleep>:
     994:	05800713          	li	a4,88
     998:	20e1a223          	sw	a4,516(gp) # e07c <errno>
     99c:	557d                	li	a0,-1
     99e:	8082                	ret

000009a0 <_access>:
     9a0:	05800713          	li	a4,88
     9a4:	20e1a223          	sw	a4,516(gp) # e07c <errno>
     9a8:	557d                	li	a0,-1
     9aa:	8082                	ret

000009ac <_chdir>:
     9ac:	05800713          	li	a4,88
     9b0:	20e1a223          	sw	a4,516(gp) # e07c <errno>
     9b4:	557d                	li	a0,-1
     9b6:	8082                	ret

000009b8 <_chmod>:
     9b8:	05800713          	li	a4,88
     9bc:	20e1a223          	sw	a4,516(gp) # e07c <errno>
     9c0:	557d                	li	a0,-1
     9c2:	8082                	ret

000009c4 <_chown>:
     9c4:	05800713          	li	a4,88
     9c8:	20e1a223          	sw	a4,516(gp) # e07c <errno>
     9cc:	557d                	li	a0,-1
     9ce:	8082                	ret

000009d0 <close>:
     9d0:	557d                	li	a0,-1
     9d2:	8082                	ret

000009d4 <_execve>:
     9d4:	4731                	li	a4,12
     9d6:	20e1a223          	sw	a4,516(gp) # e07c <errno>
     9da:	557d                	li	a0,-1
     9dc:	8082                	ret

000009de <_exit>:
     9de:	200007b7          	lui	a5,0x20000
     9e2:	c3c8                	sw	a0,4(a5)
     9e4:	10500073          	wfi
     9e8:	a001                	j	9e8 <_exit+0xa>

000009ea <_faccessat>:
     9ea:	05800713          	li	a4,88
     9ee:	20e1a223          	sw	a4,516(gp) # e07c <errno>
     9f2:	557d                	li	a0,-1
     9f4:	8082                	ret

000009f6 <_fork>:
     9f6:	472d                	li	a4,11
     9f8:	20e1a223          	sw	a4,516(gp) # e07c <errno>
     9fc:	557d                	li	a0,-1
     9fe:	8082                	ret

00000a00 <fstat>:
     a00:	6789                	lui	a5,0x2
     a02:	c1dc                	sw	a5,4(a1)
     a04:	4501                	li	a0,0
     a06:	8082                	ret

00000a08 <_fstatat>:
     a08:	05800713          	li	a4,88
     a0c:	20e1a223          	sw	a4,516(gp) # e07c <errno>
     a10:	557d                	li	a0,-1
     a12:	8082                	ret

00000a14 <_ftime>:
     a14:	05800713          	li	a4,88
     a18:	20e1a223          	sw	a4,516(gp) # e07c <errno>
     a1c:	557d                	li	a0,-1
     a1e:	8082                	ret

00000a20 <_getcwd>:
     a20:	fa800713          	li	a4,-88
     a24:	20e1a223          	sw	a4,516(gp) # e07c <errno>
     a28:	4501                	li	a0,0
     a2a:	8082                	ret

00000a2c <_getpid>:
     a2c:	4505                	li	a0,1
     a2e:	8082                	ret

00000a30 <_gettimeofday>:
     a30:	fa800713          	li	a4,-88
     a34:	20e1a223          	sw	a4,516(gp) # e07c <errno>
     a38:	557d                	li	a0,-1
     a3a:	8082                	ret

00000a3c <isatty>:
     a3c:	157d                	addi	a0,a0,-1
     a3e:	00153513          	seqz	a0,a0
     a42:	8082                	ret

00000a44 <_kill>:
     a44:	4759                	li	a4,22
     a46:	20e1a223          	sw	a4,516(gp) # e07c <errno>
     a4a:	557d                	li	a0,-1
     a4c:	8082                	ret

00000a4e <_link>:
     a4e:	477d                	li	a4,31
     a50:	20e1a223          	sw	a4,516(gp) # e07c <errno>
     a54:	557d                	li	a0,-1
     a56:	8082                	ret

00000a58 <lseek>:
     a58:	4501                	li	a0,0
     a5a:	8082                	ret

00000a5c <_lstat>:
     a5c:	05800713          	li	a4,88
     a60:	20e1a223          	sw	a4,516(gp) # e07c <errno>
     a64:	557d                	li	a0,-1
     a66:	8082                	ret

00000a68 <_open>:
     a68:	557d                	li	a0,-1
     a6a:	8082                	ret

00000a6c <_openat>:
     a6c:	05800713          	li	a4,88
     a70:	20e1a223          	sw	a4,516(gp) # e07c <errno>
     a74:	557d                	li	a0,-1
     a76:	8082                	ret

00000a78 <read>:
     a78:	4501                	li	a0,0
     a7a:	8082                	ret

00000a7c <_stat>:
     a7c:	6789                	lui	a5,0x2
     a7e:	c1dc                	sw	a5,4(a1)
     a80:	4501                	li	a0,0
     a82:	8082                	ret

00000a84 <_sysconf>:
     a84:	557d                	li	a0,-1
     a86:	8082                	ret

00000a88 <_times>:
     a88:	557d                	li	a0,-1
     a8a:	8082                	ret

00000a8c <_unlink>:
     a8c:	4709                	li	a4,2
     a8e:	20e1a223          	sw	a4,516(gp) # e07c <errno>
     a92:	557d                	li	a0,-1
     a94:	8082                	ret

00000a96 <_utime>:
     a96:	05800713          	li	a4,88
     a9a:	20e1a223          	sw	a4,516(gp) # e07c <errno>
     a9e:	557d                	li	a0,-1
     aa0:	8082                	ret

00000aa2 <_wait>:
     aa2:	4729                	li	a4,10
     aa4:	20e1a223          	sw	a4,516(gp) # e07c <errno>
     aa8:	557d                	li	a0,-1
     aaa:	8082                	ret

00000aac <write>:
     aac:	4685                	li	a3,1
     aae:	00c587b3          	add	a5,a1,a2
     ab2:	10000737          	lui	a4,0x10000
     ab6:	00d50c63          	beq	a0,a3,ace <write+0x22>
     aba:	05800713          	li	a4,88
     abe:	20e1a223          	sw	a4,516(gp) # e07c <errno>
     ac2:	557d                	li	a0,-1
     ac4:	8082                	ret
     ac6:	0585                	addi	a1,a1,1
     ac8:	fff5c683          	lbu	a3,-1(a1)
     acc:	c314                	sw	a3,0(a4)
     ace:	fef59ce3          	bne	a1,a5,ac6 <write+0x1a>
     ad2:	8532                	mv	a0,a2
     ad4:	8082                	ret

00000ad6 <_brk>:
     ad6:	1aa1ac23          	sw	a0,440(gp) # e030 <brk>
     ada:	4501                	li	a0,0
     adc:	8082                	ret

00000ade <sbrk>:
     ade:	1b81a783          	lw	a5,440(gp) # e030 <brk>
     ae2:	953e                	add	a0,a0,a5
     ae4:	1aa1ac23          	sw	a0,440(gp) # e030 <brk>
     ae8:	00257863          	bleu	sp,a0,af8 <sbrk+0x1a>
     aec:	00400737          	lui	a4,0x400
     af0:	00070713          	mv	a4,a4
     af4:	00e56663          	bltu	a0,a4,b00 <sbrk+0x22>
     af8:	4731                	li	a4,12
     afa:	20e1a223          	sw	a4,516(gp) # e07c <errno>
     afe:	57fd                	li	a5,-1
     b00:	853e                	mv	a0,a5
     b02:	8082                	ret

00000b04 <handle_syscall>:
     b04:	05d00693          	li	a3,93
     b08:	87ae                	mv	a5,a1
     b0a:	0cd88a63          	beq	a7,a3,bde <handle_syscall+0xda>
     b0e:	0716c163          	blt	a3,a7,b70 <handle_syscall+0x6c>
     b12:	03900713          	li	a4,57
     b16:	04e88163          	beq	a7,a4,b58 <handle_syscall+0x54>
     b1a:	03174563          	blt	a4,a7,b44 <handle_syscall+0x40>
     b1e:	03100793          	li	a5,49
     b22:	0117ca63          	blt	a5,a7,b36 <handle_syscall+0x32>
     b26:	03000793          	li	a5,48
     b2a:	00f8da63          	ble	a5,a7,b3e <handle_syscall+0x3a>
     b2e:	47c5                	li	a5,17
     b30:	0cf88463          	beq	a7,a5,bf8 <handle_syscall+0xf4>
     b34:	b599                	j	97a <unimplemented_syscall>
     b36:	03800793          	li	a5,56
     b3a:	fef89de3          	bne	a7,a5,b34 <handle_syscall+0x30>
     b3e:	05800713          	li	a4,88
     b42:	a075                	j	bee <handle_syscall+0xea>
     b44:	04000713          	li	a4,64
     b48:	0ae88163          	beq	a7,a4,bea <handle_syscall+0xe6>
     b4c:	01174763          	blt	a4,a7,b5a <handle_syscall+0x56>
     b50:	03e00793          	li	a5,62
     b54:	fef8c0e3          	blt	a7,a5,b34 <handle_syscall+0x30>
     b58:	8082                	ret
     b5a:	04f00713          	li	a4,79
     b5e:	fee880e3          	beq	a7,a4,b3e <handle_syscall+0x3a>
     b62:	05000713          	li	a4,80
     b66:	fce897e3          	bne	a7,a4,b34 <handle_syscall+0x30>
     b6a:	6709                	lui	a4,0x2
     b6c:	c3d8                	sw	a4,4(a5)
     b6e:	8082                	ret
     b70:	40000693          	li	a3,1024
     b74:	fed882e3          	beq	a7,a3,b58 <handle_syscall+0x54>
     b78:	0316cc63          	blt	a3,a7,bb0 <handle_syscall+0xac>
     b7c:	0a900793          	li	a5,169
     b80:	06f88c63          	beq	a7,a5,bf8 <handle_syscall+0xf4>
     b84:	0117cb63          	blt	a5,a7,b9a <handle_syscall+0x96>
     b88:	08100793          	li	a5,129
     b8c:	06f88063          	beq	a7,a5,bec <handle_syscall+0xe8>
     b90:	09900793          	li	a5,153
     b94:	fcf882e3          	beq	a7,a5,b58 <handle_syscall+0x54>
     b98:	bf71                	j	b34 <handle_syscall+0x30>
     b9a:	0ac00793          	li	a5,172
     b9e:	faf88de3          	beq	a7,a5,b58 <handle_syscall+0x54>
     ba2:	0d600793          	li	a5,214
     ba6:	f8f897e3          	bne	a7,a5,b34 <handle_syscall+0x30>
     baa:	1aa1ac23          	sw	a0,440(gp) # e030 <brk>
     bae:	8082                	ret
     bb0:	40900713          	li	a4,1033
     bb4:	f8e885e3          	beq	a7,a4,b3e <handle_syscall+0x3a>
     bb8:	01174c63          	blt	a4,a7,bd0 <handle_syscall+0xcc>
     bbc:	40100793          	li	a5,1025
     bc0:	02f88a63          	beq	a7,a5,bf4 <handle_syscall+0xf0>
     bc4:	40200793          	li	a5,1026
     bc8:	f6f896e3          	bne	a7,a5,b34 <handle_syscall+0x30>
     bcc:	4709                	li	a4,2
     bce:	a005                	j	bee <handle_syscall+0xea>
     bd0:	40e00713          	li	a4,1038
     bd4:	f8e88be3          	beq	a7,a4,b6a <handle_syscall+0x66>
     bd8:	40f00793          	li	a5,1039
     bdc:	bfb9                	j	b3a <handle_syscall+0x36>
     bde:	200007b7          	lui	a5,0x20000
     be2:	c3c8                	sw	a0,4(a5)
     be4:	10500073          	wfi
     be8:	a001                	j	be8 <handle_syscall+0xe4>
     bea:	b5c9                	j	aac <write>
     bec:	4759                	li	a4,22
     bee:	20e1a223          	sw	a4,516(gp) # e07c <errno>
     bf2:	8082                	ret
     bf4:	477d                	li	a4,31
     bf6:	bfe5                	j	bee <handle_syscall+0xea>
     bf8:	fa800713          	li	a4,-88
     bfc:	bfcd                	j	bee <handle_syscall+0xea>

00000bfe <atexit>:
     bfe:	85aa                	mv	a1,a0
     c00:	4681                	li	a3,0
     c02:	4601                	li	a2,0
     c04:	4501                	li	a0,0
     c06:	2d50106f          	j	26da <__register_exitproc>

00000c0a <exit>:
     c0a:	1141                	addi	sp,sp,-16
     c0c:	4581                	li	a1,0
     c0e:	c422                	sw	s0,8(sp)
     c10:	c606                	sw	ra,12(sp)
     c12:	842a                	mv	s0,a0
     c14:	327010ef          	jal	ra,273a <__call_exitprocs>
     c18:	1bc1a503          	lw	a0,444(gp) # e034 <_global_impure_ptr>
     c1c:	5d5c                	lw	a5,60(a0)
     c1e:	c391                	beqz	a5,c22 <exit+0x18>
     c20:	9782                	jalr	a5
     c22:	8522                	mv	a0,s0
     c24:	3b6d                	jal	9de <_exit>

00000c26 <__libc_fini_array>:
     c26:	1101                	addi	sp,sp,-32
     c28:	67b5                	lui	a5,0xd
     c2a:	6735                	lui	a4,0xd
     c2c:	cc22                	sw	s0,24(sp)
     c2e:	67870713          	addi	a4,a4,1656 # d678 <__DATA_BEGIN__>
     c32:	67878413          	addi	s0,a5,1656 # d678 <__DATA_BEGIN__>
     c36:	8c19                	sub	s0,s0,a4
     c38:	ca26                	sw	s1,20(sp)
     c3a:	c84a                	sw	s2,16(sp)
     c3c:	c64e                	sw	s3,12(sp)
     c3e:	ce06                	sw	ra,28(sp)
     c40:	8409                	srai	s0,s0,0x2
     c42:	4481                	li	s1,0
     c44:	67878913          	addi	s2,a5,1656
     c48:	59f1                	li	s3,-4
     c4a:	00941a63          	bne	s0,s1,c5e <__libc_fini_array+0x38>
     c4e:	4462                	lw	s0,24(sp)
     c50:	40f2                	lw	ra,28(sp)
     c52:	44d2                	lw	s1,20(sp)
     c54:	4942                	lw	s2,16(sp)
     c56:	49b2                	lw	s3,12(sp)
     c58:	6105                	addi	sp,sp,32
     c5a:	c7aff06f          	j	d4 <_fini>
     c5e:	033487b3          	mul	a5,s1,s3
     c62:	97ca                	add	a5,a5,s2
     c64:	ffc7a783          	lw	a5,-4(a5)
     c68:	0485                	addi	s1,s1,1
     c6a:	9782                	jalr	a5
     c6c:	bff9                	j	c4a <__libc_fini_array+0x24>

00000c6e <__libc_init_array>:
     c6e:	1141                	addi	sp,sp,-16
     c70:	c422                	sw	s0,8(sp)
     c72:	c226                	sw	s1,4(sp)
     c74:	6435                	lui	s0,0xd
     c76:	64b5                	lui	s1,0xd
     c78:	67848793          	addi	a5,s1,1656 # d678 <__DATA_BEGIN__>
     c7c:	67840413          	addi	s0,s0,1656 # d678 <__DATA_BEGIN__>
     c80:	8c1d                	sub	s0,s0,a5
     c82:	c04a                	sw	s2,0(sp)
     c84:	c606                	sw	ra,12(sp)
     c86:	8409                	srai	s0,s0,0x2
     c88:	67848493          	addi	s1,s1,1656
     c8c:	4901                	li	s2,0
     c8e:	02891763          	bne	s2,s0,cbc <__libc_init_array+0x4e>
     c92:	64b5                	lui	s1,0xd
     c94:	c40ff0ef          	jal	ra,d4 <_fini>
     c98:	6435                	lui	s0,0xd
     c9a:	67848793          	addi	a5,s1,1656 # d678 <__DATA_BEGIN__>
     c9e:	67840413          	addi	s0,s0,1656 # d678 <__DATA_BEGIN__>
     ca2:	8c1d                	sub	s0,s0,a5
     ca4:	8409                	srai	s0,s0,0x2
     ca6:	67848493          	addi	s1,s1,1656
     caa:	4901                	li	s2,0
     cac:	00891d63          	bne	s2,s0,cc6 <__libc_init_array+0x58>
     cb0:	40b2                	lw	ra,12(sp)
     cb2:	4422                	lw	s0,8(sp)
     cb4:	4492                	lw	s1,4(sp)
     cb6:	4902                	lw	s2,0(sp)
     cb8:	0141                	addi	sp,sp,16
     cba:	8082                	ret
     cbc:	409c                	lw	a5,0(s1)
     cbe:	0905                	addi	s2,s2,1
     cc0:	9782                	jalr	a5
     cc2:	0491                	addi	s1,s1,4
     cc4:	b7e9                	j	c8e <__libc_init_array+0x20>
     cc6:	409c                	lw	a5,0(s1)
     cc8:	0905                	addi	s2,s2,1
     cca:	9782                	jalr	a5
     ccc:	0491                	addi	s1,s1,4
     cce:	bff9                	j	cac <__libc_init_array+0x3e>

00000cd0 <memset>:
     cd0:	483d                	li	a6,15
     cd2:	872a                	mv	a4,a0
     cd4:	02c87363          	bleu	a2,a6,cfa <memset+0x2a>
     cd8:	00f77793          	andi	a5,a4,15
     cdc:	efbd                	bnez	a5,d5a <memset+0x8a>
     cde:	e5ad                	bnez	a1,d48 <memset+0x78>
     ce0:	ff067693          	andi	a3,a2,-16
     ce4:	8a3d                	andi	a2,a2,15
     ce6:	96ba                	add	a3,a3,a4
     ce8:	c30c                	sw	a1,0(a4)
     cea:	c34c                	sw	a1,4(a4)
     cec:	c70c                	sw	a1,8(a4)
     cee:	c74c                	sw	a1,12(a4)
     cf0:	0741                	addi	a4,a4,16
     cf2:	fed76be3          	bltu	a4,a3,ce8 <memset+0x18>
     cf6:	e211                	bnez	a2,cfa <memset+0x2a>
     cf8:	8082                	ret
     cfa:	40c806b3          	sub	a3,a6,a2
     cfe:	068a                	slli	a3,a3,0x2
     d00:	00000297          	auipc	t0,0x0
     d04:	9696                	add	a3,a3,t0
     d06:	00a68067          	jr	10(a3) # 1000000a <__heap_end+0xfc0000a>
     d0a:	00b70723          	sb	a1,14(a4)
     d0e:	00b706a3          	sb	a1,13(a4)
     d12:	00b70623          	sb	a1,12(a4)
     d16:	00b705a3          	sb	a1,11(a4)
     d1a:	00b70523          	sb	a1,10(a4)
     d1e:	00b704a3          	sb	a1,9(a4)
     d22:	00b70423          	sb	a1,8(a4)
     d26:	00b703a3          	sb	a1,7(a4)
     d2a:	00b70323          	sb	a1,6(a4)
     d2e:	00b702a3          	sb	a1,5(a4)
     d32:	00b70223          	sb	a1,4(a4)
     d36:	00b701a3          	sb	a1,3(a4)
     d3a:	00b70123          	sb	a1,2(a4)
     d3e:	00b700a3          	sb	a1,1(a4)
     d42:	00b70023          	sb	a1,0(a4)
     d46:	8082                	ret
     d48:	0ff5f593          	andi	a1,a1,255
     d4c:	00859693          	slli	a3,a1,0x8
     d50:	8dd5                	or	a1,a1,a3
     d52:	01059693          	slli	a3,a1,0x10
     d56:	8dd5                	or	a1,a1,a3
     d58:	b761                	j	ce0 <memset+0x10>
     d5a:	00279693          	slli	a3,a5,0x2
     d5e:	00000297          	auipc	t0,0x0
     d62:	9696                	add	a3,a3,t0
     d64:	8286                	mv	t0,ra
     d66:	fa8680e7          	jalr	-88(a3)
     d6a:	8096                	mv	ra,t0
     d6c:	17c1                	addi	a5,a5,-16
     d6e:	8f1d                	sub	a4,a4,a5
     d70:	963e                	add	a2,a2,a5
     d72:	f8c874e3          	bleu	a2,a6,cfa <memset+0x2a>
     d76:	b7a5                	j	cde <memset+0xe>

00000d78 <_printf_r>:
     d78:	7139                	addi	sp,sp,-64
     d7a:	d432                	sw	a2,40(sp)
     d7c:	d636                	sw	a3,44(sp)
     d7e:	d83a                	sw	a4,48(sp)
     d80:	da3e                	sw	a5,52(sp)
     d82:	dc42                	sw	a6,56(sp)
     d84:	de46                	sw	a7,60(sp)
     d86:	862e                	mv	a2,a1
     d88:	450c                	lw	a1,8(a0)
     d8a:	1034                	addi	a3,sp,40
     d8c:	ce06                	sw	ra,28(sp)
     d8e:	c636                	sw	a3,12(sp)
     d90:	2251                	jal	f14 <_vfprintf_r>
     d92:	40f2                	lw	ra,28(sp)
     d94:	6121                	addi	sp,sp,64
     d96:	8082                	ret

00000d98 <printf>:
     d98:	7139                	addi	sp,sp,-64
     d9a:	da3e                	sw	a5,52(sp)
     d9c:	1c01a783          	lw	a5,448(gp) # e038 <_impure_ptr>
     da0:	d432                	sw	a2,40(sp)
     da2:	d636                	sw	a3,44(sp)
     da4:	d22e                	sw	a1,36(sp)
     da6:	d83a                	sw	a4,48(sp)
     da8:	dc42                	sw	a6,56(sp)
     daa:	de46                	sw	a7,60(sp)
     dac:	478c                	lw	a1,8(a5)
     dae:	1054                	addi	a3,sp,36
     db0:	862a                	mv	a2,a0
     db2:	853e                	mv	a0,a5
     db4:	ce06                	sw	ra,28(sp)
     db6:	c636                	sw	a3,12(sp)
     db8:	2ab1                	jal	f14 <_vfprintf_r>
     dba:	40f2                	lw	ra,28(sp)
     dbc:	6121                	addi	sp,sp,64
     dbe:	8082                	ret

00000dc0 <_puts_r>:
     dc0:	7139                	addi	sp,sp,-64
     dc2:	dc22                	sw	s0,56(sp)
     dc4:	842a                	mv	s0,a0
     dc6:	852e                	mv	a0,a1
     dc8:	c62e                	sw	a1,12(sp)
     dca:	de06                	sw	ra,60(sp)
     dcc:	2a1d                	jal	f02 <strlen>
     dce:	0000c7b7          	lui	a5,0xc
     dd2:	2fc78793          	addi	a5,a5,764 # c2fc <__clzsi2+0x1ea>
     dd6:	d43e                	sw	a5,40(sp)
     dd8:	4785                	li	a5,1
     dda:	d63e                	sw	a5,44(sp)
     ddc:	101c                	addi	a5,sp,32
     dde:	45b2                	lw	a1,12(sp)
     de0:	ca3e                	sw	a5,20(sp)
     de2:	4789                	li	a5,2
     de4:	d22a                	sw	a0,36(sp)
     de6:	cc3e                	sw	a5,24(sp)
     de8:	0505                	addi	a0,a0,1
     dea:	5c1c                	lw	a5,56(s0)
     dec:	d02e                	sw	a1,32(sp)
     dee:	ce2a                	sw	a0,28(sp)
     df0:	440c                	lw	a1,8(s0)
     df2:	e791                	bnez	a5,dfe <_puts_r+0x3e>
     df4:	8522                	mv	a0,s0
     df6:	c62e                	sw	a1,12(sp)
     df8:	45b010ef          	jal	ra,2a52 <__sinit>
     dfc:	45b2                	lw	a1,12(sp)
     dfe:	00c59783          	lh	a5,12(a1)
     e02:	01279713          	slli	a4,a5,0x12
     e06:	00074b63          	bltz	a4,e1c <_puts_r+0x5c>
     e0a:	6689                	lui	a3,0x2
     e0c:	8fd5                	or	a5,a5,a3
     e0e:	51f8                	lw	a4,100(a1)
     e10:	00f59623          	sh	a5,12(a1)
     e14:	77f9                	lui	a5,0xffffe
     e16:	17fd                	addi	a5,a5,-1
     e18:	8ff9                	and	a5,a5,a4
     e1a:	d1fc                	sw	a5,100(a1)
     e1c:	0850                	addi	a2,sp,20
     e1e:	8522                	mv	a0,s0
     e20:	795010ef          	jal	ra,2db4 <__sfvwrite_r>
     e24:	57fd                	li	a5,-1
     e26:	e111                	bnez	a0,e2a <_puts_r+0x6a>
     e28:	47a9                	li	a5,10
     e2a:	50f2                	lw	ra,60(sp)
     e2c:	5462                	lw	s0,56(sp)
     e2e:	853e                	mv	a0,a5
     e30:	6121                	addi	sp,sp,64
     e32:	8082                	ret

00000e34 <puts>:
     e34:	85aa                	mv	a1,a0
     e36:	1c01a503          	lw	a0,448(gp) # e038 <_impure_ptr>
     e3a:	b759                	j	dc0 <_puts_r>

00000e3c <cleanup_glue>:
     e3c:	1141                	addi	sp,sp,-16
     e3e:	c422                	sw	s0,8(sp)
     e40:	842e                	mv	s0,a1
     e42:	418c                	lw	a1,0(a1)
     e44:	c226                	sw	s1,4(sp)
     e46:	c606                	sw	ra,12(sp)
     e48:	84aa                	mv	s1,a0
     e4a:	c191                	beqz	a1,e4e <cleanup_glue+0x12>
     e4c:	3fc5                	jal	e3c <cleanup_glue>
     e4e:	85a2                	mv	a1,s0
     e50:	4422                	lw	s0,8(sp)
     e52:	40b2                	lw	ra,12(sp)
     e54:	8526                	mv	a0,s1
     e56:	4492                	lw	s1,4(sp)
     e58:	0141                	addi	sp,sp,16
     e5a:	5bd0106f          	j	2c16 <_free_r>

00000e5e <_reclaim_reent>:
     e5e:	1c01a783          	lw	a5,448(gp) # e038 <_impure_ptr>
     e62:	08a78f63          	beq	a5,a0,f00 <_reclaim_reent+0xa2>
     e66:	1101                	addi	sp,sp,-32
     e68:	457c                	lw	a5,76(a0)
     e6a:	cc22                	sw	s0,24(sp)
     e6c:	ca26                	sw	s1,20(sp)
     e6e:	c84a                	sw	s2,16(sp)
     e70:	ce06                	sw	ra,28(sp)
     e72:	c64e                	sw	s3,12(sp)
     e74:	842a                	mv	s0,a0
     e76:	4481                	li	s1,0
     e78:	08000913          	li	s2,128
     e7c:	eb85                	bnez	a5,eac <_reclaim_reent+0x4e>
     e7e:	402c                	lw	a1,64(s0)
     e80:	c581                	beqz	a1,e88 <_reclaim_reent+0x2a>
     e82:	8522                	mv	a0,s0
     e84:	593010ef          	jal	ra,2c16 <_free_r>
     e88:	14842583          	lw	a1,328(s0)
     e8c:	cd95                	beqz	a1,ec8 <_reclaim_reent+0x6a>
     e8e:	14c40493          	addi	s1,s0,332
     e92:	02958b63          	beq	a1,s1,ec8 <_reclaim_reent+0x6a>
     e96:	0005a903          	lw	s2,0(a1)
     e9a:	8522                	mv	a0,s0
     e9c:	57b010ef          	jal	ra,2c16 <_free_r>
     ea0:	85ca                	mv	a1,s2
     ea2:	bfc5                	j	e92 <_reclaim_reent+0x34>
     ea4:	95a6                	add	a1,a1,s1
     ea6:	418c                	lw	a1,0(a1)
     ea8:	e989                	bnez	a1,eba <_reclaim_reent+0x5c>
     eaa:	0491                	addi	s1,s1,4
     eac:	446c                	lw	a1,76(s0)
     eae:	ff249be3          	bne	s1,s2,ea4 <_reclaim_reent+0x46>
     eb2:	8522                	mv	a0,s0
     eb4:	563010ef          	jal	ra,2c16 <_free_r>
     eb8:	b7d9                	j	e7e <_reclaim_reent+0x20>
     eba:	0005a983          	lw	s3,0(a1)
     ebe:	8522                	mv	a0,s0
     ec0:	557010ef          	jal	ra,2c16 <_free_r>
     ec4:	85ce                	mv	a1,s3
     ec6:	b7cd                	j	ea8 <_reclaim_reent+0x4a>
     ec8:	486c                	lw	a1,84(s0)
     eca:	c581                	beqz	a1,ed2 <_reclaim_reent+0x74>
     ecc:	8522                	mv	a0,s0
     ece:	549010ef          	jal	ra,2c16 <_free_r>
     ed2:	5c1c                	lw	a5,56(s0)
     ed4:	cf99                	beqz	a5,ef2 <_reclaim_reent+0x94>
     ed6:	5c5c                	lw	a5,60(s0)
     ed8:	8522                	mv	a0,s0
     eda:	9782                	jalr	a5
     edc:	2e042583          	lw	a1,736(s0)
     ee0:	c989                	beqz	a1,ef2 <_reclaim_reent+0x94>
     ee2:	8522                	mv	a0,s0
     ee4:	4462                	lw	s0,24(sp)
     ee6:	40f2                	lw	ra,28(sp)
     ee8:	44d2                	lw	s1,20(sp)
     eea:	4942                	lw	s2,16(sp)
     eec:	49b2                	lw	s3,12(sp)
     eee:	6105                	addi	sp,sp,32
     ef0:	b7b1                	j	e3c <cleanup_glue>
     ef2:	40f2                	lw	ra,28(sp)
     ef4:	4462                	lw	s0,24(sp)
     ef6:	44d2                	lw	s1,20(sp)
     ef8:	4942                	lw	s2,16(sp)
     efa:	49b2                	lw	s3,12(sp)
     efc:	6105                	addi	sp,sp,32
     efe:	8082                	ret
     f00:	8082                	ret

00000f02 <strlen>:
     f02:	87aa                	mv	a5,a0
     f04:	0785                	addi	a5,a5,1
     f06:	fff7c703          	lbu	a4,-1(a5) # ffffdfff <pulp__FC+0xffffe000>
     f0a:	ff6d                	bnez	a4,f04 <strlen+0x2>
     f0c:	40a78533          	sub	a0,a5,a0
     f10:	157d                	addi	a0,a0,-1
     f12:	8082                	ret

00000f14 <_vfprintf_r>:
     f14:	7105                	addi	sp,sp,-480
     f16:	1c112e23          	sw	ra,476(sp)
     f1a:	1c912a23          	sw	s1,468(sp)
     f1e:	1d212823          	sw	s2,464(sp)
     f22:	1d312623          	sw	s3,460(sp)
     f26:	1d512223          	sw	s5,452(sp)
     f2a:	892e                	mv	s2,a1
     f2c:	84b2                	mv	s1,a2
     f2e:	1c812c23          	sw	s0,472(sp)
     f32:	1d412423          	sw	s4,456(sp)
     f36:	1d612023          	sw	s6,448(sp)
     f3a:	1b712e23          	sw	s7,444(sp)
     f3e:	1b812c23          	sw	s8,440(sp)
     f42:	1b912a23          	sw	s9,436(sp)
     f46:	1ba12823          	sw	s10,432(sp)
     f4a:	1bb12623          	sw	s11,428(sp)
     f4e:	89aa                	mv	s3,a0
     f50:	8ab6                	mv	s5,a3
     f52:	08f030ef          	jal	ra,47e0 <_localeconv_r>
     f56:	4108                	lw	a0,0(a0)
     f58:	c4aa                	sw	a0,72(sp)
     f5a:	3765                	jal	f02 <strlen>
     f5c:	dc2a                	sw	a0,56(sp)
     f5e:	4641                	li	a2,16
     f60:	4581                	li	a1,0
     f62:	1188                	addi	a0,sp,224
     f64:	33b5                	jal	cd0 <memset>
     f66:	00098863          	beqz	s3,f76 <_vfprintf_r+0x62>
     f6a:	0389a783          	lw	a5,56(s3)
     f6e:	e781                	bnez	a5,f76 <_vfprintf_r+0x62>
     f70:	854e                	mv	a0,s3
     f72:	2e1010ef          	jal	ra,2a52 <__sinit>
     f76:	00c91783          	lh	a5,12(s2)
     f7a:	01279593          	slli	a1,a5,0x12
     f7e:	0005cd63          	bltz	a1,f98 <_vfprintf_r+0x84>
     f82:	6689                	lui	a3,0x2
     f84:	8fd5                	or	a5,a5,a3
     f86:	06492703          	lw	a4,100(s2)
     f8a:	00f91623          	sh	a5,12(s2)
     f8e:	77f9                	lui	a5,0xffffe
     f90:	17fd                	addi	a5,a5,-1
     f92:	8ff9                	and	a5,a5,a4
     f94:	06f92223          	sw	a5,100(s2)
     f98:	00c95783          	lhu	a5,12(s2)
     f9c:	8ba1                	andi	a5,a5,8
     f9e:	c3b5                	beqz	a5,1002 <_vfprintf_r+0xee>
     fa0:	01092783          	lw	a5,16(s2)
     fa4:	cfb9                	beqz	a5,1002 <_vfprintf_r+0xee>
     fa6:	00c95783          	lhu	a5,12(s2)
     faa:	4729                	li	a4,10
     fac:	8be9                	andi	a5,a5,26
     fae:	06e79263          	bne	a5,a4,1012 <_vfprintf_r+0xfe>
     fb2:	00e91783          	lh	a5,14(s2)
     fb6:	0407ce63          	bltz	a5,1012 <_vfprintf_r+0xfe>
     fba:	86d6                	mv	a3,s5
     fbc:	8626                	mv	a2,s1
     fbe:	85ca                	mv	a1,s2
     fc0:	854e                	mv	a0,s3
     fc2:	5b8010ef          	jal	ra,257a <__sbprintf>
     fc6:	de2a                	sw	a0,60(sp)
     fc8:	1dc12083          	lw	ra,476(sp)
     fcc:	1d812403          	lw	s0,472(sp)
     fd0:	5572                	lw	a0,60(sp)
     fd2:	1d412483          	lw	s1,468(sp)
     fd6:	1d012903          	lw	s2,464(sp)
     fda:	1cc12983          	lw	s3,460(sp)
     fde:	1c812a03          	lw	s4,456(sp)
     fe2:	1c412a83          	lw	s5,452(sp)
     fe6:	1c012b03          	lw	s6,448(sp)
     fea:	1bc12b83          	lw	s7,444(sp)
     fee:	1b812c03          	lw	s8,440(sp)
     ff2:	1b412c83          	lw	s9,436(sp)
     ff6:	1b012d03          	lw	s10,432(sp)
     ffa:	1ac12d83          	lw	s11,428(sp)
     ffe:	613d                	addi	sp,sp,480
    1000:	8082                	ret
    1002:	85ca                	mv	a1,s2
    1004:	854e                	mv	a0,s3
    1006:	5fe010ef          	jal	ra,2604 <__swsetup_r>
    100a:	dd51                	beqz	a0,fa6 <_vfprintf_r+0x92>
    100c:	55fd                	li	a1,-1
    100e:	de2e                	sw	a1,60(sp)
    1010:	bf65                	j	fc8 <_vfprintf_r+0xb4>
    1012:	0fc10893          	addi	a7,sp,252
    1016:	cbc6                	sw	a7,212(sp)
    1018:	cf82                	sw	zero,220(sp)
    101a:	cd82                	sw	zero,216(sp)
    101c:	4a01                	li	s4,0
    101e:	cc82                	sw	zero,88(sp)
    1020:	ca82                	sw	zero,84(sp)
    1022:	d402                	sw	zero,40(sp)
    1024:	c282                	sw	zero,68(sp)
    1026:	c882                	sw	zero,80(sp)
    1028:	de02                	sw	zero,60(sp)
    102a:	8426                	mv	s0,s1
    102c:	02500713          	li	a4,37
    1030:	00044783          	lbu	a5,0(s0)
    1034:	c399                	beqz	a5,103a <_vfprintf_r+0x126>
    1036:	08e79263          	bne	a5,a4,10ba <_vfprintf_r+0x1a6>
    103a:	40940b33          	sub	s6,s0,s1
    103e:	020b0c63          	beqz	s6,1076 <_vfprintf_r+0x162>
    1042:	47fe                	lw	a5,220(sp)
    1044:	0098a023          	sw	s1,0(a7)
    1048:	97da                	add	a5,a5,s6
    104a:	cfbe                	sw	a5,220(sp)
    104c:	47ee                	lw	a5,216(sp)
    104e:	0168a223          	sw	s6,4(a7)
    1052:	0785                	addi	a5,a5,1
    1054:	cdbe                	sw	a5,216(sp)
    1056:	471d                	li	a4,7
    1058:	08a1                	addi	a7,a7,8
    105a:	00f75b63          	ble	a5,a4,1070 <_vfprintf_r+0x15c>
    105e:	09d0                	addi	a2,sp,212
    1060:	85ca                	mv	a1,s2
    1062:	854e                	mv	a0,s3
    1064:	560060ef          	jal	ra,75c4 <__sprint_r>
    1068:	38051963          	bnez	a0,13fa <_vfprintf_r+0x4e6>
    106c:	0fc10893          	addi	a7,sp,252
    1070:	5672                	lw	a2,60(sp)
    1072:	965a                	add	a2,a2,s6
    1074:	de32                	sw	a2,60(sp)
    1076:	00044783          	lbu	a5,0(s0)
    107a:	e399                	bnez	a5,1080 <_vfprintf_r+0x16c>
    107c:	4da0106f          	j	2556 <_vfprintf_r+0x1642>
    1080:	0405                	addi	s0,s0,1
    1082:	d822                	sw	s0,48(sp)
    1084:	0a010ba3          	sb	zero,183(sp)
    1088:	5b7d                	li	s6,-1
    108a:	c082                	sw	zero,64(sp)
    108c:	4401                	li	s0,0
    108e:	4c29                	li	s8,10
    1090:	02a00b93          	li	s7,42
    1094:	05a00613          	li	a2,90
    1098:	4725                	li	a4,9
    109a:	56c2                	lw	a3,48(sp)
    109c:	0006cd03          	lbu	s10,0(a3) # 2000 <_vfprintf_r+0x10ec>
    10a0:	0685                	addi	a3,a3,1
    10a2:	d836                	sw	a3,48(sp)
    10a4:	fe0d0793          	addi	a5,s10,-32
    10a8:	52f664e3          	bltu	a2,a5,1dd0 <_vfprintf_r+0xebc>
    10ac:	65b5                	lui	a1,0xd
    10ae:	078a                	slli	a5,a5,0x2
    10b0:	93058593          	addi	a1,a1,-1744 # c930 <no_exception_handler_msg+0x53>
    10b4:	97ae                	add	a5,a5,a1
    10b6:	439c                	lw	a5,0(a5)
    10b8:	8782                	jr	a5
    10ba:	0405                	addi	s0,s0,1
    10bc:	bf95                	j	1030 <_vfprintf_r+0x11c>
    10be:	0000d7b7          	lui	a5,0xd
    10c2:	b1478793          	addi	a5,a5,-1260 # cb14 <zeroes.4384+0x68>
    10c6:	ccbe                	sw	a5,88(sp)
    10c8:	02047793          	andi	a5,s0,32
    10cc:	3a0786e3          	beqz	a5,1c78 <_vfprintf_r+0xd64>
    10d0:	0a9d                	addi	s5,s5,7
    10d2:	ff8afa93          	andi	s5,s5,-8
    10d6:	008a8793          	addi	a5,s5,8
    10da:	000aac83          	lw	s9,0(s5)
    10de:	004aac03          	lw	s8,4(s5)
    10e2:	d63e                	sw	a5,44(sp)
    10e4:	00147793          	andi	a5,s0,1
    10e8:	cf89                	beqz	a5,1102 <_vfprintf_r+0x1ee>
    10ea:	018ce7b3          	or	a5,s9,s8
    10ee:	cb91                	beqz	a5,1102 <_vfprintf_r+0x1ee>
    10f0:	03000793          	li	a5,48
    10f4:	0af10c23          	sb	a5,184(sp)
    10f8:	87ea                	mv	a5,s10
    10fa:	0af10ca3          	sb	a5,185(sp)
    10fe:	00246413          	ori	s0,s0,2
    1102:	bff47413          	andi	s0,s0,-1025
    1106:	4789                	li	a5,2
    1108:	0970006f          	j	199e <_vfprintf_r+0xa8a>
    110c:	854e                	mv	a0,s3
    110e:	c246                	sw	a7,4(sp)
    1110:	6d0030ef          	jal	ra,47e0 <_localeconv_r>
    1114:	4148                	lw	a0,4(a0)
    1116:	c8aa                	sw	a0,80(sp)
    1118:	33ed                	jal	f02 <strlen>
    111a:	c2aa                	sw	a0,68(sp)
    111c:	854e                	mv	a0,s3
    111e:	6c2030ef          	jal	ra,47e0 <_localeconv_r>
    1122:	4508                	lw	a0,8(a0)
    1124:	4616                	lw	a2,68(sp)
    1126:	d42a                	sw	a0,40(sp)
    1128:	4892                	lw	a7,4(sp)
    112a:	d62d                	beqz	a2,1094 <_vfprintf_r+0x180>
    112c:	d525                	beqz	a0,1094 <_vfprintf_r+0x180>
    112e:	00054783          	lbu	a5,0(a0)
    1132:	d3ad                	beqz	a5,1094 <_vfprintf_r+0x180>
    1134:	40046413          	ori	s0,s0,1024
    1138:	bfb1                	j	1094 <_vfprintf_r+0x180>
    113a:	0b714783          	lbu	a5,183(sp)
    113e:	fbb9                	bnez	a5,1094 <_vfprintf_r+0x180>
    1140:	02000793          	li	a5,32
    1144:	0af10ba3          	sb	a5,183(sp)
    1148:	b7b1                	j	1094 <_vfprintf_r+0x180>
    114a:	00146413          	ori	s0,s0,1
    114e:	b799                	j	1094 <_vfprintf_r+0x180>
    1150:	000aa683          	lw	a3,0(s5)
    1154:	0a91                	addi	s5,s5,4
    1156:	c0b6                	sw	a3,64(sp)
    1158:	f206dee3          	bgez	a3,1094 <_vfprintf_r+0x180>
    115c:	40d006b3          	neg	a3,a3
    1160:	c0b6                	sw	a3,64(sp)
    1162:	00446413          	ori	s0,s0,4
    1166:	b73d                	j	1094 <_vfprintf_r+0x180>
    1168:	02b00793          	li	a5,43
    116c:	bfe1                	j	1144 <_vfprintf_r+0x230>
    116e:	55c2                	lw	a1,48(sp)
    1170:	0005cd03          	lbu	s10,0(a1)
    1174:	00158793          	addi	a5,a1,1
    1178:	037d1963          	bne	s10,s7,11aa <_vfprintf_r+0x296>
    117c:	000aab03          	lw	s6,0(s5)
    1180:	004a8713          	addi	a4,s5,4
    1184:	000b5363          	bgez	s6,118a <_vfprintf_r+0x276>
    1188:	5b7d                	li	s6,-1
    118a:	8aba                	mv	s5,a4
    118c:	d83e                	sw	a5,48(sp)
    118e:	b719                	j	1094 <_vfprintf_r+0x180>
    1190:	0785                	addi	a5,a5,1
    1192:	038b0333          	mul	t1,s6,s8
    1196:	fff7cd03          	lbu	s10,-1(a5)
    119a:	00d30b33          	add	s6,t1,a3
    119e:	fd0d0693          	addi	a3,s10,-48
    11a2:	fed777e3          	bleu	a3,a4,1190 <_vfprintf_r+0x27c>
    11a6:	d83e                	sw	a5,48(sp)
    11a8:	bdf5                	j	10a4 <_vfprintf_r+0x190>
    11aa:	4b01                	li	s6,0
    11ac:	bfcd                	j	119e <_vfprintf_r+0x28a>
    11ae:	08046413          	ori	s0,s0,128
    11b2:	b5cd                	j	1094 <_vfprintf_r+0x180>
    11b4:	57c2                	lw	a5,48(sp)
    11b6:	c082                	sw	zero,64(sp)
    11b8:	4586                	lw	a1,64(sp)
    11ba:	fd0d0d13          	addi	s10,s10,-48
    11be:	038586b3          	mul	a3,a1,s8
    11c2:	9d36                	add	s10,s10,a3
    11c4:	0785                	addi	a5,a5,1
    11c6:	c0ea                	sw	s10,64(sp)
    11c8:	fff7cd03          	lbu	s10,-1(a5)
    11cc:	fd0d0693          	addi	a3,s10,-48
    11d0:	fed774e3          	bleu	a3,a4,11b8 <_vfprintf_r+0x2a4>
    11d4:	bfc9                	j	11a6 <_vfprintf_r+0x292>
    11d6:	00846413          	ori	s0,s0,8
    11da:	bd6d                	j	1094 <_vfprintf_r+0x180>
    11dc:	5642                	lw	a2,48(sp)
    11de:	06800793          	li	a5,104
    11e2:	00064703          	lbu	a4,0(a2)
    11e6:	00f71763          	bne	a4,a5,11f4 <_vfprintf_r+0x2e0>
    11ea:	0605                	addi	a2,a2,1
    11ec:	d832                	sw	a2,48(sp)
    11ee:	20046413          	ori	s0,s0,512
    11f2:	b54d                	j	1094 <_vfprintf_r+0x180>
    11f4:	04046413          	ori	s0,s0,64
    11f8:	bd71                	j	1094 <_vfprintf_r+0x180>
    11fa:	56c2                	lw	a3,48(sp)
    11fc:	06c00793          	li	a5,108
    1200:	0006c703          	lbu	a4,0(a3)
    1204:	00f71763          	bne	a4,a5,1212 <_vfprintf_r+0x2fe>
    1208:	0685                	addi	a3,a3,1
    120a:	d836                	sw	a3,48(sp)
    120c:	02046413          	ori	s0,s0,32
    1210:	b551                	j	1094 <_vfprintf_r+0x180>
    1212:	01046413          	ori	s0,s0,16
    1216:	bdbd                	j	1094 <_vfprintf_r+0x180>
    1218:	000aa783          	lw	a5,0(s5)
    121c:	004a8713          	addi	a4,s5,4
    1220:	d63a                	sw	a4,44(sp)
    1222:	12f10e23          	sb	a5,316(sp)
    1226:	0a010ba3          	sb	zero,183(sp)
    122a:	d202                	sw	zero,36(sp)
    122c:	4b05                	li	s6,1
    122e:	4a81                	li	s5,0
    1230:	4c01                	li	s8,0
    1232:	4b81                	li	s7,0
    1234:	4c81                	li	s9,0
    1236:	1a64                	addi	s1,sp,316
    1238:	0290006f          	j	1a60 <_vfprintf_r+0xb4c>
    123c:	01046413          	ori	s0,s0,16
    1240:	02047793          	andi	a5,s0,32
    1244:	cba9                	beqz	a5,1296 <_vfprintf_r+0x382>
    1246:	0a9d                	addi	s5,s5,7
    1248:	ff8afa93          	andi	s5,s5,-8
    124c:	008a8793          	addi	a5,s5,8
    1250:	000aac83          	lw	s9,0(s5)
    1254:	004aac03          	lw	s8,4(s5)
    1258:	d63e                	sw	a5,44(sp)
    125a:	000c5e63          	bgez	s8,1276 <_vfprintf_r+0x362>
    125e:	41900cb3          	neg	s9,s9
    1262:	019037b3          	snez	a5,s9
    1266:	41800c33          	neg	s8,s8
    126a:	40fc0c33          	sub	s8,s8,a5
    126e:	02d00793          	li	a5,45
    1272:	0af10ba3          	sb	a5,183(sp)
    1276:	57fd                	li	a5,-1
    1278:	22fb17e3          	bne	s6,a5,1ca6 <_vfprintf_r+0xd92>
    127c:	280c18e3          	bnez	s8,1d0c <_vfprintf_r+0xdf8>
    1280:	47a5                	li	a5,9
    1282:	2997e5e3          	bltu	a5,s9,1d0c <_vfprintf_r+0xdf8>
    1286:	030c8c93          	addi	s9,s9,48
    128a:	19910fa3          	sb	s9,415(sp)
    128e:	19f10493          	addi	s1,sp,415
    1292:	2650006f          	j	1cf6 <_vfprintf_r+0xde2>
    1296:	004a8593          	addi	a1,s5,4
    129a:	d62e                	sw	a1,44(sp)
    129c:	01047793          	andi	a5,s0,16
    12a0:	c791                	beqz	a5,12ac <_vfprintf_r+0x398>
    12a2:	000aac83          	lw	s9,0(s5)
    12a6:	41fcdc13          	srai	s8,s9,0x1f
    12aa:	bf45                	j	125a <_vfprintf_r+0x346>
    12ac:	04047793          	andi	a5,s0,64
    12b0:	000aac83          	lw	s9,0(s5)
    12b4:	c789                	beqz	a5,12be <_vfprintf_r+0x3aa>
    12b6:	0cc2                	slli	s9,s9,0x10
    12b8:	410cdc93          	srai	s9,s9,0x10
    12bc:	b7ed                	j	12a6 <_vfprintf_r+0x392>
    12be:	20047793          	andi	a5,s0,512
    12c2:	d3f5                	beqz	a5,12a6 <_vfprintf_r+0x392>
    12c4:	0ce2                	slli	s9,s9,0x18
    12c6:	418cdc93          	srai	s9,s9,0x18
    12ca:	bff1                	j	12a6 <_vfprintf_r+0x392>
    12cc:	00847793          	andi	a5,s0,8
    12d0:	cfad                	beqz	a5,134a <_vfprintf_r+0x436>
    12d2:	000aa783          	lw	a5,0(s5)
    12d6:	004a8613          	addi	a2,s5,4
    12da:	43d4                	lw	a3,4(a5)
    12dc:	4798                	lw	a4,8(a5)
    12de:	d632                	sw	a2,44(sp)
    12e0:	4390                	lw	a2,0(a5)
    12e2:	47dc                	lw	a5,12(a5)
    12e4:	d1b2                	sw	a2,224(sp)
    12e6:	d3b6                	sw	a3,228(sp)
    12e8:	d5ba                	sw	a4,232(sp)
    12ea:	d7be                	sw	a5,236(sp)
    12ec:	1188                	addi	a0,sp,224
    12ee:	c246                	sw	a7,4(sp)
    12f0:	4ac030ef          	jal	ra,479c <_ldcheck>
    12f4:	df2a                	sw	a0,188(sp)
    12f6:	4789                	li	a5,2
    12f8:	4892                	lw	a7,4(sp)
    12fa:	08f51563          	bne	a0,a5,1384 <_vfprintf_r+0x470>
    12fe:	578e                	lw	a5,224(sp)
    1300:	090c                	addi	a1,sp,144
    1302:	d13e                	sw	a5,160(sp)
    1304:	579e                	lw	a5,228(sp)
    1306:	1108                	addi	a0,sp,160
    1308:	d33e                	sw	a5,164(sp)
    130a:	57ae                	lw	a5,232(sp)
    130c:	c902                	sw	zero,144(sp)
    130e:	d53e                	sw	a5,168(sp)
    1310:	57be                	lw	a5,236(sp)
    1312:	cb02                	sw	zero,148(sp)
    1314:	d73e                	sw	a5,172(sp)
    1316:	cd02                	sw	zero,152(sp)
    1318:	cf02                	sw	zero,156(sp)
    131a:	4e1080ef          	jal	ra,9ffa <__letf2>
    131e:	4892                	lw	a7,4(sp)
    1320:	00055663          	bgez	a0,132c <_vfprintf_r+0x418>
    1324:	02d00793          	li	a5,45
    1328:	0af10ba3          	sb	a5,183(sp)
    132c:	04700793          	li	a5,71
    1330:	05a7c563          	blt	a5,s10,137a <_vfprintf_r+0x466>
    1334:	0000d4b7          	lui	s1,0xd
    1338:	af048493          	addi	s1,s1,-1296 # caf0 <zeroes.4384+0x44>
    133c:	f7f47413          	andi	s0,s0,-129
    1340:	d202                	sw	zero,36(sp)
    1342:	4b0d                	li	s6,3
    1344:	4a81                	li	s5,0
    1346:	1bb0006f          	j	1d00 <_vfprintf_r+0xdec>
    134a:	0a9d                	addi	s5,s5,7
    134c:	ff8afa93          	andi	s5,s5,-8
    1350:	000aa583          	lw	a1,0(s5)
    1354:	004aa603          	lw	a2,4(s5)
    1358:	008a8693          	addi	a3,s5,8
    135c:	1108                	addi	a0,sp,160
    135e:	c246                	sw	a7,4(sp)
    1360:	d636                	sw	a3,44(sp)
    1362:	1fb0a0ef          	jal	ra,bd5c <__extenddftf2>
    1366:	578a                	lw	a5,160(sp)
    1368:	4892                	lw	a7,4(sp)
    136a:	d1be                	sw	a5,224(sp)
    136c:	579a                	lw	a5,164(sp)
    136e:	d3be                	sw	a5,228(sp)
    1370:	57aa                	lw	a5,168(sp)
    1372:	d5be                	sw	a5,232(sp)
    1374:	57ba                	lw	a5,172(sp)
    1376:	d7be                	sw	a5,236(sp)
    1378:	bf95                	j	12ec <_vfprintf_r+0x3d8>
    137a:	0000d4b7          	lui	s1,0xd
    137e:	af448493          	addi	s1,s1,-1292 # caf4 <zeroes.4384+0x48>
    1382:	bf6d                	j	133c <_vfprintf_r+0x428>
    1384:	4785                	li	a5,1
    1386:	02f51063          	bne	a0,a5,13a6 <_vfprintf_r+0x492>
    138a:	04700793          	li	a5,71
    138e:	01a7c763          	blt	a5,s10,139c <_vfprintf_r+0x488>
    1392:	0000d4b7          	lui	s1,0xd
    1396:	af848493          	addi	s1,s1,-1288 # caf8 <zeroes.4384+0x4c>
    139a:	b74d                	j	133c <_vfprintf_r+0x428>
    139c:	0000d4b7          	lui	s1,0xd
    13a0:	afc48493          	addi	s1,s1,-1284 # cafc <zeroes.4384+0x50>
    13a4:	bf61                	j	133c <_vfprintf_r+0x428>
    13a6:	fdfd7b93          	andi	s7,s10,-33
    13aa:	04100793          	li	a5,65
    13ae:	04fb9d63          	bne	s7,a5,1408 <_vfprintf_r+0x4f4>
    13b2:	03000793          	li	a5,48
    13b6:	0af10c23          	sb	a5,184(sp)
    13ba:	06100713          	li	a4,97
    13be:	05800793          	li	a5,88
    13c2:	00ed1463          	bne	s10,a4,13ca <_vfprintf_r+0x4b6>
    13c6:	07800793          	li	a5,120
    13ca:	0af10ca3          	sb	a5,185(sp)
    13ce:	06300793          	li	a5,99
    13d2:	00246413          	ori	s0,s0,2
    13d6:	3567d963          	ble	s6,a5,1728 <_vfprintf_r+0x814>
    13da:	001b0593          	addi	a1,s6,1
    13de:	854e                	mv	a0,s3
    13e0:	c246                	sw	a7,4(sp)
    13e2:	5a8030ef          	jal	ra,498a <_malloc_r>
    13e6:	84aa                	mv	s1,a0
    13e8:	4892                	lw	a7,4(sp)
    13ea:	34051263          	bnez	a0,172e <_vfprintf_r+0x81a>
    13ee:	00c95783          	lhu	a5,12(s2)
    13f2:	0407e793          	ori	a5,a5,64
    13f6:	00f91623          	sh	a5,12(s2)
    13fa:	00c95783          	lhu	a5,12(s2)
    13fe:	0407f793          	andi	a5,a5,64
    1402:	bc0783e3          	beqz	a5,fc8 <_vfprintf_r+0xb4>
    1406:	b119                	j	100c <_vfprintf_r+0xf8>
    1408:	57fd                	li	a5,-1
    140a:	32fb0463          	beq	s6,a5,1732 <_vfprintf_r+0x81e>
    140e:	04700793          	li	a5,71
    1412:	d202                	sw	zero,36(sp)
    1414:	00fb9463          	bne	s7,a5,141c <_vfprintf_r+0x508>
    1418:	320b0063          	beqz	s6,1738 <_vfprintf_r+0x824>
    141c:	10046713          	ori	a4,s0,256
    1420:	5a3e                	lw	s4,236(sp)
    1422:	da3a                	sw	a4,52(sp)
    1424:	c682                	sw	zero,76(sp)
    1426:	5e0e                	lw	t3,224(sp)
    1428:	5d9e                	lw	s11,228(sp)
    142a:	5cae                	lw	s9,232(sp)
    142c:	000a5963          	bgez	s4,143e <_vfprintf_r+0x52a>
    1430:	800007b7          	lui	a5,0x80000
    1434:	0147ca33          	xor	s4,a5,s4
    1438:	02d00793          	li	a5,45
    143c:	c6be                	sw	a5,76(sp)
    143e:	04100793          	li	a5,65
    1442:	32fb9863          	bne	s7,a5,1772 <_vfprintf_r+0x85e>
    1446:	1108                	addi	a0,sp,160
    1448:	c246                	sw	a7,4(sp)
    144a:	d172                	sw	t3,160(sp)
    144c:	d36e                	sw	s11,164(sp)
    144e:	d566                	sw	s9,168(sp)
    1450:	d752                	sw	s4,172(sp)
    1452:	2750a0ef          	jal	ra,bec6 <__trunctfdf2>
    1456:	1970                	addi	a2,sp,188
    1458:	029040ef          	jal	ra,5c80 <frexp>
    145c:	862e                	mv	a2,a1
    145e:	85aa                	mv	a1,a0
    1460:	1108                	addi	a0,sp,160
    1462:	0fb0a0ef          	jal	ra,bd5c <__extenddftf2>
    1466:	558a                	lw	a1,160(sp)
    1468:	0000d7b7          	lui	a5,0xd
    146c:	c12e                	sw	a1,128(sp)
    146e:	559a                	lw	a1,164(sp)
    1470:	ac078793          	addi	a5,a5,-1344 # cac0 <zeroes.4384+0x14>
    1474:	c32e                	sw	a1,132(sp)
    1476:	55aa                	lw	a1,168(sp)
    1478:	4390                	lw	a2,0(a5)
    147a:	c52e                	sw	a1,136(sp)
    147c:	55ba                	lw	a1,172(sp)
    147e:	43d4                	lw	a3,4(a5)
    1480:	4798                	lw	a4,8(a5)
    1482:	47dc                	lw	a5,12(a5)
    1484:	c72e                	sw	a1,140(sp)
    1486:	d8b2                	sw	a2,112(sp)
    1488:	010c                	addi	a1,sp,128
    148a:	1890                	addi	a2,sp,112
    148c:	0908                	addi	a0,sp,144
    148e:	dab6                	sw	a3,116(sp)
    1490:	dcba                	sw	a4,120(sp)
    1492:	debe                	sw	a5,124(sp)
    1494:	479080ef          	jal	ra,a10c <__multf3>
    1498:	43ca                	lw	t2,144(sp)
    149a:	485a                	lw	a6,148(sp)
    149c:	4dea                	lw	s11,152(sp)
    149e:	4cfa                	lw	s9,156(sp)
    14a0:	090c                	addi	a1,sp,144
    14a2:	1108                	addi	a0,sp,160
    14a4:	d11e                	sw	t2,160(sp)
    14a6:	d342                	sw	a6,164(sp)
    14a8:	d01e                	sw	t2,32(sp)
    14aa:	ca42                	sw	a6,20(sp)
    14ac:	d56e                	sw	s11,168(sp)
    14ae:	d766                	sw	s9,172(sp)
    14b0:	c902                	sw	zero,144(sp)
    14b2:	cb02                	sw	zero,148(sp)
    14b4:	cd02                	sw	zero,152(sp)
    14b6:	cf02                	sw	zero,156(sp)
    14b8:	18b080ef          	jal	ra,9e42 <__eqtf2>
    14bc:	5382                	lw	t2,32(sp)
    14be:	4852                	lw	a6,20(sp)
    14c0:	4892                	lw	a7,4(sp)
    14c2:	e119                	bnez	a0,14c8 <_vfprintf_r+0x5b4>
    14c4:	4785                	li	a5,1
    14c6:	df3e                	sw	a5,188(sp)
    14c8:	06100793          	li	a5,97
    14cc:	26fd1963          	bne	s10,a5,173e <_vfprintf_r+0x82a>
    14d0:	0000da37          	lui	s4,0xd
    14d4:	b00a0a13          	addi	s4,s4,-1280 # cb00 <zeroes.4384+0x54>
    14d8:	0000d737          	lui	a4,0xd
    14dc:	ad070713          	addi	a4,a4,-1328 # cad0 <zeroes.4384+0x24>
    14e0:	4314                	lw	a3,0(a4)
    14e2:	435c                	lw	a5,4(a4)
    14e4:	d0b6                	sw	a3,96(sp)
    14e6:	4714                	lw	a3,8(a4)
    14e8:	4758                	lw	a4,12(a4)
    14ea:	fffb0e13          	addi	t3,s6,-1
    14ee:	8c26                	mv	s8,s1
    14f0:	d2be                	sw	a5,100(sp)
    14f2:	d4b6                	sw	a3,104(sp)
    14f4:	d6ba                	sw	a4,108(sp)
    14f6:	5706                	lw	a4,96(sp)
    14f8:	5796                	lw	a5,100(sp)
    14fa:	56a6                	lw	a3,104(sp)
    14fc:	c13a                	sw	a4,128(sp)
    14fe:	5736                	lw	a4,108(sp)
    1500:	090c                	addi	a1,sp,144
    1502:	0110                	addi	a2,sp,128
    1504:	1108                	addi	a0,sp,160
    1506:	c246                	sw	a7,4(sp)
    1508:	c472                	sw	t3,8(sp)
    150a:	c91e                	sw	t2,144(sp)
    150c:	cb42                	sw	a6,148(sp)
    150e:	c33e                	sw	a5,132(sp)
    1510:	c73a                	sw	a4,140(sp)
    1512:	cd6e                	sw	s11,152(sp)
    1514:	cf66                	sw	s9,156(sp)
    1516:	c536                	sw	a3,136(sp)
    1518:	3f5080ef          	jal	ra,a10c <__multf3>
    151c:	560a                	lw	a2,160(sp)
    151e:	569a                	lw	a3,164(sp)
    1520:	1108                	addi	a0,sp,160
    1522:	d032                	sw	a2,32(sp)
    1524:	ca36                	sw	a3,20(sp)
    1526:	6520a0ef          	jal	ra,bb78 <__fixtfsi>
    152a:	85aa                	mv	a1,a0
    152c:	8aaa                	mv	s5,a0
    152e:	1108                	addi	a0,sp,160
    1530:	5daa                	lw	s11,168(sp)
    1532:	5cba                	lw	s9,172(sp)
    1534:	73a0a0ef          	jal	ra,bc6e <__floatsitf>
    1538:	570a                	lw	a4,160(sp)
    153a:	5602                	lw	a2,32(sp)
    153c:	d8ba                	sw	a4,112(sp)
    153e:	571a                	lw	a4,164(sp)
    1540:	46d2                	lw	a3,20(sp)
    1542:	daba                	sw	a4,116(sp)
    1544:	572a                	lw	a4,168(sp)
    1546:	c132                	sw	a2,128(sp)
    1548:	dcba                	sw	a4,120(sp)
    154a:	573a                	lw	a4,172(sp)
    154c:	1890                	addi	a2,sp,112
    154e:	010c                	addi	a1,sp,128
    1550:	0908                	addi	a0,sp,144
    1552:	c56e                	sw	s11,136(sp)
    1554:	c766                	sw	s9,140(sp)
    1556:	deba                	sw	a4,124(sp)
    1558:	c336                	sw	a3,132(sp)
    155a:	786090ef          	jal	ra,ace0 <__subtf3>
    155e:	015a0733          	add	a4,s4,s5
    1562:	00074703          	lbu	a4,0(a4)
    1566:	0c05                	addi	s8,s8,1
    1568:	4f6a                	lw	t5,152(sp)
    156a:	4efa                	lw	t4,156(sp)
    156c:	42ca                	lw	t0,144(sp)
    156e:	4fda                	lw	t6,148(sp)
    1570:	feec0fa3          	sb	a4,-1(s8)
    1574:	4e22                	lw	t3,8(sp)
    1576:	577d                	li	a4,-1
    1578:	cef2                	sw	t3,92(sp)
    157a:	8dfa                	mv	s11,t5
    157c:	8cf6                	mv	s9,t4
    157e:	4892                	lw	a7,4(sp)
    1580:	02ee0f63          	beq	t3,a4,15be <_vfprintf_r+0x6aa>
    1584:	1e7d                	addi	t3,t3,-1
    1586:	090c                	addi	a1,sp,144
    1588:	1108                	addi	a0,sp,160
    158a:	d116                	sw	t0,160(sp)
    158c:	d37e                	sw	t6,164(sp)
    158e:	d57a                	sw	t5,168(sp)
    1590:	d776                	sw	t4,172(sp)
    1592:	ce16                	sw	t0,28(sp)
    1594:	d016                	sw	t0,32(sp)
    1596:	ca7e                	sw	t6,20(sp)
    1598:	c472                	sw	t3,8(sp)
    159a:	c676                	sw	t4,12(sp)
    159c:	c87a                	sw	t5,16(sp)
    159e:	cc7e                	sw	t6,24(sp)
    15a0:	c902                	sw	zero,144(sp)
    15a2:	cb02                	sw	zero,148(sp)
    15a4:	cd02                	sw	zero,152(sp)
    15a6:	cf02                	sw	zero,156(sp)
    15a8:	09b080ef          	jal	ra,9e42 <__eqtf2>
    15ac:	42f2                	lw	t0,28(sp)
    15ae:	5382                	lw	t2,32(sp)
    15b0:	4852                	lw	a6,20(sp)
    15b2:	4892                	lw	a7,4(sp)
    15b4:	4e22                	lw	t3,8(sp)
    15b6:	4eb2                	lw	t4,12(sp)
    15b8:	4f42                	lw	t5,16(sp)
    15ba:	4fe2                	lw	t6,24(sp)
    15bc:	fd0d                	bnez	a0,14f6 <_vfprintf_r+0x5e2>
    15be:	0000d737          	lui	a4,0xd
    15c2:	ae070713          	addi	a4,a4,-1312 # cae0 <zeroes.4384+0x34>
    15c6:	4310                	lw	a2,0(a4)
    15c8:	4354                	lw	a3,4(a4)
    15ca:	00872d83          	lw	s11,8(a4)
    15ce:	00c72c83          	lw	s9,12(a4)
    15d2:	090c                	addi	a1,sp,144
    15d4:	1108                	addi	a0,sp,160
    15d6:	d116                	sw	t0,160(sp)
    15d8:	d37e                	sw	t6,164(sp)
    15da:	d57a                	sw	t5,168(sp)
    15dc:	d776                	sw	t4,172(sp)
    15de:	c932                	sw	a2,144(sp)
    15e0:	cb36                	sw	a3,148(sp)
    15e2:	ce16                	sw	t0,28(sp)
    15e4:	d032                	sw	a2,32(sp)
    15e6:	ca36                	sw	a3,20(sp)
    15e8:	c246                	sw	a7,4(sp)
    15ea:	c676                	sw	t4,12(sp)
    15ec:	c87a                	sw	t5,16(sp)
    15ee:	cc7e                	sw	t6,24(sp)
    15f0:	cd6e                	sw	s11,152(sp)
    15f2:	cf66                	sw	s9,156(sp)
    15f4:	0f5080ef          	jal	ra,9ee8 <__getf2>
    15f8:	42f2                	lw	t0,28(sp)
    15fa:	5602                	lw	a2,32(sp)
    15fc:	46d2                	lw	a3,20(sp)
    15fe:	4892                	lw	a7,4(sp)
    1600:	4eb2                	lw	t4,12(sp)
    1602:	4f42                	lw	t5,16(sp)
    1604:	4fe2                	lw	t6,24(sp)
    1606:	02a04563          	bgtz	a0,1630 <_vfprintf_r+0x71c>
    160a:	090c                	addi	a1,sp,144
    160c:	1108                	addi	a0,sp,160
    160e:	d116                	sw	t0,160(sp)
    1610:	d37e                	sw	t6,164(sp)
    1612:	d57a                	sw	t5,168(sp)
    1614:	d776                	sw	t4,172(sp)
    1616:	c932                	sw	a2,144(sp)
    1618:	cb36                	sw	a3,148(sp)
    161a:	cd6e                	sw	s11,152(sp)
    161c:	cf66                	sw	s9,156(sp)
    161e:	025080ef          	jal	ra,9e42 <__eqtf2>
    1622:	4892                	lw	a7,4(sp)
    1624:	14051163          	bnez	a0,1766 <_vfprintf_r+0x852>
    1628:	001afa93          	andi	s5,s5,1
    162c:	120a8d63          	beqz	s5,1766 <_vfprintf_r+0x852>
    1630:	00fa4603          	lbu	a2,15(s4)
    1634:	c7e2                	sw	s8,204(sp)
    1636:	03000593          	li	a1,48
    163a:	46be                	lw	a3,204(sp)
    163c:	fff68713          	addi	a4,a3,-1
    1640:	c7ba                	sw	a4,204(sp)
    1642:	fff6c703          	lbu	a4,-1(a3)
    1646:	10c70163          	beq	a4,a2,1748 <_vfprintf_r+0x834>
    164a:	03900613          	li	a2,57
    164e:	10c71063          	bne	a4,a2,174e <_vfprintf_r+0x83a>
    1652:	00aa4703          	lbu	a4,10(s4)
    1656:	fee68fa3          	sb	a4,-1(a3)
    165a:	8a62                	mv	s4,s8
    165c:	04700713          	li	a4,71
    1660:	409a0a33          	sub	s4,s4,s1
    1664:	5cfa                	lw	s9,188(sp)
    1666:	1ceb9e63          	bne	s7,a4,1842 <_vfprintf_r+0x92e>
    166a:	5775                	li	a4,-3
    166c:	00ecc463          	blt	s9,a4,1674 <_vfprintf_r+0x760>
    1670:	239b5d63          	ble	s9,s6,18aa <_vfprintf_r+0x996>
    1674:	1d79                	addi	s10,s10,-2
    1676:	fffc8693          	addi	a3,s9,-1
    167a:	df36                	sw	a3,188(sp)
    167c:	fdfd7613          	andi	a2,s10,-33
    1680:	04100513          	li	a0,65
    1684:	0ffd7713          	andi	a4,s10,255
    1688:	4581                	li	a1,0
    168a:	00a61663          	bne	a2,a0,1696 <_vfprintf_r+0x782>
    168e:	073d                	addi	a4,a4,15
    1690:	0ff77713          	andi	a4,a4,255
    1694:	4585                	li	a1,1
    1696:	0ce10223          	sb	a4,196(sp)
    169a:	02b00793          	li	a5,43
    169e:	0006d763          	bgez	a3,16ac <_vfprintf_r+0x798>
    16a2:	4685                	li	a3,1
    16a4:	419686b3          	sub	a3,a3,s9
    16a8:	02d00793          	li	a5,45
    16ac:	0cf102a3          	sb	a5,197(sp)
    16b0:	47a5                	li	a5,9
    16b2:	1cd7d363          	ble	a3,a5,1878 <_vfprintf_r+0x964>
    16b6:	0d310713          	addi	a4,sp,211
    16ba:	853a                	mv	a0,a4
    16bc:	45a9                	li	a1,10
    16be:	4825                	li	a6,9
    16c0:	02b6e7b3          	rem	a5,a3,a1
    16c4:	02b6c6b3          	div	a3,a3,a1
    16c8:	03078793          	addi	a5,a5,48
    16cc:	fef70fa3          	sb	a5,-1(a4)
    16d0:	fff70613          	addi	a2,a4,-1
    16d4:	18d84963          	blt	a6,a3,1866 <_vfprintf_r+0x952>
    16d8:	03068793          	addi	a5,a3,48
    16dc:	fef60fa3          	sb	a5,-1(a2)
    16e0:	1779                	addi	a4,a4,-2
    16e2:	0c610613          	addi	a2,sp,198
    16e6:	18a76263          	bltu	a4,a0,186a <_vfprintf_r+0x956>
    16ea:	01dc                	addi	a5,sp,196
    16ec:	40f607b3          	sub	a5,a2,a5
    16f0:	cabe                	sw	a5,84(sp)
    16f2:	01478b33          	add	s6,a5,s4
    16f6:	4785                	li	a5,1
    16f8:	0147c563          	blt	a5,s4,1702 <_vfprintf_r+0x7ee>
    16fc:	00147793          	andi	a5,s0,1
    1700:	c399                	beqz	a5,1706 <_vfprintf_r+0x7f2>
    1702:	55e2                	lw	a1,56(sp)
    1704:	9b2e                	add	s6,s6,a1
    1706:	bff47413          	andi	s0,s0,-1025
    170a:	10046413          	ori	s0,s0,256
    170e:	da22                	sw	s0,52(sp)
    1710:	4c01                	li	s8,0
    1712:	4b81                	li	s7,0
    1714:	4c81                	li	s9,0
    1716:	4736                	lw	a4,76(sp)
    1718:	c709                	beqz	a4,1722 <_vfprintf_r+0x80e>
    171a:	02d00713          	li	a4,45
    171e:	0ae10ba3          	sb	a4,183(sp)
    1722:	5452                	lw	s0,52(sp)
    1724:	4a81                	li	s5,0
    1726:	ae2d                	j	1a60 <_vfprintf_r+0xb4c>
    1728:	d202                	sw	zero,36(sp)
    172a:	1a64                	addi	s1,sp,316
    172c:	b9c5                	j	141c <_vfprintf_r+0x508>
    172e:	d22a                	sw	a0,36(sp)
    1730:	b1f5                	j	141c <_vfprintf_r+0x508>
    1732:	d202                	sw	zero,36(sp)
    1734:	4b19                	li	s6,6
    1736:	b1dd                	j	141c <_vfprintf_r+0x508>
    1738:	d25a                	sw	s6,36(sp)
    173a:	4b05                	li	s6,1
    173c:	b1c5                	j	141c <_vfprintf_r+0x508>
    173e:	0000da37          	lui	s4,0xd
    1742:	b14a0a13          	addi	s4,s4,-1260 # cb14 <zeroes.4384+0x68>
    1746:	bb49                	j	14d8 <_vfprintf_r+0x5c4>
    1748:	feb68fa3          	sb	a1,-1(a3)
    174c:	b5fd                	j	163a <_vfprintf_r+0x726>
    174e:	0705                	addi	a4,a4,1
    1750:	0ff77713          	andi	a4,a4,255
    1754:	b709                	j	1656 <_vfprintf_r+0x742>
    1756:	0a05                	addi	s4,s4,1
    1758:	feea0fa3          	sb	a4,-1(s4)
    175c:	414c07b3          	sub	a5,s8,s4
    1760:	fe07dbe3          	bgez	a5,1756 <_vfprintf_r+0x842>
    1764:	bde5                	j	165c <_vfprintf_r+0x748>
    1766:	47f6                	lw	a5,92(sp)
    1768:	8a62                	mv	s4,s8
    176a:	03000713          	li	a4,48
    176e:	9c3e                	add	s8,s8,a5
    1770:	b7f5                	j	175c <_vfprintf_r+0x848>
    1772:	04600793          	li	a5,70
    1776:	00fb8b63          	beq	s7,a5,178c <_vfprintf_r+0x878>
    177a:	04500793          	li	a5,69
    177e:	001b0a93          	addi	s5,s6,1
    1782:	00fb8363          	beq	s7,a5,1788 <_vfprintf_r+0x874>
    1786:	8ada                	mv	s5,s6
    1788:	4609                	li	a2,2
    178a:	a019                	j	1790 <_vfprintf_r+0x87c>
    178c:	8ada                	mv	s5,s6
    178e:	460d                	li	a2,3
    1790:	019c                	addi	a5,sp,192
    1792:	0cc10813          	addi	a6,sp,204
    1796:	1978                	addi	a4,sp,188
    1798:	86d6                	mv	a3,s5
    179a:	110c                	addi	a1,sp,160
    179c:	854e                	mv	a0,s3
    179e:	d172                	sw	t3,160(sp)
    17a0:	c246                	sw	a7,4(sp)
    17a2:	c472                	sw	t3,8(sp)
    17a4:	d36e                	sw	s11,164(sp)
    17a6:	d566                	sw	s9,168(sp)
    17a8:	d752                	sw	s4,172(sp)
    17aa:	6ea020ef          	jal	ra,3e94 <_ldtoa_r>
    17ae:	04700793          	li	a5,71
    17b2:	84aa                	mv	s1,a0
    17b4:	4892                	lw	a7,4(sp)
    17b6:	4e22                	lw	t3,8(sp)
    17b8:	00fb9563          	bne	s7,a5,17c2 <_vfprintf_r+0x8ae>
    17bc:	00147793          	andi	a5,s0,1
    17c0:	c7b5                	beqz	a5,182c <_vfprintf_r+0x918>
    17c2:	04600793          	li	a5,70
    17c6:	01548c33          	add	s8,s1,s5
    17ca:	02fb9f63          	bne	s7,a5,1808 <_vfprintf_r+0x8f4>
    17ce:	0004c703          	lbu	a4,0(s1)
    17d2:	03000793          	li	a5,48
    17d6:	02f71763          	bne	a4,a5,1804 <_vfprintf_r+0x8f0>
    17da:	090c                	addi	a1,sp,144
    17dc:	1108                	addi	a0,sp,160
    17de:	d172                	sw	t3,160(sp)
    17e0:	c246                	sw	a7,4(sp)
    17e2:	c472                	sw	t3,8(sp)
    17e4:	d36e                	sw	s11,164(sp)
    17e6:	d566                	sw	s9,168(sp)
    17e8:	d752                	sw	s4,172(sp)
    17ea:	c902                	sw	zero,144(sp)
    17ec:	cb02                	sw	zero,148(sp)
    17ee:	cd02                	sw	zero,152(sp)
    17f0:	cf02                	sw	zero,156(sp)
    17f2:	650080ef          	jal	ra,9e42 <__eqtf2>
    17f6:	4892                	lw	a7,4(sp)
    17f8:	4e22                	lw	t3,8(sp)
    17fa:	c509                	beqz	a0,1804 <_vfprintf_r+0x8f0>
    17fc:	4785                	li	a5,1
    17fe:	41578ab3          	sub	s5,a5,s5
    1802:	df56                	sw	s5,188(sp)
    1804:	57fa                	lw	a5,188(sp)
    1806:	9c3e                	add	s8,s8,a5
    1808:	090c                	addi	a1,sp,144
    180a:	1108                	addi	a0,sp,160
    180c:	c246                	sw	a7,4(sp)
    180e:	d172                	sw	t3,160(sp)
    1810:	d36e                	sw	s11,164(sp)
    1812:	d566                	sw	s9,168(sp)
    1814:	d752                	sw	s4,172(sp)
    1816:	c902                	sw	zero,144(sp)
    1818:	cb02                	sw	zero,148(sp)
    181a:	cd02                	sw	zero,152(sp)
    181c:	cf02                	sw	zero,156(sp)
    181e:	624080ef          	jal	ra,9e42 <__eqtf2>
    1822:	4892                	lw	a7,4(sp)
    1824:	03000713          	li	a4,48
    1828:	e909                	bnez	a0,183a <_vfprintf_r+0x926>
    182a:	c7e2                	sw	s8,204(sp)
    182c:	4a3e                	lw	s4,204(sp)
    182e:	b53d                	j	165c <_vfprintf_r+0x748>
    1830:	00178693          	addi	a3,a5,1
    1834:	c7b6                	sw	a3,204(sp)
    1836:	00e78023          	sb	a4,0(a5)
    183a:	47be                	lw	a5,204(sp)
    183c:	ff87eae3          	bltu	a5,s8,1830 <_vfprintf_r+0x91c>
    1840:	b7f5                	j	182c <_vfprintf_r+0x918>
    1842:	04600713          	li	a4,70
    1846:	e2eb98e3          	bne	s7,a4,1676 <_vfprintf_r+0x762>
    184a:	05905763          	blez	s9,1898 <_vfprintf_r+0x984>
    184e:	000b1563          	bnez	s6,1858 <_vfprintf_r+0x944>
    1852:	00147713          	andi	a4,s0,1
    1856:	cf41                	beqz	a4,18ee <_vfprintf_r+0x9da>
    1858:	5662                	lw	a2,56(sp)
    185a:	00cc8733          	add	a4,s9,a2
    185e:	9b3a                	add	s6,s6,a4
    1860:	06600d13          	li	s10,102
    1864:	a895                	j	18d8 <_vfprintf_r+0x9c4>
    1866:	8732                	mv	a4,a2
    1868:	bda1                	j	16c0 <_vfprintf_r+0x7ac>
    186a:	0705                	addi	a4,a4,1
    186c:	fff74783          	lbu	a5,-1(a4)
    1870:	0605                	addi	a2,a2,1
    1872:	fef60fa3          	sb	a5,-1(a2)
    1876:	bd85                	j	16e6 <_vfprintf_r+0x7d2>
    1878:	0c610713          	addi	a4,sp,198
    187c:	e599                	bnez	a1,188a <_vfprintf_r+0x976>
    187e:	03000793          	li	a5,48
    1882:	0cf10323          	sb	a5,198(sp)
    1886:	0c710713          	addi	a4,sp,199
    188a:	03068793          	addi	a5,a3,48
    188e:	00170613          	addi	a2,a4,1
    1892:	00f70023          	sb	a5,0(a4)
    1896:	bd91                	j	16ea <_vfprintf_r+0x7d6>
    1898:	000b1563          	bnez	s6,18a2 <_vfprintf_r+0x98e>
    189c:	00147713          	andi	a4,s0,1
    18a0:	cb29                	beqz	a4,18f2 <_vfprintf_r+0x9de>
    18a2:	56e2                	lw	a3,56(sp)
    18a4:	00168713          	addi	a4,a3,1
    18a8:	bf5d                	j	185e <_vfprintf_r+0x94a>
    18aa:	014ccc63          	blt	s9,s4,18c2 <_vfprintf_r+0x9ae>
    18ae:	00147713          	andi	a4,s0,1
    18b2:	8b66                	mv	s6,s9
    18b4:	c701                	beqz	a4,18bc <_vfprintf_r+0x9a8>
    18b6:	5762                	lw	a4,56(sp)
    18b8:	00ec8b33          	add	s6,s9,a4
    18bc:	06700d13          	li	s10,103
    18c0:	a821                	j	18d8 <_vfprintf_r+0x9c4>
    18c2:	57e2                	lw	a5,56(sp)
    18c4:	06700d13          	li	s10,103
    18c8:	00fa0b33          	add	s6,s4,a5
    18cc:	01904663          	bgtz	s9,18d8 <_vfprintf_r+0x9c4>
    18d0:	419b0333          	sub	t1,s6,s9
    18d4:	00130b13          	addi	s6,t1,1
    18d8:	40047b93          	andi	s7,s0,1024
    18dc:	4c01                	li	s8,0
    18de:	e20b8ce3          	beqz	s7,1716 <_vfprintf_r+0x802>
    18e2:	4b81                	li	s7,0
    18e4:	e39059e3          	blez	s9,1716 <_vfprintf_r+0x802>
    18e8:	0ff00693          	li	a3,255
    18ec:	a015                	j	1910 <_vfprintf_r+0x9fc>
    18ee:	8b66                	mv	s6,s9
    18f0:	bf85                	j	1860 <_vfprintf_r+0x94c>
    18f2:	06600d13          	li	s10,102
    18f6:	4b05                	li	s6,1
    18f8:	b7c5                	j	18d8 <_vfprintf_r+0x9c4>
    18fa:	03975063          	ble	s9,a4,191a <_vfprintf_r+0xa06>
    18fe:	55a2                	lw	a1,40(sp)
    1900:	40ec8cb3          	sub	s9,s9,a4
    1904:	0015c703          	lbu	a4,1(a1)
    1908:	c305                	beqz	a4,1928 <_vfprintf_r+0xa14>
    190a:	0585                	addi	a1,a1,1
    190c:	0b85                	addi	s7,s7,1
    190e:	d42e                	sw	a1,40(sp)
    1910:	5622                	lw	a2,40(sp)
    1912:	00064703          	lbu	a4,0(a2)
    1916:	fed712e3          	bne	a4,a3,18fa <_vfprintf_r+0x9e6>
    191a:	4696                	lw	a3,68(sp)
    191c:	018b8733          	add	a4,s7,s8
    1920:	02d70733          	mul	a4,a4,a3
    1924:	9b3a                	add	s6,s6,a4
    1926:	bbc5                	j	1716 <_vfprintf_r+0x802>
    1928:	0c05                	addi	s8,s8,1
    192a:	b7dd                	j	1910 <_vfprintf_r+0x9fc>
    192c:	000aa783          	lw	a5,0(s5)
    1930:	0a91                	addi	s5,s5,4
    1932:	d656                	sw	s5,44(sp)
    1934:	02047713          	andi	a4,s0,32
    1938:	cb11                	beqz	a4,194c <_vfprintf_r+0xa38>
    193a:	55f2                	lw	a1,60(sp)
    193c:	41f5d713          	srai	a4,a1,0x1f
    1940:	c38c                	sw	a1,0(a5)
    1942:	c3d8                	sw	a4,4(a5)
    1944:	5ab2                	lw	s5,44(sp)
    1946:	54c2                	lw	s1,48(sp)
    1948:	ee2ff06f          	j	102a <_vfprintf_r+0x116>
    194c:	01047713          	andi	a4,s0,16
    1950:	c701                	beqz	a4,1958 <_vfprintf_r+0xa44>
    1952:	5672                	lw	a2,60(sp)
    1954:	c390                	sw	a2,0(a5)
    1956:	b7fd                	j	1944 <_vfprintf_r+0xa30>
    1958:	04047713          	andi	a4,s0,64
    195c:	c709                	beqz	a4,1966 <_vfprintf_r+0xa52>
    195e:	5772                	lw	a4,60(sp)
    1960:	00e79023          	sh	a4,0(a5)
    1964:	b7c5                	j	1944 <_vfprintf_r+0xa30>
    1966:	20047413          	andi	s0,s0,512
    196a:	c409                	beqz	s0,1974 <_vfprintf_r+0xa60>
    196c:	5772                	lw	a4,60(sp)
    196e:	00e78023          	sb	a4,0(a5)
    1972:	bfc9                	j	1944 <_vfprintf_r+0xa30>
    1974:	56f2                	lw	a3,60(sp)
    1976:	c394                	sw	a3,0(a5)
    1978:	b7f1                	j	1944 <_vfprintf_r+0xa30>
    197a:	01046413          	ori	s0,s0,16
    197e:	02047793          	andi	a5,s0,32
    1982:	c3a1                	beqz	a5,19c2 <_vfprintf_r+0xaae>
    1984:	0a9d                	addi	s5,s5,7
    1986:	ff8afa93          	andi	s5,s5,-8
    198a:	008a8713          	addi	a4,s5,8
    198e:	000aac83          	lw	s9,0(s5)
    1992:	004aac03          	lw	s8,4(s5)
    1996:	d63a                	sw	a4,44(sp)
    1998:	bff47413          	andi	s0,s0,-1025
    199c:	4781                	li	a5,0
    199e:	0a010ba3          	sb	zero,183(sp)
    19a2:	577d                	li	a4,-1
    19a4:	30eb0463          	beq	s6,a4,1cac <_vfprintf_r+0xd98>
    19a8:	8722                	mv	a4,s0
    19aa:	018ce6b3          	or	a3,s9,s8
    19ae:	f7f47413          	andi	s0,s0,-129
    19b2:	2e069d63          	bnez	a3,1cac <_vfprintf_r+0xd98>
    19b6:	400b0363          	beqz	s6,1dbc <_vfprintf_r+0xea8>
    19ba:	4705                	li	a4,1
    19bc:	2ee79b63          	bne	a5,a4,1cb2 <_vfprintf_r+0xd9e>
    19c0:	b0d9                	j	1286 <_vfprintf_r+0x372>
    19c2:	004a8793          	addi	a5,s5,4
    19c6:	d63e                	sw	a5,44(sp)
    19c8:	01047793          	andi	a5,s0,16
    19cc:	c781                	beqz	a5,19d4 <_vfprintf_r+0xac0>
    19ce:	000aac83          	lw	s9,0(s5)
    19d2:	a031                	j	19de <_vfprintf_r+0xaca>
    19d4:	04047793          	andi	a5,s0,64
    19d8:	c789                	beqz	a5,19e2 <_vfprintf_r+0xace>
    19da:	000adc83          	lhu	s9,0(s5)
    19de:	4c01                	li	s8,0
    19e0:	bf65                	j	1998 <_vfprintf_r+0xa84>
    19e2:	20047793          	andi	a5,s0,512
    19e6:	d7e5                	beqz	a5,19ce <_vfprintf_r+0xaba>
    19e8:	000acc83          	lbu	s9,0(s5)
    19ec:	bfcd                	j	19de <_vfprintf_r+0xaca>
    19ee:	77e1                	lui	a5,0xffff8
    19f0:	8307c793          	xori	a5,a5,-2000
    19f4:	0af11c23          	sh	a5,184(sp)
    19f8:	0000d7b7          	lui	a5,0xd
    19fc:	b0078793          	addi	a5,a5,-1280 # cb00 <zeroes.4384+0x54>
    1a00:	004a8593          	addi	a1,s5,4
    1a04:	ccbe                	sw	a5,88(sp)
    1a06:	d62e                	sw	a1,44(sp)
    1a08:	000aac83          	lw	s9,0(s5)
    1a0c:	4c01                	li	s8,0
    1a0e:	00246413          	ori	s0,s0,2
    1a12:	4789                	li	a5,2
    1a14:	07800d13          	li	s10,120
    1a18:	b759                	j	199e <_vfprintf_r+0xa8a>
    1a1a:	004a8613          	addi	a2,s5,4
    1a1e:	d632                	sw	a2,44(sp)
    1a20:	0a010ba3          	sb	zero,183(sp)
    1a24:	57fd                	li	a5,-1
    1a26:	000aa483          	lw	s1,0(s5)
    1a2a:	02fb0063          	beq	s6,a5,1a4a <_vfprintf_r+0xb36>
    1a2e:	865a                	mv	a2,s6
    1a30:	4581                	li	a1,0
    1a32:	8526                	mv	a0,s1
    1a34:	c246                	sw	a7,4(sp)
    1a36:	430030ef          	jal	ra,4e66 <memchr>
    1a3a:	d22a                	sw	a0,36(sp)
    1a3c:	4892                	lw	a7,4(sp)
    1a3e:	900503e3          	beqz	a0,1344 <_vfprintf_r+0x430>
    1a42:	40950b33          	sub	s6,a0,s1
    1a46:	d202                	sw	zero,36(sp)
    1a48:	b8f5                	j	1344 <_vfprintf_r+0x430>
    1a4a:	8526                	mv	a0,s1
    1a4c:	c246                	sw	a7,4(sp)
    1a4e:	cb4ff0ef          	jal	ra,f02 <strlen>
    1a52:	4892                	lw	a7,4(sp)
    1a54:	8b2a                	mv	s6,a0
    1a56:	d202                	sw	zero,36(sp)
    1a58:	4a81                	li	s5,0
    1a5a:	4c01                	li	s8,0
    1a5c:	4b81                	li	s7,0
    1a5e:	4c81                	li	s9,0
    1a60:	da56                	sw	s5,52(sp)
    1a62:	016ad363          	ble	s6,s5,1a68 <_vfprintf_r+0xb54>
    1a66:	da5a                	sw	s6,52(sp)
    1a68:	0b714703          	lbu	a4,183(sp)
    1a6c:	c701                	beqz	a4,1a74 <_vfprintf_r+0xb60>
    1a6e:	5752                	lw	a4,52(sp)
    1a70:	0705                	addi	a4,a4,1
    1a72:	da3a                	sw	a4,52(sp)
    1a74:	00247d93          	andi	s11,s0,2
    1a78:	000d8563          	beqz	s11,1a82 <_vfprintf_r+0xb6e>
    1a7c:	57d2                	lw	a5,52(sp)
    1a7e:	0789                	addi	a5,a5,2
    1a80:	da3e                	sw	a5,52(sp)
    1a82:	08447693          	andi	a3,s0,132
    1a86:	c6b6                	sw	a3,76(sp)
    1a88:	e6b9                	bnez	a3,1ad6 <_vfprintf_r+0xbc2>
    1a8a:	4786                	lw	a5,64(sp)
    1a8c:	56d2                	lw	a3,52(sp)
    1a8e:	40d78733          	sub	a4,a5,a3
    1a92:	04e05263          	blez	a4,1ad6 <_vfprintf_r+0xbc2>
    1a96:	6e35                	lui	t3,0xd
    1a98:	4ec1                	li	t4,16
    1a9a:	a9ce0e13          	addi	t3,t3,-1380 # ca9c <blanks.4383>
    1a9e:	4f1d                	li	t5,7
    1aa0:	46ee                	lw	a3,216(sp)
    1aa2:	01c8a023          	sw	t3,0(a7)
    1aa6:	467e                	lw	a2,220(sp)
    1aa8:	0685                	addi	a3,a3,1
    1aaa:	00888593          	addi	a1,a7,8
    1aae:	32eecb63          	blt	t4,a4,1de4 <_vfprintf_r+0xed0>
    1ab2:	00e8a223          	sw	a4,4(a7)
    1ab6:	9732                	add	a4,a4,a2
    1ab8:	cfba                	sw	a4,220(sp)
    1aba:	cdb6                	sw	a3,216(sp)
    1abc:	471d                	li	a4,7
    1abe:	88ae                	mv	a7,a1
    1ac0:	00d75b63          	ble	a3,a4,1ad6 <_vfprintf_r+0xbc2>
    1ac4:	09d0                	addi	a2,sp,212
    1ac6:	85ca                	mv	a1,s2
    1ac8:	854e                	mv	a0,s3
    1aca:	2fb050ef          	jal	ra,75c4 <__sprint_r>
    1ace:	240513e3          	bnez	a0,2514 <_vfprintf_r+0x1600>
    1ad2:	0fc10893          	addi	a7,sp,252
    1ad6:	0b714703          	lbu	a4,183(sp)
    1ada:	cb1d                	beqz	a4,1b10 <_vfprintf_r+0xbfc>
    1adc:	0b710713          	addi	a4,sp,183
    1ae0:	00e8a023          	sw	a4,0(a7)
    1ae4:	4705                	li	a4,1
    1ae6:	00e8a223          	sw	a4,4(a7)
    1aea:	477e                	lw	a4,220(sp)
    1aec:	469d                	li	a3,7
    1aee:	0705                	addi	a4,a4,1
    1af0:	cfba                	sw	a4,220(sp)
    1af2:	476e                	lw	a4,216(sp)
    1af4:	08a1                	addi	a7,a7,8
    1af6:	0705                	addi	a4,a4,1
    1af8:	cdba                	sw	a4,216(sp)
    1afa:	00e6db63          	ble	a4,a3,1b10 <_vfprintf_r+0xbfc>
    1afe:	09d0                	addi	a2,sp,212
    1b00:	85ca                	mv	a1,s2
    1b02:	854e                	mv	a0,s3
    1b04:	2c1050ef          	jal	ra,75c4 <__sprint_r>
    1b08:	200516e3          	bnez	a0,2514 <_vfprintf_r+0x1600>
    1b0c:	0fc10893          	addi	a7,sp,252
    1b10:	020d8b63          	beqz	s11,1b46 <_vfprintf_r+0xc32>
    1b14:	1938                	addi	a4,sp,184
    1b16:	00e8a023          	sw	a4,0(a7)
    1b1a:	4709                	li	a4,2
    1b1c:	00e8a223          	sw	a4,4(a7)
    1b20:	477e                	lw	a4,220(sp)
    1b22:	469d                	li	a3,7
    1b24:	0709                	addi	a4,a4,2
    1b26:	cfba                	sw	a4,220(sp)
    1b28:	476e                	lw	a4,216(sp)
    1b2a:	08a1                	addi	a7,a7,8
    1b2c:	0705                	addi	a4,a4,1
    1b2e:	cdba                	sw	a4,216(sp)
    1b30:	00e6db63          	ble	a4,a3,1b46 <_vfprintf_r+0xc32>
    1b34:	09d0                	addi	a2,sp,212
    1b36:	85ca                	mv	a1,s2
    1b38:	854e                	mv	a0,s3
    1b3a:	28b050ef          	jal	ra,75c4 <__sprint_r>
    1b3e:	1c051be3          	bnez	a0,2514 <_vfprintf_r+0x1600>
    1b42:	0fc10893          	addi	a7,sp,252
    1b46:	47b6                	lw	a5,76(sp)
    1b48:	08000713          	li	a4,128
    1b4c:	04e79863          	bne	a5,a4,1b9c <_vfprintf_r+0xc88>
    1b50:	4586                	lw	a1,64(sp)
    1b52:	56d2                	lw	a3,52(sp)
    1b54:	40d58db3          	sub	s11,a1,a3
    1b58:	05b05263          	blez	s11,1b9c <_vfprintf_r+0xc88>
    1b5c:	47c1                	li	a5,16
    1b5e:	4e1d                	li	t3,7
    1b60:	476e                	lw	a4,216(sp)
    1b62:	46fe                	lw	a3,220(sp)
    1b64:	0705                	addi	a4,a4,1
    1b66:	00888613          	addi	a2,a7,8
    1b6a:	2bb7c763          	blt	a5,s11,1e18 <_vfprintf_r+0xf04>
    1b6e:	67b5                	lui	a5,0xd
    1b70:	01b8a223          	sw	s11,4(a7)
    1b74:	aac78793          	addi	a5,a5,-1364 # caac <zeroes.4384>
    1b78:	9db6                	add	s11,s11,a3
    1b7a:	00f8a023          	sw	a5,0(a7)
    1b7e:	cfee                	sw	s11,220(sp)
    1b80:	cdba                	sw	a4,216(sp)
    1b82:	469d                	li	a3,7
    1b84:	88b2                	mv	a7,a2
    1b86:	00e6db63          	ble	a4,a3,1b9c <_vfprintf_r+0xc88>
    1b8a:	09d0                	addi	a2,sp,212
    1b8c:	85ca                	mv	a1,s2
    1b8e:	854e                	mv	a0,s3
    1b90:	235050ef          	jal	ra,75c4 <__sprint_r>
    1b94:	180510e3          	bnez	a0,2514 <_vfprintf_r+0x1600>
    1b98:	0fc10893          	addi	a7,sp,252
    1b9c:	416a8ab3          	sub	s5,s5,s6
    1ba0:	05505263          	blez	s5,1be4 <_vfprintf_r+0xcd0>
    1ba4:	4dc1                	li	s11,16
    1ba6:	481d                	li	a6,7
    1ba8:	476e                	lw	a4,216(sp)
    1baa:	46fe                	lw	a3,220(sp)
    1bac:	0705                	addi	a4,a4,1
    1bae:	00888613          	addi	a2,a7,8
    1bb2:	295dce63          	blt	s11,s5,1e4e <_vfprintf_r+0xf3a>
    1bb6:	67b5                	lui	a5,0xd
    1bb8:	0158a223          	sw	s5,4(a7)
    1bbc:	aac78793          	addi	a5,a5,-1364 # caac <zeroes.4384>
    1bc0:	9ab6                	add	s5,s5,a3
    1bc2:	00f8a023          	sw	a5,0(a7)
    1bc6:	cfd6                	sw	s5,220(sp)
    1bc8:	cdba                	sw	a4,216(sp)
    1bca:	469d                	li	a3,7
    1bcc:	88b2                	mv	a7,a2
    1bce:	00e6db63          	ble	a4,a3,1be4 <_vfprintf_r+0xcd0>
    1bd2:	09d0                	addi	a2,sp,212
    1bd4:	85ca                	mv	a1,s2
    1bd6:	854e                	mv	a0,s3
    1bd8:	1ed050ef          	jal	ra,75c4 <__sprint_r>
    1bdc:	12051ce3          	bnez	a0,2514 <_vfprintf_r+0x1600>
    1be0:	0fc10893          	addi	a7,sp,252
    1be4:	10047713          	andi	a4,s0,256
    1be8:	4dfe                	lw	s11,220(sp)
    1bea:	28071b63          	bnez	a4,1e80 <_vfprintf_r+0xf6c>
    1bee:	01bb0333          	add	t1,s6,s11
    1bf2:	0098a023          	sw	s1,0(a7)
    1bf6:	0168a223          	sw	s6,4(a7)
    1bfa:	cf9a                	sw	t1,220(sp)
    1bfc:	47ee                	lw	a5,216(sp)
    1bfe:	471d                	li	a4,7
    1c00:	0785                	addi	a5,a5,1
    1c02:	cdbe                	sw	a5,216(sp)
    1c04:	08a1                	addi	a7,a7,8
    1c06:	34f75a63          	ble	a5,a4,1f5a <_vfprintf_r+0x1046>
    1c0a:	09d0                	addi	a2,sp,212
    1c0c:	85ca                	mv	a1,s2
    1c0e:	854e                	mv	a0,s3
    1c10:	1b5050ef          	jal	ra,75c4 <__sprint_r>
    1c14:	100510e3          	bnez	a0,2514 <_vfprintf_r+0x1600>
    1c18:	0fc10893          	addi	a7,sp,252
    1c1c:	ae3d                	j	1f5a <_vfprintf_r+0x1046>
    1c1e:	01046413          	ori	s0,s0,16
    1c22:	02047793          	andi	a5,s0,32
    1c26:	cf89                	beqz	a5,1c40 <_vfprintf_r+0xd2c>
    1c28:	0a9d                	addi	s5,s5,7
    1c2a:	ff8afa93          	andi	s5,s5,-8
    1c2e:	008a8693          	addi	a3,s5,8
    1c32:	000aac83          	lw	s9,0(s5)
    1c36:	004aac03          	lw	s8,4(s5)
    1c3a:	d636                	sw	a3,44(sp)
    1c3c:	4785                	li	a5,1
    1c3e:	b385                	j	199e <_vfprintf_r+0xa8a>
    1c40:	004a8713          	addi	a4,s5,4
    1c44:	d63a                	sw	a4,44(sp)
    1c46:	01047793          	andi	a5,s0,16
    1c4a:	c781                	beqz	a5,1c52 <_vfprintf_r+0xd3e>
    1c4c:	000aac83          	lw	s9,0(s5)
    1c50:	a031                	j	1c5c <_vfprintf_r+0xd48>
    1c52:	04047793          	andi	a5,s0,64
    1c56:	c789                	beqz	a5,1c60 <_vfprintf_r+0xd4c>
    1c58:	000adc83          	lhu	s9,0(s5)
    1c5c:	4c01                	li	s8,0
    1c5e:	bff9                	j	1c3c <_vfprintf_r+0xd28>
    1c60:	20047793          	andi	a5,s0,512
    1c64:	d7e5                	beqz	a5,1c4c <_vfprintf_r+0xd38>
    1c66:	000acc83          	lbu	s9,0(s5)
    1c6a:	bfcd                	j	1c5c <_vfprintf_r+0xd48>
    1c6c:	0000d7b7          	lui	a5,0xd
    1c70:	b0078793          	addi	a5,a5,-1280 # cb00 <zeroes.4384+0x54>
    1c74:	c52ff06f          	j	10c6 <_vfprintf_r+0x1b2>
    1c78:	004a8593          	addi	a1,s5,4
    1c7c:	d62e                	sw	a1,44(sp)
    1c7e:	01047793          	andi	a5,s0,16
    1c82:	c781                	beqz	a5,1c8a <_vfprintf_r+0xd76>
    1c84:	000aac83          	lw	s9,0(s5)
    1c88:	a031                	j	1c94 <_vfprintf_r+0xd80>
    1c8a:	04047793          	andi	a5,s0,64
    1c8e:	c791                	beqz	a5,1c9a <_vfprintf_r+0xd86>
    1c90:	000adc83          	lhu	s9,0(s5)
    1c94:	4c01                	li	s8,0
    1c96:	c4eff06f          	j	10e4 <_vfprintf_r+0x1d0>
    1c9a:	20047793          	andi	a5,s0,512
    1c9e:	d3fd                	beqz	a5,1c84 <_vfprintf_r+0xd70>
    1ca0:	000acc83          	lbu	s9,0(s5)
    1ca4:	bfc5                	j	1c94 <_vfprintf_r+0xd80>
    1ca6:	8722                	mv	a4,s0
    1ca8:	4785                	li	a5,1
    1caa:	b301                	j	19aa <_vfprintf_r+0xa96>
    1cac:	4705                	li	a4,1
    1cae:	dce78763          	beq	a5,a4,127c <_vfprintf_r+0x368>
    1cb2:	4709                	li	a4,2
    1cb4:	0ce78e63          	beq	a5,a4,1d90 <_vfprintf_r+0xe7c>
    1cb8:	131c                	addi	a5,sp,416
    1cba:	01dc1693          	slli	a3,s8,0x1d
    1cbe:	007cf713          	andi	a4,s9,7
    1cc2:	003cdc93          	srli	s9,s9,0x3
    1cc6:	03070713          	addi	a4,a4,48
    1cca:	0196ecb3          	or	s9,a3,s9
    1cce:	003c5c13          	srli	s8,s8,0x3
    1cd2:	fee78fa3          	sb	a4,-1(a5)
    1cd6:	018ce6b3          	or	a3,s9,s8
    1cda:	fff78493          	addi	s1,a5,-1
    1cde:	e68d                	bnez	a3,1d08 <_vfprintf_r+0xdf4>
    1ce0:	00147693          	andi	a3,s0,1
    1ce4:	ca89                	beqz	a3,1cf6 <_vfprintf_r+0xde2>
    1ce6:	03000693          	li	a3,48
    1cea:	00d70663          	beq	a4,a3,1cf6 <_vfprintf_r+0xde2>
    1cee:	fed48fa3          	sb	a3,-1(s1)
    1cf2:	ffe78493          	addi	s1,a5,-2
    1cf6:	1314                	addi	a3,sp,416
    1cf8:	8ada                	mv	s5,s6
    1cfa:	d202                	sw	zero,36(sp)
    1cfc:	40968b33          	sub	s6,a3,s1
    1d00:	4c01                	li	s8,0
    1d02:	4b81                	li	s7,0
    1d04:	4c81                	li	s9,0
    1d06:	bba9                	j	1a60 <_vfprintf_r+0xb4c>
    1d08:	87a6                	mv	a5,s1
    1d0a:	bf45                	j	1cba <_vfprintf_r+0xda6>
    1d0c:	4a01                	li	s4,0
    1d0e:	1a010d93          	addi	s11,sp,416
    1d12:	40047a93          	andi	s5,s0,1024
    1d16:	4ba5                	li	s7,9
    1d18:	4629                	li	a2,10
    1d1a:	4681                	li	a3,0
    1d1c:	8566                	mv	a0,s9
    1d1e:	85e2                	mv	a1,s8
    1d20:	c246                	sw	a7,4(sp)
    1d22:	438070ef          	jal	ra,915a <__umoddi3>
    1d26:	03050513          	addi	a0,a0,48
    1d2a:	fead8fa3          	sb	a0,-1(s11)
    1d2e:	fffd8493          	addi	s1,s11,-1
    1d32:	0a05                	addi	s4,s4,1
    1d34:	4892                	lw	a7,4(sp)
    1d36:	020a8f63          	beqz	s5,1d74 <_vfprintf_r+0xe60>
    1d3a:	5622                	lw	a2,40(sp)
    1d3c:	00064783          	lbu	a5,0(a2)
    1d40:	02fa1a63          	bne	s4,a5,1d74 <_vfprintf_r+0xe60>
    1d44:	0ff00693          	li	a3,255
    1d48:	02da0663          	beq	s4,a3,1d74 <_vfprintf_r+0xe60>
    1d4c:	000c1463          	bnez	s8,1d54 <_vfprintf_r+0xe40>
    1d50:	039bf263          	bleu	s9,s7,1d74 <_vfprintf_r+0xe60>
    1d54:	4716                	lw	a4,68(sp)
    1d56:	45c6                	lw	a1,80(sp)
    1d58:	8c99                	sub	s1,s1,a4
    1d5a:	863a                	mv	a2,a4
    1d5c:	8526                	mv	a0,s1
    1d5e:	c246                	sw	a7,4(sp)
    1d60:	212040ef          	jal	ra,5f72 <strncpy>
    1d64:	55a2                	lw	a1,40(sp)
    1d66:	4a01                	li	s4,0
    1d68:	0015c783          	lbu	a5,1(a1)
    1d6c:	4892                	lw	a7,4(sp)
    1d6e:	c399                	beqz	a5,1d74 <_vfprintf_r+0xe60>
    1d70:	0585                	addi	a1,a1,1
    1d72:	d42e                	sw	a1,40(sp)
    1d74:	8566                	mv	a0,s9
    1d76:	85e2                	mv	a1,s8
    1d78:	4629                	li	a2,10
    1d7a:	4681                	li	a3,0
    1d7c:	c246                	sw	a7,4(sp)
    1d7e:	082070ef          	jal	ra,8e00 <__udivdi3>
    1d82:	8c2e                	mv	s8,a1
    1d84:	8dc9                	or	a1,a1,a0
    1d86:	8caa                	mv	s9,a0
    1d88:	4892                	lw	a7,4(sp)
    1d8a:	d5b5                	beqz	a1,1cf6 <_vfprintf_r+0xde2>
    1d8c:	8da6                	mv	s11,s1
    1d8e:	b769                	j	1d18 <_vfprintf_r+0xe04>
    1d90:	1304                	addi	s1,sp,416
    1d92:	4666                	lw	a2,88(sp)
    1d94:	00fcf793          	andi	a5,s9,15
    1d98:	97b2                	add	a5,a5,a2
    1d9a:	0007c783          	lbu	a5,0(a5)
    1d9e:	14fd                	addi	s1,s1,-1
    1da0:	00f48023          	sb	a5,0(s1)
    1da4:	004cdc93          	srli	s9,s9,0x4
    1da8:	01cc1793          	slli	a5,s8,0x1c
    1dac:	0197ecb3          	or	s9,a5,s9
    1db0:	004c5c13          	srli	s8,s8,0x4
    1db4:	018ce7b3          	or	a5,s9,s8
    1db8:	ffe9                	bnez	a5,1d92 <_vfprintf_r+0xe7e>
    1dba:	bf35                	j	1cf6 <_vfprintf_r+0xde2>
    1dbc:	1304                	addi	s1,sp,416
    1dbe:	ff85                	bnez	a5,1cf6 <_vfprintf_r+0xde2>
    1dc0:	8b05                	andi	a4,a4,1
    1dc2:	db15                	beqz	a4,1cf6 <_vfprintf_r+0xde2>
    1dc4:	03000793          	li	a5,48
    1dc8:	18f10fa3          	sb	a5,415(sp)
    1dcc:	cc2ff06f          	j	128e <_vfprintf_r+0x37a>
    1dd0:	780d0363          	beqz	s10,2556 <_vfprintf_r+0x1642>
    1dd4:	87ea                	mv	a5,s10
    1dd6:	12f10e23          	sb	a5,316(sp)
    1dda:	0a010ba3          	sb	zero,183(sp)
    1dde:	d656                	sw	s5,44(sp)
    1de0:	c4aff06f          	j	122a <_vfprintf_r+0x316>
    1de4:	0641                	addi	a2,a2,16
    1de6:	01d8a223          	sw	t4,4(a7)
    1dea:	cfb2                	sw	a2,220(sp)
    1dec:	cdb6                	sw	a3,216(sp)
    1dee:	02df5263          	ble	a3,t5,1e12 <_vfprintf_r+0xefe>
    1df2:	09d0                	addi	a2,sp,212
    1df4:	85ca                	mv	a1,s2
    1df6:	854e                	mv	a0,s3
    1df8:	d03a                	sw	a4,32(sp)
    1dfa:	c472                	sw	t3,8(sp)
    1dfc:	c676                	sw	t4,12(sp)
    1dfe:	c87a                	sw	t5,16(sp)
    1e00:	7c4050ef          	jal	ra,75c4 <__sprint_r>
    1e04:	5702                	lw	a4,32(sp)
    1e06:	4e22                	lw	t3,8(sp)
    1e08:	4eb2                	lw	t4,12(sp)
    1e0a:	4f42                	lw	t5,16(sp)
    1e0c:	70051463          	bnez	a0,2514 <_vfprintf_r+0x1600>
    1e10:	19ec                	addi	a1,sp,252
    1e12:	1741                	addi	a4,a4,-16
    1e14:	88ae                	mv	a7,a1
    1e16:	b169                	j	1aa0 <_vfprintf_r+0xb8c>
    1e18:	65b5                	lui	a1,0xd
    1e1a:	aac58593          	addi	a1,a1,-1364 # caac <zeroes.4384>
    1e1e:	06c1                	addi	a3,a3,16
    1e20:	00b8a023          	sw	a1,0(a7)
    1e24:	00f8a223          	sw	a5,4(a7)
    1e28:	cfb6                	sw	a3,220(sp)
    1e2a:	cdba                	sw	a4,216(sp)
    1e2c:	00ee5e63          	ble	a4,t3,1e48 <_vfprintf_r+0xf34>
    1e30:	09d0                	addi	a2,sp,212
    1e32:	85ca                	mv	a1,s2
    1e34:	854e                	mv	a0,s3
    1e36:	d03e                	sw	a5,32(sp)
    1e38:	c472                	sw	t3,8(sp)
    1e3a:	78a050ef          	jal	ra,75c4 <__sprint_r>
    1e3e:	5782                	lw	a5,32(sp)
    1e40:	4e22                	lw	t3,8(sp)
    1e42:	6c051963          	bnez	a0,2514 <_vfprintf_r+0x1600>
    1e46:	19f0                	addi	a2,sp,252
    1e48:	1dc1                	addi	s11,s11,-16
    1e4a:	88b2                	mv	a7,a2
    1e4c:	bb11                	j	1b60 <_vfprintf_r+0xc4c>
    1e4e:	65b5                	lui	a1,0xd
    1e50:	aac58593          	addi	a1,a1,-1364 # caac <zeroes.4384>
    1e54:	06c1                	addi	a3,a3,16
    1e56:	00b8a023          	sw	a1,0(a7)
    1e5a:	01b8a223          	sw	s11,4(a7)
    1e5e:	cfb6                	sw	a3,220(sp)
    1e60:	cdba                	sw	a4,216(sp)
    1e62:	00e85c63          	ble	a4,a6,1e7a <_vfprintf_r+0xf66>
    1e66:	09d0                	addi	a2,sp,212
    1e68:	85ca                	mv	a1,s2
    1e6a:	854e                	mv	a0,s3
    1e6c:	ca42                	sw	a6,20(sp)
    1e6e:	756050ef          	jal	ra,75c4 <__sprint_r>
    1e72:	4852                	lw	a6,20(sp)
    1e74:	6a051063          	bnez	a0,2514 <_vfprintf_r+0x1600>
    1e78:	19f0                	addi	a2,sp,252
    1e7a:	1ac1                	addi	s5,s5,-16
    1e7c:	88b2                	mv	a7,a2
    1e7e:	b32d                	j	1ba8 <_vfprintf_r+0xc94>
    1e80:	06500713          	li	a4,101
    1e84:	4fa75b63          	ble	s10,a4,237a <_vfprintf_r+0x1466>
    1e88:	570e                	lw	a4,224(sp)
    1e8a:	090c                	addi	a1,sp,144
    1e8c:	d13a                	sw	a4,160(sp)
    1e8e:	571e                	lw	a4,228(sp)
    1e90:	1108                	addi	a0,sp,160
    1e92:	d33a                	sw	a4,164(sp)
    1e94:	572e                	lw	a4,232(sp)
    1e96:	c246                	sw	a7,4(sp)
    1e98:	d53a                	sw	a4,168(sp)
    1e9a:	573e                	lw	a4,236(sp)
    1e9c:	c902                	sw	zero,144(sp)
    1e9e:	d73a                	sw	a4,172(sp)
    1ea0:	cb02                	sw	zero,148(sp)
    1ea2:	cd02                	sw	zero,152(sp)
    1ea4:	cf02                	sw	zero,156(sp)
    1ea6:	79d070ef          	jal	ra,9e42 <__eqtf2>
    1eaa:	4892                	lw	a7,4(sp)
    1eac:	10051963          	bnez	a0,1fbe <_vfprintf_r+0x10aa>
    1eb0:	0000d7b7          	lui	a5,0xd
    1eb4:	b2878793          	addi	a5,a5,-1240 # cb28 <zeroes.4384+0x7c>
    1eb8:	00f8a023          	sw	a5,0(a7)
    1ebc:	4785                	li	a5,1
    1ebe:	00f8a223          	sw	a5,4(a7)
    1ec2:	47ee                	lw	a5,216(sp)
    1ec4:	0d85                	addi	s11,s11,1
    1ec6:	0785                	addi	a5,a5,1
    1ec8:	cfee                	sw	s11,220(sp)
    1eca:	cdbe                	sw	a5,216(sp)
    1ecc:	471d                	li	a4,7
    1ece:	08a1                	addi	a7,a7,8
    1ed0:	00f75b63          	ble	a5,a4,1ee6 <_vfprintf_r+0xfd2>
    1ed4:	09d0                	addi	a2,sp,212
    1ed6:	85ca                	mv	a1,s2
    1ed8:	854e                	mv	a0,s3
    1eda:	6ea050ef          	jal	ra,75c4 <__sprint_r>
    1ede:	62051b63          	bnez	a0,2514 <_vfprintf_r+0x1600>
    1ee2:	0fc10893          	addi	a7,sp,252
    1ee6:	57fa                	lw	a5,188(sp)
    1ee8:	0147c563          	blt	a5,s4,1ef2 <_vfprintf_r+0xfde>
    1eec:	00147793          	andi	a5,s0,1
    1ef0:	c7ad                	beqz	a5,1f5a <_vfprintf_r+0x1046>
    1ef2:	5662                	lw	a2,56(sp)
    1ef4:	47fe                	lw	a5,220(sp)
    1ef6:	45a6                	lw	a1,72(sp)
    1ef8:	97b2                	add	a5,a5,a2
    1efa:	cfbe                	sw	a5,220(sp)
    1efc:	47ee                	lw	a5,216(sp)
    1efe:	00b8a023          	sw	a1,0(a7)
    1f02:	0785                	addi	a5,a5,1
    1f04:	00c8a223          	sw	a2,4(a7)
    1f08:	cdbe                	sw	a5,216(sp)
    1f0a:	471d                	li	a4,7
    1f0c:	08a1                	addi	a7,a7,8
    1f0e:	00f75b63          	ble	a5,a4,1f24 <_vfprintf_r+0x1010>
    1f12:	09d0                	addi	a2,sp,212
    1f14:	85ca                	mv	a1,s2
    1f16:	854e                	mv	a0,s3
    1f18:	6ac050ef          	jal	ra,75c4 <__sprint_r>
    1f1c:	5e051c63          	bnez	a0,2514 <_vfprintf_r+0x1600>
    1f20:	0fc10893          	addi	a7,sp,252
    1f24:	fffa0493          	addi	s1,s4,-1
    1f28:	02905963          	blez	s1,1f5a <_vfprintf_r+0x1046>
    1f2c:	4ac1                	li	s5,16
    1f2e:	4b9d                	li	s7,7
    1f30:	47ee                	lw	a5,216(sp)
    1f32:	477e                	lw	a4,220(sp)
    1f34:	0785                	addi	a5,a5,1
    1f36:	00888693          	addi	a3,a7,8
    1f3a:	049acb63          	blt	s5,s1,1f90 <_vfprintf_r+0x107c>
    1f3e:	6635                	lui	a2,0xd
    1f40:	aac60613          	addi	a2,a2,-1364 # caac <zeroes.4384>
    1f44:	0098a223          	sw	s1,4(a7)
    1f48:	00c8a023          	sw	a2,0(a7)
    1f4c:	94ba                	add	s1,s1,a4
    1f4e:	cfa6                	sw	s1,220(sp)
    1f50:	cdbe                	sw	a5,216(sp)
    1f52:	471d                	li	a4,7
    1f54:	88b6                	mv	a7,a3
    1f56:	caf74ae3          	blt	a4,a5,1c0a <_vfprintf_r+0xcf6>
    1f5a:	8811                	andi	s0,s0,4
    1f5c:	56041b63          	bnez	s0,24d2 <_vfprintf_r+0x15be>
    1f60:	4d06                	lw	s10,64(sp)
    1f62:	5752                	lw	a4,52(sp)
    1f64:	00ed5363          	ble	a4,s10,1f6a <_vfprintf_r+0x1056>
    1f68:	8d3a                	mv	s10,a4
    1f6a:	57f2                	lw	a5,60(sp)
    1f6c:	97ea                	add	a5,a5,s10
    1f6e:	de3e                	sw	a5,60(sp)
    1f70:	47fe                	lw	a5,220(sp)
    1f72:	cb81                	beqz	a5,1f82 <_vfprintf_r+0x106e>
    1f74:	09d0                	addi	a2,sp,212
    1f76:	85ca                	mv	a1,s2
    1f78:	854e                	mv	a0,s3
    1f7a:	64a050ef          	jal	ra,75c4 <__sprint_r>
    1f7e:	58051b63          	bnez	a0,2514 <_vfprintf_r+0x1600>
    1f82:	5712                	lw	a4,36(sp)
    1f84:	cd82                	sw	zero,216(sp)
    1f86:	5c071363          	bnez	a4,254c <_vfprintf_r+0x1638>
    1f8a:	0fc10893          	addi	a7,sp,252
    1f8e:	ba5d                	j	1944 <_vfprintf_r+0xa30>
    1f90:	65b5                	lui	a1,0xd
    1f92:	aac58593          	addi	a1,a1,-1364 # caac <zeroes.4384>
    1f96:	0741                	addi	a4,a4,16
    1f98:	00b8a023          	sw	a1,0(a7)
    1f9c:	0158a223          	sw	s5,4(a7)
    1fa0:	cfba                	sw	a4,220(sp)
    1fa2:	cdbe                	sw	a5,216(sp)
    1fa4:	00fbda63          	ble	a5,s7,1fb8 <_vfprintf_r+0x10a4>
    1fa8:	09d0                	addi	a2,sp,212
    1faa:	85ca                	mv	a1,s2
    1fac:	854e                	mv	a0,s3
    1fae:	616050ef          	jal	ra,75c4 <__sprint_r>
    1fb2:	56051163          	bnez	a0,2514 <_vfprintf_r+0x1600>
    1fb6:	19f4                	addi	a3,sp,252
    1fb8:	14c1                	addi	s1,s1,-16
    1fba:	88b6                	mv	a7,a3
    1fbc:	bf95                	j	1f30 <_vfprintf_r+0x101c>
    1fbe:	577a                	lw	a4,188(sp)
    1fc0:	0ee04f63          	bgtz	a4,20be <_vfprintf_r+0x11aa>
    1fc4:	0000d7b7          	lui	a5,0xd
    1fc8:	b2878793          	addi	a5,a5,-1240 # cb28 <zeroes.4384+0x7c>
    1fcc:	00f8a023          	sw	a5,0(a7)
    1fd0:	4785                	li	a5,1
    1fd2:	00f8a223          	sw	a5,4(a7)
    1fd6:	47ee                	lw	a5,216(sp)
    1fd8:	0d85                	addi	s11,s11,1
    1fda:	0785                	addi	a5,a5,1
    1fdc:	cfee                	sw	s11,220(sp)
    1fde:	cdbe                	sw	a5,216(sp)
    1fe0:	471d                	li	a4,7
    1fe2:	08a1                	addi	a7,a7,8
    1fe4:	00f75b63          	ble	a5,a4,1ffa <_vfprintf_r+0x10e6>
    1fe8:	09d0                	addi	a2,sp,212
    1fea:	85ca                	mv	a1,s2
    1fec:	854e                	mv	a0,s3
    1fee:	5d6050ef          	jal	ra,75c4 <__sprint_r>
    1ff2:	52051163          	bnez	a0,2514 <_vfprintf_r+0x1600>
    1ff6:	0fc10893          	addi	a7,sp,252
    1ffa:	57fa                	lw	a5,188(sp)
    1ffc:	e791                	bnez	a5,2008 <_vfprintf_r+0x10f4>
    1ffe:	000a1563          	bnez	s4,2008 <_vfprintf_r+0x10f4>
    2002:	00147793          	andi	a5,s0,1
    2006:	dbb1                	beqz	a5,1f5a <_vfprintf_r+0x1046>
    2008:	5762                	lw	a4,56(sp)
    200a:	47fe                	lw	a5,220(sp)
    200c:	46a6                	lw	a3,72(sp)
    200e:	97ba                	add	a5,a5,a4
    2010:	cfbe                	sw	a5,220(sp)
    2012:	47ee                	lw	a5,216(sp)
    2014:	00e8a223          	sw	a4,4(a7)
    2018:	0785                	addi	a5,a5,1
    201a:	00d8a023          	sw	a3,0(a7)
    201e:	cdbe                	sw	a5,216(sp)
    2020:	471d                	li	a4,7
    2022:	08a1                	addi	a7,a7,8
    2024:	00f75b63          	ble	a5,a4,203a <_vfprintf_r+0x1126>
    2028:	09d0                	addi	a2,sp,212
    202a:	85ca                	mv	a1,s2
    202c:	854e                	mv	a0,s3
    202e:	596050ef          	jal	ra,75c4 <__sprint_r>
    2032:	4e051163          	bnez	a0,2514 <_vfprintf_r+0x1600>
    2036:	0fc10893          	addi	a7,sp,252
    203a:	5afa                	lw	s5,188(sp)
    203c:	040ad263          	bgez	s5,2080 <_vfprintf_r+0x116c>
    2040:	41500ab3          	neg	s5,s5
    2044:	8746                	mv	a4,a7
    2046:	4bc1                	li	s7,16
    2048:	4c1d                	li	s8,7
    204a:	47ee                	lw	a5,216(sp)
    204c:	46fe                	lw	a3,220(sp)
    204e:	0785                	addi	a5,a5,1
    2050:	08a1                	addi	a7,a7,8
    2052:	035bcf63          	blt	s7,s5,2090 <_vfprintf_r+0x117c>
    2056:	6635                	lui	a2,0xd
    2058:	01572223          	sw	s5,4(a4)
    205c:	aac60613          	addi	a2,a2,-1364 # caac <zeroes.4384>
    2060:	9ab6                	add	s5,s5,a3
    2062:	c310                	sw	a2,0(a4)
    2064:	cfd6                	sw	s5,220(sp)
    2066:	cdbe                	sw	a5,216(sp)
    2068:	471d                	li	a4,7
    206a:	00f75b63          	ble	a5,a4,2080 <_vfprintf_r+0x116c>
    206e:	09d0                	addi	a2,sp,212
    2070:	85ca                	mv	a1,s2
    2072:	854e                	mv	a0,s3
    2074:	550050ef          	jal	ra,75c4 <__sprint_r>
    2078:	48051e63          	bnez	a0,2514 <_vfprintf_r+0x1600>
    207c:	0fc10893          	addi	a7,sp,252
    2080:	47fe                	lw	a5,220(sp)
    2082:	0098a023          	sw	s1,0(a7)
    2086:	97d2                	add	a5,a5,s4
    2088:	0148a223          	sw	s4,4(a7)
    208c:	cfbe                	sw	a5,220(sp)
    208e:	b6bd                	j	1bfc <_vfprintf_r+0xce8>
    2090:	65b5                	lui	a1,0xd
    2092:	aac58593          	addi	a1,a1,-1364 # caac <zeroes.4384>
    2096:	06c1                	addi	a3,a3,16
    2098:	c30c                	sw	a1,0(a4)
    209a:	01772223          	sw	s7,4(a4)
    209e:	cfb6                	sw	a3,220(sp)
    20a0:	cdbe                	sw	a5,216(sp)
    20a2:	00fc5b63          	ble	a5,s8,20b8 <_vfprintf_r+0x11a4>
    20a6:	09d0                	addi	a2,sp,212
    20a8:	85ca                	mv	a1,s2
    20aa:	854e                	mv	a0,s3
    20ac:	518050ef          	jal	ra,75c4 <__sprint_r>
    20b0:	46051263          	bnez	a0,2514 <_vfprintf_r+0x1600>
    20b4:	0fc10893          	addi	a7,sp,252
    20b8:	1ac1                	addi	s5,s5,-16
    20ba:	8746                	mv	a4,a7
    20bc:	b779                	j	204a <_vfprintf_r+0x1136>
    20be:	8ae6                	mv	s5,s9
    20c0:	019a5363          	ble	s9,s4,20c6 <_vfprintf_r+0x11b2>
    20c4:	8ad2                	mv	s5,s4
    20c6:	03505863          	blez	s5,20f6 <_vfprintf_r+0x11e2>
    20ca:	476e                	lw	a4,216(sp)
    20cc:	9dd6                	add	s11,s11,s5
    20ce:	0705                	addi	a4,a4,1
    20d0:	0098a023          	sw	s1,0(a7)
    20d4:	0158a223          	sw	s5,4(a7)
    20d8:	cfee                	sw	s11,220(sp)
    20da:	cdba                	sw	a4,216(sp)
    20dc:	469d                	li	a3,7
    20de:	08a1                	addi	a7,a7,8
    20e0:	00e6db63          	ble	a4,a3,20f6 <_vfprintf_r+0x11e2>
    20e4:	09d0                	addi	a2,sp,212
    20e6:	85ca                	mv	a1,s2
    20e8:	854e                	mv	a0,s3
    20ea:	4da050ef          	jal	ra,75c4 <__sprint_r>
    20ee:	42051363          	bnez	a0,2514 <_vfprintf_r+0x1600>
    20f2:	0fc10893          	addi	a7,sp,252
    20f6:	000ad363          	bgez	s5,20fc <_vfprintf_r+0x11e8>
    20fa:	4a81                	li	s5,0
    20fc:	415c8ab3          	sub	s5,s9,s5
    2100:	05505263          	blez	s5,2144 <_vfprintf_r+0x1230>
    2104:	4d41                	li	s10,16
    2106:	4d9d                	li	s11,7
    2108:	476e                	lw	a4,216(sp)
    210a:	46fe                	lw	a3,220(sp)
    210c:	0705                	addi	a4,a4,1
    210e:	00888613          	addi	a2,a7,8
    2112:	135d4563          	blt	s10,s5,223c <_vfprintf_r+0x1328>
    2116:	65b5                	lui	a1,0xd
    2118:	0158a223          	sw	s5,4(a7)
    211c:	aac58593          	addi	a1,a1,-1364 # caac <zeroes.4384>
    2120:	9ab6                	add	s5,s5,a3
    2122:	00b8a023          	sw	a1,0(a7)
    2126:	cfd6                	sw	s5,220(sp)
    2128:	cdba                	sw	a4,216(sp)
    212a:	469d                	li	a3,7
    212c:	88b2                	mv	a7,a2
    212e:	00e6db63          	ble	a4,a3,2144 <_vfprintf_r+0x1230>
    2132:	09d0                	addi	a2,sp,212
    2134:	85ca                	mv	a1,s2
    2136:	854e                	mv	a0,s3
    2138:	48c050ef          	jal	ra,75c4 <__sprint_r>
    213c:	3c051c63          	bnez	a0,2514 <_vfprintf_r+0x1600>
    2140:	0fc10893          	addi	a7,sp,252
    2144:	40047793          	andi	a5,s0,1024
    2148:	01948ab3          	add	s5,s1,s9
    214c:	cf89                	beqz	a5,2166 <_vfprintf_r+0x1252>
    214e:	4d1d                	li	s10,7
    2150:	01448db3          	add	s11,s1,s4
    2154:	100b9b63          	bnez	s7,226a <_vfprintf_r+0x1356>
    2158:	100c1b63          	bnez	s8,226e <_vfprintf_r+0x135a>
    215c:	014487b3          	add	a5,s1,s4
    2160:	0157f363          	bleu	s5,a5,2166 <_vfprintf_r+0x1252>
    2164:	8abe                	mv	s5,a5
    2166:	57fa                	lw	a5,188(sp)
    2168:	0147c563          	blt	a5,s4,2172 <_vfprintf_r+0x125e>
    216c:	00147793          	andi	a5,s0,1
    2170:	cb95                	beqz	a5,21a4 <_vfprintf_r+0x1290>
    2172:	5762                	lw	a4,56(sp)
    2174:	47fe                	lw	a5,220(sp)
    2176:	46a6                	lw	a3,72(sp)
    2178:	97ba                	add	a5,a5,a4
    217a:	cfbe                	sw	a5,220(sp)
    217c:	47ee                	lw	a5,216(sp)
    217e:	00e8a223          	sw	a4,4(a7)
    2182:	0785                	addi	a5,a5,1
    2184:	00d8a023          	sw	a3,0(a7)
    2188:	cdbe                	sw	a5,216(sp)
    218a:	471d                	li	a4,7
    218c:	08a1                	addi	a7,a7,8
    218e:	00f75b63          	ble	a5,a4,21a4 <_vfprintf_r+0x1290>
    2192:	09d0                	addi	a2,sp,212
    2194:	85ca                	mv	a1,s2
    2196:	854e                	mv	a0,s3
    2198:	42c050ef          	jal	ra,75c4 <__sprint_r>
    219c:	36051c63          	bnez	a0,2514 <_vfprintf_r+0x1600>
    21a0:	0fc10893          	addi	a7,sp,252
    21a4:	94d2                	add	s1,s1,s4
    21a6:	415487b3          	sub	a5,s1,s5
    21aa:	54fa                	lw	s1,188(sp)
    21ac:	409a04b3          	sub	s1,s4,s1
    21b0:	0097d363          	ble	s1,a5,21b6 <_vfprintf_r+0x12a2>
    21b4:	84be                	mv	s1,a5
    21b6:	02905963          	blez	s1,21e8 <_vfprintf_r+0x12d4>
    21ba:	47fe                	lw	a5,220(sp)
    21bc:	0158a023          	sw	s5,0(a7)
    21c0:	97a6                	add	a5,a5,s1
    21c2:	cfbe                	sw	a5,220(sp)
    21c4:	47ee                	lw	a5,216(sp)
    21c6:	0098a223          	sw	s1,4(a7)
    21ca:	0785                	addi	a5,a5,1
    21cc:	cdbe                	sw	a5,216(sp)
    21ce:	471d                	li	a4,7
    21d0:	08a1                	addi	a7,a7,8
    21d2:	00f75b63          	ble	a5,a4,21e8 <_vfprintf_r+0x12d4>
    21d6:	09d0                	addi	a2,sp,212
    21d8:	85ca                	mv	a1,s2
    21da:	854e                	mv	a0,s3
    21dc:	3e8050ef          	jal	ra,75c4 <__sprint_r>
    21e0:	32051a63          	bnez	a0,2514 <_vfprintf_r+0x1600>
    21e4:	0fc10893          	addi	a7,sp,252
    21e8:	87a6                	mv	a5,s1
    21ea:	0004d363          	bgez	s1,21f0 <_vfprintf_r+0x12dc>
    21ee:	4781                	li	a5,0
    21f0:	54fa                	lw	s1,188(sp)
    21f2:	409a04b3          	sub	s1,s4,s1
    21f6:	8c9d                	sub	s1,s1,a5
    21f8:	d69051e3          	blez	s1,1f5a <_vfprintf_r+0x1046>
    21fc:	4ac1                	li	s5,16
    21fe:	4b9d                	li	s7,7
    2200:	47ee                	lw	a5,216(sp)
    2202:	477e                	lw	a4,220(sp)
    2204:	0785                	addi	a5,a5,1
    2206:	00888693          	addi	a3,a7,8
    220a:	d29adae3          	ble	s1,s5,1f3e <_vfprintf_r+0x102a>
    220e:	65b5                	lui	a1,0xd
    2210:	aac58593          	addi	a1,a1,-1364 # caac <zeroes.4384>
    2214:	0741                	addi	a4,a4,16
    2216:	00b8a023          	sw	a1,0(a7)
    221a:	0158a223          	sw	s5,4(a7)
    221e:	cfba                	sw	a4,220(sp)
    2220:	cdbe                	sw	a5,216(sp)
    2222:	00fbda63          	ble	a5,s7,2236 <_vfprintf_r+0x1322>
    2226:	09d0                	addi	a2,sp,212
    2228:	85ca                	mv	a1,s2
    222a:	854e                	mv	a0,s3
    222c:	398050ef          	jal	ra,75c4 <__sprint_r>
    2230:	2e051263          	bnez	a0,2514 <_vfprintf_r+0x1600>
    2234:	19f4                	addi	a3,sp,252
    2236:	14c1                	addi	s1,s1,-16
    2238:	88b6                	mv	a7,a3
    223a:	b7d9                	j	2200 <_vfprintf_r+0x12ec>
    223c:	67b5                	lui	a5,0xd
    223e:	aac78793          	addi	a5,a5,-1364 # caac <zeroes.4384>
    2242:	06c1                	addi	a3,a3,16
    2244:	00f8a023          	sw	a5,0(a7)
    2248:	01a8a223          	sw	s10,4(a7)
    224c:	cfb6                	sw	a3,220(sp)
    224e:	cdba                	sw	a4,216(sp)
    2250:	00edda63          	ble	a4,s11,2264 <_vfprintf_r+0x1350>
    2254:	09d0                	addi	a2,sp,212
    2256:	85ca                	mv	a1,s2
    2258:	854e                	mv	a0,s3
    225a:	36a050ef          	jal	ra,75c4 <__sprint_r>
    225e:	2a051b63          	bnez	a0,2514 <_vfprintf_r+0x1600>
    2262:	19f0                	addi	a2,sp,252
    2264:	1ac1                	addi	s5,s5,-16
    2266:	88b2                	mv	a7,a2
    2268:	b545                	j	2108 <_vfprintf_r+0x11f4>
    226a:	080c0c63          	beqz	s8,2302 <_vfprintf_r+0x13ee>
    226e:	1c7d                	addi	s8,s8,-1
    2270:	4716                	lw	a4,68(sp)
    2272:	47fe                	lw	a5,220(sp)
    2274:	46c6                	lw	a3,80(sp)
    2276:	97ba                	add	a5,a5,a4
    2278:	cfbe                	sw	a5,220(sp)
    227a:	47ee                	lw	a5,216(sp)
    227c:	00d8a023          	sw	a3,0(a7)
    2280:	0785                	addi	a5,a5,1
    2282:	00e8a223          	sw	a4,4(a7)
    2286:	cdbe                	sw	a5,216(sp)
    2288:	08a1                	addi	a7,a7,8
    228a:	00fd5b63          	ble	a5,s10,22a0 <_vfprintf_r+0x138c>
    228e:	09d0                	addi	a2,sp,212
    2290:	85ca                	mv	a1,s2
    2292:	854e                	mv	a0,s3
    2294:	330050ef          	jal	ra,75c4 <__sprint_r>
    2298:	26051e63          	bnez	a0,2514 <_vfprintf_r+0x1600>
    229c:	0fc10893          	addi	a7,sp,252
    22a0:	57a2                	lw	a5,40(sp)
    22a2:	415d8733          	sub	a4,s11,s5
    22a6:	0007cb03          	lbu	s6,0(a5)
    22aa:	01675363          	ble	s6,a4,22b0 <_vfprintf_r+0x139c>
    22ae:	8b3a                	mv	s6,a4
    22b0:	03605863          	blez	s6,22e0 <_vfprintf_r+0x13cc>
    22b4:	477e                	lw	a4,220(sp)
    22b6:	0158a023          	sw	s5,0(a7)
    22ba:	975a                	add	a4,a4,s6
    22bc:	cfba                	sw	a4,220(sp)
    22be:	476e                	lw	a4,216(sp)
    22c0:	0168a223          	sw	s6,4(a7)
    22c4:	0705                	addi	a4,a4,1
    22c6:	cdba                	sw	a4,216(sp)
    22c8:	08a1                	addi	a7,a7,8
    22ca:	00ed5b63          	ble	a4,s10,22e0 <_vfprintf_r+0x13cc>
    22ce:	09d0                	addi	a2,sp,212
    22d0:	85ca                	mv	a1,s2
    22d2:	854e                	mv	a0,s3
    22d4:	2f0050ef          	jal	ra,75c4 <__sprint_r>
    22d8:	22051e63          	bnez	a0,2514 <_vfprintf_r+0x1600>
    22dc:	0fc10893          	addi	a7,sp,252
    22e0:	875a                	mv	a4,s6
    22e2:	000b5363          	bgez	s6,22e8 <_vfprintf_r+0x13d4>
    22e6:	4701                	li	a4,0
    22e8:	55a2                	lw	a1,40(sp)
    22ea:	4841                	li	a6,16
    22ec:	0005c783          	lbu	a5,0(a1)
    22f0:	40e78b33          	sub	s6,a5,a4
    22f4:	05604463          	bgtz	s6,233c <_vfprintf_r+0x1428>
    22f8:	5622                	lw	a2,40(sp)
    22fa:	00064783          	lbu	a5,0(a2)
    22fe:	9abe                	add	s5,s5,a5
    2300:	bd91                	j	2154 <_vfprintf_r+0x1240>
    2302:	5622                	lw	a2,40(sp)
    2304:	1bfd                	addi	s7,s7,-1
    2306:	167d                	addi	a2,a2,-1
    2308:	d432                	sw	a2,40(sp)
    230a:	b79d                	j	2270 <_vfprintf_r+0x135c>
    230c:	67b5                	lui	a5,0xd
    230e:	aac78793          	addi	a5,a5,-1364 # caac <zeroes.4384>
    2312:	06c1                	addi	a3,a3,16
    2314:	00f8a023          	sw	a5,0(a7)
    2318:	0108a223          	sw	a6,4(a7)
    231c:	cfb6                	sw	a3,220(sp)
    231e:	cdba                	sw	a4,216(sp)
    2320:	00ed5c63          	ble	a4,s10,2338 <_vfprintf_r+0x1424>
    2324:	09d0                	addi	a2,sp,212
    2326:	85ca                	mv	a1,s2
    2328:	854e                	mv	a0,s3
    232a:	ca42                	sw	a6,20(sp)
    232c:	298050ef          	jal	ra,75c4 <__sprint_r>
    2330:	4852                	lw	a6,20(sp)
    2332:	1e051163          	bnez	a0,2514 <_vfprintf_r+0x1600>
    2336:	19f0                	addi	a2,sp,252
    2338:	1b41                	addi	s6,s6,-16
    233a:	88b2                	mv	a7,a2
    233c:	476e                	lw	a4,216(sp)
    233e:	46fe                	lw	a3,220(sp)
    2340:	0705                	addi	a4,a4,1
    2342:	00888613          	addi	a2,a7,8
    2346:	fd6843e3          	blt	a6,s6,230c <_vfprintf_r+0x13f8>
    234a:	65b5                	lui	a1,0xd
    234c:	aac58593          	addi	a1,a1,-1364 # caac <zeroes.4384>
    2350:	00db07b3          	add	a5,s6,a3
    2354:	00b8a023          	sw	a1,0(a7)
    2358:	0168a223          	sw	s6,4(a7)
    235c:	cfbe                	sw	a5,220(sp)
    235e:	cdba                	sw	a4,216(sp)
    2360:	88b2                	mv	a7,a2
    2362:	f8ed5be3          	ble	a4,s10,22f8 <_vfprintf_r+0x13e4>
    2366:	09d0                	addi	a2,sp,212
    2368:	85ca                	mv	a1,s2
    236a:	854e                	mv	a0,s3
    236c:	258050ef          	jal	ra,75c4 <__sprint_r>
    2370:	1a051263          	bnez	a0,2514 <_vfprintf_r+0x1600>
    2374:	0fc10893          	addi	a7,sp,252
    2378:	b741                	j	22f8 <_vfprintf_r+0x13e4>
    237a:	47ee                	lw	a5,216(sp)
    237c:	4705                	li	a4,1
    237e:	0098a023          	sw	s1,0(a7)
    2382:	0d85                	addi	s11,s11,1
    2384:	0785                	addi	a5,a5,1
    2386:	00888b93          	addi	s7,a7,8
    238a:	01474663          	blt	a4,s4,2396 <_vfprintf_r+0x1482>
    238e:	00147693          	andi	a3,s0,1
    2392:	12068863          	beqz	a3,24c2 <_vfprintf_r+0x15ae>
    2396:	4705                	li	a4,1
    2398:	00e8a223          	sw	a4,4(a7)
    239c:	cfee                	sw	s11,220(sp)
    239e:	cdbe                	sw	a5,216(sp)
    23a0:	471d                	li	a4,7
    23a2:	00f75b63          	ble	a5,a4,23b8 <_vfprintf_r+0x14a4>
    23a6:	09d0                	addi	a2,sp,212
    23a8:	85ca                	mv	a1,s2
    23aa:	854e                	mv	a0,s3
    23ac:	218050ef          	jal	ra,75c4 <__sprint_r>
    23b0:	16051263          	bnez	a0,2514 <_vfprintf_r+0x1600>
    23b4:	0fc10b93          	addi	s7,sp,252
    23b8:	5762                	lw	a4,56(sp)
    23ba:	47fe                	lw	a5,220(sp)
    23bc:	46a6                	lw	a3,72(sp)
    23be:	97ba                	add	a5,a5,a4
    23c0:	cfbe                	sw	a5,220(sp)
    23c2:	47ee                	lw	a5,216(sp)
    23c4:	00eba223          	sw	a4,4(s7)
    23c8:	0785                	addi	a5,a5,1
    23ca:	00dba023          	sw	a3,0(s7)
    23ce:	cdbe                	sw	a5,216(sp)
    23d0:	471d                	li	a4,7
    23d2:	0ba1                	addi	s7,s7,8
    23d4:	00f75b63          	ble	a5,a4,23ea <_vfprintf_r+0x14d6>
    23d8:	09d0                	addi	a2,sp,212
    23da:	85ca                	mv	a1,s2
    23dc:	854e                	mv	a0,s3
    23de:	1e6050ef          	jal	ra,75c4 <__sprint_r>
    23e2:	12051963          	bnez	a0,2514 <_vfprintf_r+0x1600>
    23e6:	0fc10b93          	addi	s7,sp,252
    23ea:	578e                	lw	a5,224(sp)
    23ec:	090c                	addi	a1,sp,144
    23ee:	d13e                	sw	a5,160(sp)
    23f0:	579e                	lw	a5,228(sp)
    23f2:	1108                	addi	a0,sp,160
    23f4:	d33e                	sw	a5,164(sp)
    23f6:	57ae                	lw	a5,232(sp)
    23f8:	fffa0a93          	addi	s5,s4,-1
    23fc:	d53e                	sw	a5,168(sp)
    23fe:	57be                	lw	a5,236(sp)
    2400:	c902                	sw	zero,144(sp)
    2402:	d73e                	sw	a5,172(sp)
    2404:	cb02                	sw	zero,148(sp)
    2406:	cd02                	sw	zero,152(sp)
    2408:	cf02                	sw	zero,156(sp)
    240a:	239070ef          	jal	ra,9e42 <__eqtf2>
    240e:	cd21                	beqz	a0,2466 <_vfprintf_r+0x1552>
    2410:	47fe                	lw	a5,220(sp)
    2412:	476e                	lw	a4,216(sp)
    2414:	17fd                	addi	a5,a5,-1
    2416:	97d2                	add	a5,a5,s4
    2418:	0705                	addi	a4,a4,1
    241a:	0485                	addi	s1,s1,1
    241c:	009ba023          	sw	s1,0(s7)
    2420:	015ba223          	sw	s5,4(s7)
    2424:	cfbe                	sw	a5,220(sp)
    2426:	cdba                	sw	a4,216(sp)
    2428:	479d                	li	a5,7
    242a:	0ba1                	addi	s7,s7,8
    242c:	00e7da63          	ble	a4,a5,2440 <_vfprintf_r+0x152c>
    2430:	09d0                	addi	a2,sp,212
    2432:	85ca                	mv	a1,s2
    2434:	854e                	mv	a0,s3
    2436:	18e050ef          	jal	ra,75c4 <__sprint_r>
    243a:	ed69                	bnez	a0,2514 <_vfprintf_r+0x1600>
    243c:	0fc10b93          	addi	s7,sp,252
    2440:	01dc                	addi	a5,sp,196
    2442:	46d6                	lw	a3,84(sp)
    2444:	00fba023          	sw	a5,0(s7)
    2448:	47fe                	lw	a5,220(sp)
    244a:	00dba223          	sw	a3,4(s7)
    244e:	97b6                	add	a5,a5,a3
    2450:	cfbe                	sw	a5,220(sp)
    2452:	47ee                	lw	a5,216(sp)
    2454:	471d                	li	a4,7
    2456:	0785                	addi	a5,a5,1
    2458:	cdbe                	sw	a5,216(sp)
    245a:	008b8893          	addi	a7,s7,8
    245e:	aef75ee3          	ble	a5,a4,1f5a <_vfprintf_r+0x1046>
    2462:	fa8ff06f          	j	1c0a <_vfprintf_r+0xcf6>
    2466:	fd505de3          	blez	s5,2440 <_vfprintf_r+0x152c>
    246a:	44c1                	li	s1,16
    246c:	4c1d                	li	s8,7
    246e:	476e                	lw	a4,216(sp)
    2470:	47fe                	lw	a5,220(sp)
    2472:	0705                	addi	a4,a4,1
    2474:	008b8693          	addi	a3,s7,8
    2478:	0154cf63          	blt	s1,s5,2496 <_vfprintf_r+0x1582>
    247c:	6635                	lui	a2,0xd
    247e:	97d6                	add	a5,a5,s5
    2480:	aac60613          	addi	a2,a2,-1364 # caac <zeroes.4384>
    2484:	00cba023          	sw	a2,0(s7)
    2488:	015ba223          	sw	s5,4(s7)
    248c:	cfbe                	sw	a5,220(sp)
    248e:	cdba                	sw	a4,216(sp)
    2490:	479d                	li	a5,7
    2492:	8bb6                	mv	s7,a3
    2494:	bf61                	j	242c <_vfprintf_r+0x1518>
    2496:	65b5                	lui	a1,0xd
    2498:	aac58593          	addi	a1,a1,-1364 # caac <zeroes.4384>
    249c:	07c1                	addi	a5,a5,16
    249e:	00bba023          	sw	a1,0(s7)
    24a2:	009ba223          	sw	s1,4(s7)
    24a6:	cfbe                	sw	a5,220(sp)
    24a8:	cdba                	sw	a4,216(sp)
    24aa:	00ec5963          	ble	a4,s8,24bc <_vfprintf_r+0x15a8>
    24ae:	09d0                	addi	a2,sp,212
    24b0:	85ca                	mv	a1,s2
    24b2:	854e                	mv	a0,s3
    24b4:	110050ef          	jal	ra,75c4 <__sprint_r>
    24b8:	ed31                	bnez	a0,2514 <_vfprintf_r+0x1600>
    24ba:	19f4                	addi	a3,sp,252
    24bc:	1ac1                	addi	s5,s5,-16
    24be:	8bb6                	mv	s7,a3
    24c0:	b77d                	j	246e <_vfprintf_r+0x155a>
    24c2:	00e8a223          	sw	a4,4(a7)
    24c6:	cfee                	sw	s11,220(sp)
    24c8:	cdbe                	sw	a5,216(sp)
    24ca:	471d                	li	a4,7
    24cc:	f6f75ae3          	ble	a5,a4,2440 <_vfprintf_r+0x152c>
    24d0:	b785                	j	2430 <_vfprintf_r+0x151c>
    24d2:	4586                	lw	a1,64(sp)
    24d4:	56d2                	lw	a3,52(sp)
    24d6:	40d58433          	sub	s0,a1,a3
    24da:	a88053e3          	blez	s0,1f60 <_vfprintf_r+0x104c>
    24de:	64b5                	lui	s1,0xd
    24e0:	4ac1                	li	s5,16
    24e2:	a9c48493          	addi	s1,s1,-1380 # ca9c <blanks.4383>
    24e6:	4b9d                	li	s7,7
    24e8:	47ee                	lw	a5,216(sp)
    24ea:	0098a023          	sw	s1,0(a7)
    24ee:	477e                	lw	a4,220(sp)
    24f0:	0785                	addi	a5,a5,1
    24f2:	028acb63          	blt	s5,s0,2528 <_vfprintf_r+0x1614>
    24f6:	0088a223          	sw	s0,4(a7)
    24fa:	943a                	add	s0,s0,a4
    24fc:	cfa2                	sw	s0,220(sp)
    24fe:	cdbe                	sw	a5,216(sp)
    2500:	471d                	li	a4,7
    2502:	a4f75fe3          	ble	a5,a4,1f60 <_vfprintf_r+0x104c>
    2506:	09d0                	addi	a2,sp,212
    2508:	85ca                	mv	a1,s2
    250a:	854e                	mv	a0,s3
    250c:	0b8050ef          	jal	ra,75c4 <__sprint_r>
    2510:	a40508e3          	beqz	a0,1f60 <_vfprintf_r+0x104c>
    2514:	5792                	lw	a5,36(sp)
    2516:	e399                	bnez	a5,251c <_vfprintf_r+0x1608>
    2518:	ee3fe06f          	j	13fa <_vfprintf_r+0x4e6>
    251c:	85be                	mv	a1,a5
    251e:	854e                	mv	a0,s3
    2520:	6f6000ef          	jal	ra,2c16 <_free_r>
    2524:	ed7fe06f          	j	13fa <_vfprintf_r+0x4e6>
    2528:	0741                	addi	a4,a4,16
    252a:	0158a223          	sw	s5,4(a7)
    252e:	cfba                	sw	a4,220(sp)
    2530:	cdbe                	sw	a5,216(sp)
    2532:	08a1                	addi	a7,a7,8
    2534:	00fbda63          	ble	a5,s7,2548 <_vfprintf_r+0x1634>
    2538:	09d0                	addi	a2,sp,212
    253a:	85ca                	mv	a1,s2
    253c:	854e                	mv	a0,s3
    253e:	086050ef          	jal	ra,75c4 <__sprint_r>
    2542:	f969                	bnez	a0,2514 <_vfprintf_r+0x1600>
    2544:	0fc10893          	addi	a7,sp,252
    2548:	1441                	addi	s0,s0,-16
    254a:	bf79                	j	24e8 <_vfprintf_r+0x15d4>
    254c:	5592                	lw	a1,36(sp)
    254e:	854e                	mv	a0,s3
    2550:	6c6000ef          	jal	ra,2c16 <_free_r>
    2554:	bc1d                	j	1f8a <_vfprintf_r+0x1076>
    2556:	47fe                	lw	a5,220(sp)
    2558:	e399                	bnez	a5,255e <_vfprintf_r+0x164a>
    255a:	ea1fe06f          	j	13fa <_vfprintf_r+0x4e6>
    255e:	09d0                	addi	a2,sp,212
    2560:	85ca                	mv	a1,s2
    2562:	854e                	mv	a0,s3
    2564:	060050ef          	jal	ra,75c4 <__sprint_r>
    2568:	e93fe06f          	j	13fa <_vfprintf_r+0x4e6>

0000256c <vfprintf>:
    256c:	86b2                	mv	a3,a2
    256e:	862e                	mv	a2,a1
    2570:	85aa                	mv	a1,a0
    2572:	1c01a503          	lw	a0,448(gp) # e038 <_impure_ptr>
    2576:	99ffe06f          	j	f14 <_vfprintf_r>

0000257a <__sbprintf>:
    257a:	00c5d783          	lhu	a5,12(a1)
    257e:	b8010113          	addi	sp,sp,-1152
    2582:	9bf5                	andi	a5,a5,-3
    2584:	00f11a23          	sh	a5,20(sp)
    2588:	51fc                	lw	a5,100(a1)
    258a:	46812c23          	sw	s0,1144(sp)
    258e:	d6be                	sw	a5,108(sp)
    2590:	00e5d783          	lhu	a5,14(a1)
    2594:	842e                	mv	s0,a1
    2596:	00f11b23          	sh	a5,22(sp)
    259a:	4ddc                	lw	a5,28(a1)
    259c:	46912a23          	sw	s1,1140(sp)
    25a0:	d23e                	sw	a5,36(sp)
    25a2:	51dc                	lw	a5,36(a1)
    25a4:	002c                	addi	a1,sp,8
    25a6:	d63e                	sw	a5,44(sp)
    25a8:	189c                	addi	a5,sp,112
    25aa:	c43e                	sw	a5,8(sp)
    25ac:	cc3e                	sw	a5,24(sp)
    25ae:	40000793          	li	a5,1024
    25b2:	47212823          	sw	s2,1136(sp)
    25b6:	46112e23          	sw	ra,1148(sp)
    25ba:	892a                	mv	s2,a0
    25bc:	c83e                	sw	a5,16(sp)
    25be:	ce3e                	sw	a5,28(sp)
    25c0:	d002                	sw	zero,32(sp)
    25c2:	953fe0ef          	jal	ra,f14 <_vfprintf_r>
    25c6:	84aa                	mv	s1,a0
    25c8:	00054763          	bltz	a0,25d6 <__sbprintf+0x5c>
    25cc:	002c                	addi	a1,sp,8
    25ce:	854a                	mv	a0,s2
    25d0:	26bd                	jal	293e <_fflush_r>
    25d2:	c111                	beqz	a0,25d6 <__sbprintf+0x5c>
    25d4:	54fd                	li	s1,-1
    25d6:	01415783          	lhu	a5,20(sp)
    25da:	0407f793          	andi	a5,a5,64
    25de:	c799                	beqz	a5,25ec <__sbprintf+0x72>
    25e0:	00c45783          	lhu	a5,12(s0)
    25e4:	0407e793          	ori	a5,a5,64
    25e8:	00f41623          	sh	a5,12(s0)
    25ec:	47c12083          	lw	ra,1148(sp)
    25f0:	47812403          	lw	s0,1144(sp)
    25f4:	8526                	mv	a0,s1
    25f6:	47012903          	lw	s2,1136(sp)
    25fa:	47412483          	lw	s1,1140(sp)
    25fe:	48010113          	addi	sp,sp,1152
    2602:	8082                	ret

00002604 <__swsetup_r>:
    2604:	1141                	addi	sp,sp,-16
    2606:	c226                	sw	s1,4(sp)
    2608:	84aa                	mv	s1,a0
    260a:	1c01a503          	lw	a0,448(gp) # e038 <_impure_ptr>
    260e:	c422                	sw	s0,8(sp)
    2610:	c606                	sw	ra,12(sp)
    2612:	842e                	mv	s0,a1
    2614:	c501                	beqz	a0,261c <__swsetup_r+0x18>
    2616:	5d1c                	lw	a5,56(a0)
    2618:	e391                	bnez	a5,261c <__swsetup_r+0x18>
    261a:	2925                	jal	2a52 <__sinit>
    261c:	00c41703          	lh	a4,12(s0)
    2620:	01071793          	slli	a5,a4,0x10
    2624:	83c1                	srli	a5,a5,0x10
    2626:	0087f693          	andi	a3,a5,8
    262a:	eea1                	bnez	a3,2682 <__swsetup_r+0x7e>
    262c:	0107f693          	andi	a3,a5,16
    2630:	ee89                	bnez	a3,264a <__swsetup_r+0x46>
    2632:	47a5                	li	a5,9
    2634:	c09c                	sw	a5,0(s1)
    2636:	04076713          	ori	a4,a4,64
    263a:	00e41623          	sh	a4,12(s0)
    263e:	557d                	li	a0,-1
    2640:	40b2                	lw	ra,12(sp)
    2642:	4422                	lw	s0,8(sp)
    2644:	4492                	lw	s1,4(sp)
    2646:	0141                	addi	sp,sp,16
    2648:	8082                	ret
    264a:	8b91                	andi	a5,a5,4
    264c:	c78d                	beqz	a5,2676 <__swsetup_r+0x72>
    264e:	580c                	lw	a1,48(s0)
    2650:	c989                	beqz	a1,2662 <__swsetup_r+0x5e>
    2652:	04040793          	addi	a5,s0,64
    2656:	00f58463          	beq	a1,a5,265e <__swsetup_r+0x5a>
    265a:	8526                	mv	a0,s1
    265c:	2b6d                	jal	2c16 <_free_r>
    265e:	02042823          	sw	zero,48(s0)
    2662:	00c45783          	lhu	a5,12(s0)
    2666:	00042223          	sw	zero,4(s0)
    266a:	fdb7f793          	andi	a5,a5,-37
    266e:	00f41623          	sh	a5,12(s0)
    2672:	481c                	lw	a5,16(s0)
    2674:	c01c                	sw	a5,0(s0)
    2676:	00c45783          	lhu	a5,12(s0)
    267a:	0087e793          	ori	a5,a5,8
    267e:	00f41623          	sh	a5,12(s0)
    2682:	481c                	lw	a5,16(s0)
    2684:	ef89                	bnez	a5,269e <__swsetup_r+0x9a>
    2686:	00c45783          	lhu	a5,12(s0)
    268a:	20000713          	li	a4,512
    268e:	2807f793          	andi	a5,a5,640
    2692:	00e78663          	beq	a5,a4,269e <__swsetup_r+0x9a>
    2696:	85a2                	mv	a1,s0
    2698:	8526                	mv	a0,s1
    269a:	252020ef          	jal	ra,48ec <__smakebuf_r>
    269e:	00c45783          	lhu	a5,12(s0)
    26a2:	0017f713          	andi	a4,a5,1
    26a6:	c705                	beqz	a4,26ce <__swsetup_r+0xca>
    26a8:	485c                	lw	a5,20(s0)
    26aa:	00042423          	sw	zero,8(s0)
    26ae:	40f007b3          	neg	a5,a5
    26b2:	cc1c                	sw	a5,24(s0)
    26b4:	481c                	lw	a5,16(s0)
    26b6:	4501                	li	a0,0
    26b8:	f7c1                	bnez	a5,2640 <__swsetup_r+0x3c>
    26ba:	00c41783          	lh	a5,12(s0)
    26be:	0807f713          	andi	a4,a5,128
    26c2:	df3d                	beqz	a4,2640 <__swsetup_r+0x3c>
    26c4:	0407e793          	ori	a5,a5,64
    26c8:	00f41623          	sh	a5,12(s0)
    26cc:	bf8d                	j	263e <__swsetup_r+0x3a>
    26ce:	8b89                	andi	a5,a5,2
    26d0:	4701                	li	a4,0
    26d2:	e391                	bnez	a5,26d6 <__swsetup_r+0xd2>
    26d4:	4858                	lw	a4,20(s0)
    26d6:	c418                	sw	a4,8(s0)
    26d8:	bff1                	j	26b4 <__swsetup_r+0xb0>

000026da <__register_exitproc>:
    26da:	1bc1a703          	lw	a4,444(gp) # e034 <_global_impure_ptr>
    26de:	832a                	mv	t1,a0
    26e0:	14872783          	lw	a5,328(a4)
    26e4:	e789                	bnez	a5,26ee <__register_exitproc+0x14>
    26e6:	14c70793          	addi	a5,a4,332
    26ea:	14f72423          	sw	a5,328(a4)
    26ee:	43d8                	lw	a4,4(a5)
    26f0:	487d                	li	a6,31
    26f2:	557d                	li	a0,-1
    26f4:	04e84263          	blt	a6,a4,2738 <__register_exitproc+0x5e>
    26f8:	00271893          	slli	a7,a4,0x2
    26fc:	02030963          	beqz	t1,272e <__register_exitproc+0x54>
    2700:	01178533          	add	a0,a5,a7
    2704:	08c52423          	sw	a2,136(a0)
    2708:	1887a803          	lw	a6,392(a5)
    270c:	4605                	li	a2,1
    270e:	00e61633          	sll	a2,a2,a4
    2712:	00c86833          	or	a6,a6,a2
    2716:	1907a423          	sw	a6,392(a5)
    271a:	10d52423          	sw	a3,264(a0)
    271e:	4689                	li	a3,2
    2720:	00d31763          	bne	t1,a3,272e <__register_exitproc+0x54>
    2724:	18c7a683          	lw	a3,396(a5)
    2728:	8e55                	or	a2,a2,a3
    272a:	18c7a623          	sw	a2,396(a5)
    272e:	0705                	addi	a4,a4,1
    2730:	c3d8                	sw	a4,4(a5)
    2732:	97c6                	add	a5,a5,a7
    2734:	c78c                	sw	a1,8(a5)
    2736:	4501                	li	a0,0
    2738:	8082                	ret

0000273a <__call_exitprocs>:
    273a:	7179                	addi	sp,sp,-48
    273c:	ce4e                	sw	s3,28(sp)
    273e:	1bc1a983          	lw	s3,444(gp) # e034 <_global_impure_ptr>
    2742:	cc52                	sw	s4,24(sp)
    2744:	ca56                	sw	s5,20(sp)
    2746:	c85a                	sw	s6,16(sp)
    2748:	d606                	sw	ra,44(sp)
    274a:	d422                	sw	s0,40(sp)
    274c:	d226                	sw	s1,36(sp)
    274e:	d04a                	sw	s2,32(sp)
    2750:	c65e                	sw	s7,12(sp)
    2752:	8aaa                	mv	s5,a0
    2754:	8a2e                	mv	s4,a1
    2756:	4b05                	li	s6,1
    2758:	1489a483          	lw	s1,328(s3)
    275c:	c881                	beqz	s1,276c <__call_exitprocs+0x32>
    275e:	40c0                	lw	s0,4(s1)
    2760:	fff40913          	addi	s2,s0,-1
    2764:	040a                	slli	s0,s0,0x2
    2766:	9426                	add	s0,s0,s1
    2768:	00095d63          	bgez	s2,2782 <__call_exitprocs+0x48>
    276c:	50b2                	lw	ra,44(sp)
    276e:	5422                	lw	s0,40(sp)
    2770:	5492                	lw	s1,36(sp)
    2772:	5902                	lw	s2,32(sp)
    2774:	49f2                	lw	s3,28(sp)
    2776:	4a62                	lw	s4,24(sp)
    2778:	4ad2                	lw	s5,20(sp)
    277a:	4b42                	lw	s6,16(sp)
    277c:	4bb2                	lw	s7,12(sp)
    277e:	6145                	addi	sp,sp,48
    2780:	8082                	ret
    2782:	000a0963          	beqz	s4,2794 <__call_exitprocs+0x5a>
    2786:	10442783          	lw	a5,260(s0)
    278a:	01478563          	beq	a5,s4,2794 <__call_exitprocs+0x5a>
    278e:	197d                	addi	s2,s2,-1
    2790:	1471                	addi	s0,s0,-4
    2792:	bfd9                	j	2768 <__call_exitprocs+0x2e>
    2794:	40d8                	lw	a4,4(s1)
    2796:	405c                	lw	a5,4(s0)
    2798:	177d                	addi	a4,a4,-1
    279a:	03271663          	bne	a4,s2,27c6 <__call_exitprocs+0x8c>
    279e:	0124a223          	sw	s2,4(s1)
    27a2:	d7f5                	beqz	a5,278e <__call_exitprocs+0x54>
    27a4:	1884a683          	lw	a3,392(s1)
    27a8:	012b1733          	sll	a4,s6,s2
    27ac:	8ef9                	and	a3,a3,a4
    27ae:	0044ab83          	lw	s7,4(s1)
    27b2:	ee89                	bnez	a3,27cc <__call_exitprocs+0x92>
    27b4:	9782                	jalr	a5
    27b6:	40d8                	lw	a4,4(s1)
    27b8:	1489a783          	lw	a5,328(s3)
    27bc:	f9771ee3          	bne	a4,s7,2758 <__call_exitprocs+0x1e>
    27c0:	fcf487e3          	beq	s1,a5,278e <__call_exitprocs+0x54>
    27c4:	bf51                	j	2758 <__call_exitprocs+0x1e>
    27c6:	00042223          	sw	zero,4(s0)
    27ca:	bfe1                	j	27a2 <__call_exitprocs+0x68>
    27cc:	18c4a683          	lw	a3,396(s1)
    27d0:	08442583          	lw	a1,132(s0)
    27d4:	8f75                	and	a4,a4,a3
    27d6:	e701                	bnez	a4,27de <__call_exitprocs+0xa4>
    27d8:	8556                	mv	a0,s5
    27da:	9782                	jalr	a5
    27dc:	bfe9                	j	27b6 <__call_exitprocs+0x7c>
    27de:	852e                	mv	a0,a1
    27e0:	9782                	jalr	a5
    27e2:	bfd1                	j	27b6 <__call_exitprocs+0x7c>

000027e4 <__sflush_r>:
    27e4:	00c59783          	lh	a5,12(a1)
    27e8:	1101                	addi	sp,sp,-32
    27ea:	01079713          	slli	a4,a5,0x10
    27ee:	8341                	srli	a4,a4,0x10
    27f0:	cc22                	sw	s0,24(sp)
    27f2:	ca26                	sw	s1,20(sp)
    27f4:	ce06                	sw	ra,28(sp)
    27f6:	c84a                	sw	s2,16(sp)
    27f8:	c64e                	sw	s3,12(sp)
    27fa:	00877693          	andi	a3,a4,8
    27fe:	84aa                	mv	s1,a0
    2800:	842e                	mv	s0,a1
    2802:	eee5                	bnez	a3,28fa <__sflush_r+0x116>
    2804:	6705                	lui	a4,0x1
    2806:	80070713          	addi	a4,a4,-2048 # 800 <main+0x72a>
    280a:	8fd9                	or	a5,a5,a4
    280c:	41d8                	lw	a4,4(a1)
    280e:	00f59623          	sh	a5,12(a1)
    2812:	00e04d63          	bgtz	a4,282c <__sflush_r+0x48>
    2816:	5dd8                	lw	a4,60(a1)
    2818:	00e04a63          	bgtz	a4,282c <__sflush_r+0x48>
    281c:	4501                	li	a0,0
    281e:	40f2                	lw	ra,28(sp)
    2820:	4462                	lw	s0,24(sp)
    2822:	44d2                	lw	s1,20(sp)
    2824:	4942                	lw	s2,16(sp)
    2826:	49b2                	lw	s3,12(sp)
    2828:	6105                	addi	sp,sp,32
    282a:	8082                	ret
    282c:	5418                	lw	a4,40(s0)
    282e:	d77d                	beqz	a4,281c <__sflush_r+0x38>
    2830:	0004a903          	lw	s2,0(s1)
    2834:	01379693          	slli	a3,a5,0x13
    2838:	0004a023          	sw	zero,0(s1)
    283c:	4c4c                	lw	a1,28(s0)
    283e:	0806d563          	bgez	a3,28c8 <__sflush_r+0xe4>
    2842:	4830                	lw	a2,80(s0)
    2844:	00c45783          	lhu	a5,12(s0)
    2848:	8b91                	andi	a5,a5,4
    284a:	c799                	beqz	a5,2858 <__sflush_r+0x74>
    284c:	405c                	lw	a5,4(s0)
    284e:	8e1d                	sub	a2,a2,a5
    2850:	581c                	lw	a5,48(s0)
    2852:	c399                	beqz	a5,2858 <__sflush_r+0x74>
    2854:	5c5c                	lw	a5,60(s0)
    2856:	8e1d                	sub	a2,a2,a5
    2858:	541c                	lw	a5,40(s0)
    285a:	4c4c                	lw	a1,28(s0)
    285c:	4681                	li	a3,0
    285e:	8526                	mv	a0,s1
    2860:	9782                	jalr	a5
    2862:	57fd                	li	a5,-1
    2864:	00c45683          	lhu	a3,12(s0)
    2868:	00f51d63          	bne	a0,a5,2882 <__sflush_r+0x9e>
    286c:	409c                	lw	a5,0(s1)
    286e:	4775                	li	a4,29
    2870:	06f76f63          	bltu	a4,a5,28ee <__sflush_r+0x10a>
    2874:	20400737          	lui	a4,0x20400
    2878:	0705                	addi	a4,a4,1
    287a:	00f75733          	srl	a4,a4,a5
    287e:	8b05                	andi	a4,a4,1
    2880:	c73d                	beqz	a4,28ee <__sflush_r+0x10a>
    2882:	77fd                	lui	a5,0xfffff
    2884:	7ff78793          	addi	a5,a5,2047 # fffff7ff <pulp__FC+0xfffff800>
    2888:	8ff5                	and	a5,a5,a3
    288a:	4818                	lw	a4,16(s0)
    288c:	07c2                	slli	a5,a5,0x10
    288e:	87c1                	srai	a5,a5,0x10
    2890:	c018                	sw	a4,0(s0)
    2892:	00f41623          	sh	a5,12(s0)
    2896:	00042223          	sw	zero,4(s0)
    289a:	01379713          	slli	a4,a5,0x13
    289e:	00075863          	bgez	a4,28ae <__sflush_r+0xca>
    28a2:	57fd                	li	a5,-1
    28a4:	00f51463          	bne	a0,a5,28ac <__sflush_r+0xc8>
    28a8:	409c                	lw	a5,0(s1)
    28aa:	e391                	bnez	a5,28ae <__sflush_r+0xca>
    28ac:	c828                	sw	a0,80(s0)
    28ae:	580c                	lw	a1,48(s0)
    28b0:	0124a023          	sw	s2,0(s1)
    28b4:	d5a5                	beqz	a1,281c <__sflush_r+0x38>
    28b6:	04040793          	addi	a5,s0,64
    28ba:	00f58463          	beq	a1,a5,28c2 <__sflush_r+0xde>
    28be:	8526                	mv	a0,s1
    28c0:	2e99                	jal	2c16 <_free_r>
    28c2:	02042823          	sw	zero,48(s0)
    28c6:	bf99                	j	281c <__sflush_r+0x38>
    28c8:	4601                	li	a2,0
    28ca:	4685                	li	a3,1
    28cc:	8526                	mv	a0,s1
    28ce:	9702                	jalr	a4
    28d0:	57fd                	li	a5,-1
    28d2:	862a                	mv	a2,a0
    28d4:	f6f518e3          	bne	a0,a5,2844 <__sflush_r+0x60>
    28d8:	409c                	lw	a5,0(s1)
    28da:	d7ad                	beqz	a5,2844 <__sflush_r+0x60>
    28dc:	4775                	li	a4,29
    28de:	00e78563          	beq	a5,a4,28e8 <__sflush_r+0x104>
    28e2:	4759                	li	a4,22
    28e4:	04e79463          	bne	a5,a4,292c <__sflush_r+0x148>
    28e8:	0124a023          	sw	s2,0(s1)
    28ec:	bf05                	j	281c <__sflush_r+0x38>
    28ee:	0406e793          	ori	a5,a3,64
    28f2:	00f41623          	sh	a5,12(s0)
    28f6:	557d                	li	a0,-1
    28f8:	b71d                	j	281e <__sflush_r+0x3a>
    28fa:	0105a983          	lw	s3,16(a1)
    28fe:	f0098fe3          	beqz	s3,281c <__sflush_r+0x38>
    2902:	0005a903          	lw	s2,0(a1)
    2906:	8b0d                	andi	a4,a4,3
    2908:	0135a023          	sw	s3,0(a1)
    290c:	41390933          	sub	s2,s2,s3
    2910:	4781                	li	a5,0
    2912:	e311                	bnez	a4,2916 <__sflush_r+0x132>
    2914:	49dc                	lw	a5,20(a1)
    2916:	c41c                	sw	a5,8(s0)
    2918:	f12052e3          	blez	s2,281c <__sflush_r+0x38>
    291c:	505c                	lw	a5,36(s0)
    291e:	4c4c                	lw	a1,28(s0)
    2920:	86ca                	mv	a3,s2
    2922:	864e                	mv	a2,s3
    2924:	8526                	mv	a0,s1
    2926:	9782                	jalr	a5
    2928:	00a04763          	bgtz	a0,2936 <__sflush_r+0x152>
    292c:	00c45783          	lhu	a5,12(s0)
    2930:	0407e793          	ori	a5,a5,64
    2934:	bf7d                	j	28f2 <__sflush_r+0x10e>
    2936:	99aa                	add	s3,s3,a0
    2938:	40a90933          	sub	s2,s2,a0
    293c:	bff1                	j	2918 <__sflush_r+0x134>

0000293e <_fflush_r>:
    293e:	1101                	addi	sp,sp,-32
    2940:	cc22                	sw	s0,24(sp)
    2942:	ce06                	sw	ra,28(sp)
    2944:	842a                	mv	s0,a0
    2946:	c511                	beqz	a0,2952 <_fflush_r+0x14>
    2948:	5d1c                	lw	a5,56(a0)
    294a:	e781                	bnez	a5,2952 <_fflush_r+0x14>
    294c:	c62e                	sw	a1,12(sp)
    294e:	2211                	jal	2a52 <__sinit>
    2950:	45b2                	lw	a1,12(sp)
    2952:	00c59783          	lh	a5,12(a1)
    2956:	c791                	beqz	a5,2962 <_fflush_r+0x24>
    2958:	8522                	mv	a0,s0
    295a:	4462                	lw	s0,24(sp)
    295c:	40f2                	lw	ra,28(sp)
    295e:	6105                	addi	sp,sp,32
    2960:	b551                	j	27e4 <__sflush_r>
    2962:	40f2                	lw	ra,28(sp)
    2964:	4462                	lw	s0,24(sp)
    2966:	4501                	li	a0,0
    2968:	6105                	addi	sp,sp,32
    296a:	8082                	ret

0000296c <fflush>:
    296c:	85aa                	mv	a1,a0
    296e:	e909                	bnez	a0,2980 <fflush+0x14>
    2970:	000035b7          	lui	a1,0x3
    2974:	1bc1a503          	lw	a0,444(gp) # e034 <_global_impure_ptr>
    2978:	93e58593          	addi	a1,a1,-1730 # 293e <_fflush_r>
    297c:	7800006f          	j	30fc <_fwalk_reent>
    2980:	1c01a503          	lw	a0,448(gp) # e038 <_impure_ptr>
    2984:	bf6d                	j	293e <_fflush_r>

00002986 <__fp_lock>:
    2986:	4501                	li	a0,0
    2988:	8082                	ret

0000298a <_cleanup_r>:
    298a:	000085b7          	lui	a1,0x8
    298e:	0d858593          	addi	a1,a1,216 # 80d8 <_fclose_r>
    2992:	76a0006f          	j	30fc <_fwalk_reent>

00002996 <std.isra.0>:
    2996:	1141                	addi	sp,sp,-16
    2998:	c422                	sw	s0,8(sp)
    299a:	c606                	sw	ra,12(sp)
    299c:	842a                	mv	s0,a0
    299e:	00b51623          	sh	a1,12(a0)
    29a2:	00c51723          	sh	a2,14(a0)
    29a6:	00052023          	sw	zero,0(a0)
    29aa:	00052223          	sw	zero,4(a0)
    29ae:	00052423          	sw	zero,8(a0)
    29b2:	06052223          	sw	zero,100(a0)
    29b6:	00052823          	sw	zero,16(a0)
    29ba:	00052a23          	sw	zero,20(a0)
    29be:	00052c23          	sw	zero,24(a0)
    29c2:	4621                	li	a2,8
    29c4:	4581                	li	a1,0
    29c6:	05c50513          	addi	a0,a0,92
    29ca:	b06fe0ef          	jal	ra,cd0 <memset>
    29ce:	000067b7          	lui	a5,0x6
    29d2:	d7a78793          	addi	a5,a5,-646 # 5d7a <__sread>
    29d6:	d01c                	sw	a5,32(s0)
    29d8:	000067b7          	lui	a5,0x6
    29dc:	db078793          	addi	a5,a5,-592 # 5db0 <__swrite>
    29e0:	d05c                	sw	a5,36(s0)
    29e2:	000067b7          	lui	a5,0x6
    29e6:	e0278793          	addi	a5,a5,-510 # 5e02 <__sseek>
    29ea:	d41c                	sw	a5,40(s0)
    29ec:	000067b7          	lui	a5,0x6
    29f0:	e3a78793          	addi	a5,a5,-454 # 5e3a <__sclose>
    29f4:	cc40                	sw	s0,28(s0)
    29f6:	d45c                	sw	a5,44(s0)
    29f8:	40b2                	lw	ra,12(sp)
    29fa:	4422                	lw	s0,8(sp)
    29fc:	0141                	addi	sp,sp,16
    29fe:	8082                	ret

00002a00 <__fp_unlock>:
    2a00:	4501                	li	a0,0
    2a02:	8082                	ret

00002a04 <__sfmoreglue>:
    2a04:	1141                	addi	sp,sp,-16
    2a06:	c226                	sw	s1,4(sp)
    2a08:	06800613          	li	a2,104
    2a0c:	fff58493          	addi	s1,a1,-1
    2a10:	02c484b3          	mul	s1,s1,a2
    2a14:	c04a                	sw	s2,0(sp)
    2a16:	892e                	mv	s2,a1
    2a18:	07448593          	addi	a1,s1,116
    2a1c:	c422                	sw	s0,8(sp)
    2a1e:	c606                	sw	ra,12(sp)
    2a20:	76b010ef          	jal	ra,498a <_malloc_r>
    2a24:	842a                	mv	s0,a0
    2a26:	cd01                	beqz	a0,2a3e <__sfmoreglue+0x3a>
    2a28:	00052023          	sw	zero,0(a0)
    2a2c:	01252223          	sw	s2,4(a0)
    2a30:	0531                	addi	a0,a0,12
    2a32:	c408                	sw	a0,8(s0)
    2a34:	06848613          	addi	a2,s1,104
    2a38:	4581                	li	a1,0
    2a3a:	a96fe0ef          	jal	ra,cd0 <memset>
    2a3e:	8522                	mv	a0,s0
    2a40:	40b2                	lw	ra,12(sp)
    2a42:	4422                	lw	s0,8(sp)
    2a44:	4492                	lw	s1,4(sp)
    2a46:	4902                	lw	s2,0(sp)
    2a48:	0141                	addi	sp,sp,16
    2a4a:	8082                	ret

00002a4c <_cleanup>:
    2a4c:	1bc1a503          	lw	a0,444(gp) # e034 <_global_impure_ptr>
    2a50:	bf2d                	j	298a <_cleanup_r>

00002a52 <__sinit>:
    2a52:	5d1c                	lw	a5,56(a0)
    2a54:	e7a9                	bnez	a5,2a9e <__sinit+0x4c>
    2a56:	1141                	addi	sp,sp,-16
    2a58:	000037b7          	lui	a5,0x3
    2a5c:	c606                	sw	ra,12(sp)
    2a5e:	c422                	sw	s0,8(sp)
    2a60:	98a78793          	addi	a5,a5,-1654 # 298a <_cleanup_r>
    2a64:	dd5c                	sw	a5,60(a0)
    2a66:	478d                	li	a5,3
    2a68:	2ef52223          	sw	a5,740(a0)
    2a6c:	2ec50793          	addi	a5,a0,748
    2a70:	842a                	mv	s0,a0
    2a72:	2ef52423          	sw	a5,744(a0)
    2a76:	2e052023          	sw	zero,736(a0)
    2a7a:	4148                	lw	a0,4(a0)
    2a7c:	4601                	li	a2,0
    2a7e:	4591                	li	a1,4
    2a80:	3f19                	jal	2996 <std.isra.0>
    2a82:	4408                	lw	a0,8(s0)
    2a84:	4605                	li	a2,1
    2a86:	45a5                	li	a1,9
    2a88:	3739                	jal	2996 <std.isra.0>
    2a8a:	4448                	lw	a0,12(s0)
    2a8c:	4609                	li	a2,2
    2a8e:	45c9                	li	a1,18
    2a90:	3719                	jal	2996 <std.isra.0>
    2a92:	4785                	li	a5,1
    2a94:	dc1c                	sw	a5,56(s0)
    2a96:	40b2                	lw	ra,12(sp)
    2a98:	4422                	lw	s0,8(sp)
    2a9a:	0141                	addi	sp,sp,16
    2a9c:	8082                	ret
    2a9e:	8082                	ret

00002aa0 <__sfp>:
    2aa0:	1141                	addi	sp,sp,-16
    2aa2:	c226                	sw	s1,4(sp)
    2aa4:	1bc1a483          	lw	s1,444(gp) # e034 <_global_impure_ptr>
    2aa8:	c04a                	sw	s2,0(sp)
    2aaa:	5c9c                	lw	a5,56(s1)
    2aac:	c606                	sw	ra,12(sp)
    2aae:	c422                	sw	s0,8(sp)
    2ab0:	892a                	mv	s2,a0
    2ab2:	e399                	bnez	a5,2ab8 <__sfp+0x18>
    2ab4:	8526                	mv	a0,s1
    2ab6:	3f71                	jal	2a52 <__sinit>
    2ab8:	2e048493          	addi	s1,s1,736
    2abc:	4480                	lw	s0,8(s1)
    2abe:	40dc                	lw	a5,4(s1)
    2ac0:	17fd                	addi	a5,a5,-1
    2ac2:	0007d663          	bgez	a5,2ace <__sfp+0x2e>
    2ac6:	409c                	lw	a5,0(s1)
    2ac8:	cb89                	beqz	a5,2ada <__sfp+0x3a>
    2aca:	4084                	lw	s1,0(s1)
    2acc:	bfc5                	j	2abc <__sfp+0x1c>
    2ace:	00c41703          	lh	a4,12(s0)
    2ad2:	c705                	beqz	a4,2afa <__sfp+0x5a>
    2ad4:	06840413          	addi	s0,s0,104
    2ad8:	b7e5                	j	2ac0 <__sfp+0x20>
    2ada:	4591                	li	a1,4
    2adc:	854a                	mv	a0,s2
    2ade:	371d                	jal	2a04 <__sfmoreglue>
    2ae0:	c088                	sw	a0,0(s1)
    2ae2:	f565                	bnez	a0,2aca <__sfp+0x2a>
    2ae4:	47b1                	li	a5,12
    2ae6:	00f92023          	sw	a5,0(s2)
    2aea:	4401                	li	s0,0
    2aec:	8522                	mv	a0,s0
    2aee:	40b2                	lw	ra,12(sp)
    2af0:	4422                	lw	s0,8(sp)
    2af2:	4492                	lw	s1,4(sp)
    2af4:	4902                	lw	s2,0(sp)
    2af6:	0141                	addi	sp,sp,16
    2af8:	8082                	ret
    2afa:	77c1                	lui	a5,0xffff0
    2afc:	0785                	addi	a5,a5,1
    2afe:	06042223          	sw	zero,100(s0)
    2b02:	00042023          	sw	zero,0(s0)
    2b06:	00042223          	sw	zero,4(s0)
    2b0a:	00042423          	sw	zero,8(s0)
    2b0e:	c45c                	sw	a5,12(s0)
    2b10:	00042823          	sw	zero,16(s0)
    2b14:	00042a23          	sw	zero,20(s0)
    2b18:	00042c23          	sw	zero,24(s0)
    2b1c:	4621                	li	a2,8
    2b1e:	4581                	li	a1,0
    2b20:	05c40513          	addi	a0,s0,92
    2b24:	9acfe0ef          	jal	ra,cd0 <memset>
    2b28:	02042823          	sw	zero,48(s0)
    2b2c:	02042a23          	sw	zero,52(s0)
    2b30:	04042223          	sw	zero,68(s0)
    2b34:	04042423          	sw	zero,72(s0)
    2b38:	bf55                	j	2aec <__sfp+0x4c>

00002b3a <__sfp_lock_acquire>:
    2b3a:	8082                	ret

00002b3c <__sfp_lock_release>:
    2b3c:	8082                	ret

00002b3e <__sinit_lock_acquire>:
    2b3e:	8082                	ret

00002b40 <__sinit_lock_release>:
    2b40:	8082                	ret

00002b42 <__fp_lock_all>:
    2b42:	000035b7          	lui	a1,0x3
    2b46:	1c01a503          	lw	a0,448(gp) # e038 <_impure_ptr>
    2b4a:	98658593          	addi	a1,a1,-1658 # 2986 <__fp_lock>
    2b4e:	a3b1                	j	309a <_fwalk>

00002b50 <__fp_unlock_all>:
    2b50:	000035b7          	lui	a1,0x3
    2b54:	1c01a503          	lw	a0,448(gp) # e038 <_impure_ptr>
    2b58:	a0058593          	addi	a1,a1,-1536 # 2a00 <__fp_unlock>
    2b5c:	ab3d                	j	309a <_fwalk>

00002b5e <_malloc_trim_r>:
    2b5e:	7179                	addi	sp,sp,-48
    2b60:	d04a                	sw	s2,32(sp)
    2b62:	d422                	sw	s0,40(sp)
    2b64:	d226                	sw	s1,36(sp)
    2b66:	ce4e                	sw	s3,28(sp)
    2b68:	c62e                	sw	a1,12(sp)
    2b6a:	d606                	sw	ra,44(sp)
    2b6c:	89aa                	mv	s3,a0
    2b6e:	d9418913          	addi	s2,gp,-620 # dc0c <__malloc_av_>
    2b72:	40a020ef          	jal	ra,4f7c <__malloc_lock>
    2b76:	00892783          	lw	a5,8(s2)
    2b7a:	45b2                	lw	a1,12(sp)
    2b7c:	43c4                	lw	s1,4(a5)
    2b7e:	6785                	lui	a5,0x1
    2b80:	fef78413          	addi	s0,a5,-17 # fef <_vfprintf_r+0xdb>
    2b84:	98f1                	andi	s1,s1,-4
    2b86:	8c0d                	sub	s0,s0,a1
    2b88:	9426                	add	s0,s0,s1
    2b8a:	8031                	srli	s0,s0,0xc
    2b8c:	147d                	addi	s0,s0,-1
    2b8e:	0432                	slli	s0,s0,0xc
    2b90:	00f45d63          	ble	a5,s0,2baa <_malloc_trim_r+0x4c>
    2b94:	854e                	mv	a0,s3
    2b96:	3e8020ef          	jal	ra,4f7e <__malloc_unlock>
    2b9a:	4501                	li	a0,0
    2b9c:	50b2                	lw	ra,44(sp)
    2b9e:	5422                	lw	s0,40(sp)
    2ba0:	5492                	lw	s1,36(sp)
    2ba2:	5902                	lw	s2,32(sp)
    2ba4:	49f2                	lw	s3,28(sp)
    2ba6:	6145                	addi	sp,sp,48
    2ba8:	8082                	ret
    2baa:	4581                	li	a1,0
    2bac:	854e                	mv	a0,s3
    2bae:	0a6030ef          	jal	ra,5c54 <_sbrk_r>
    2bb2:	00892783          	lw	a5,8(s2)
    2bb6:	97a6                	add	a5,a5,s1
    2bb8:	fcf51ee3          	bne	a0,a5,2b94 <_malloc_trim_r+0x36>
    2bbc:	408005b3          	neg	a1,s0
    2bc0:	854e                	mv	a0,s3
    2bc2:	092030ef          	jal	ra,5c54 <_sbrk_r>
    2bc6:	57fd                	li	a5,-1
    2bc8:	02f51663          	bne	a0,a5,2bf4 <_malloc_trim_r+0x96>
    2bcc:	4581                	li	a1,0
    2bce:	854e                	mv	a0,s3
    2bd0:	084030ef          	jal	ra,5c54 <_sbrk_r>
    2bd4:	00892703          	lw	a4,8(s2)
    2bd8:	46bd                	li	a3,15
    2bda:	40e507b3          	sub	a5,a0,a4
    2bde:	faf6dbe3          	ble	a5,a3,2b94 <_malloc_trim_r+0x36>
    2be2:	1c41a683          	lw	a3,452(gp) # e03c <__malloc_sbrk_base>
    2be6:	0017e793          	ori	a5,a5,1
    2bea:	8d15                	sub	a0,a0,a3
    2bec:	1ca1ae23          	sw	a0,476(gp) # e054 <__malloc_current_mallinfo>
    2bf0:	c35c                	sw	a5,4(a4)
    2bf2:	b74d                	j	2b94 <_malloc_trim_r+0x36>
    2bf4:	00892783          	lw	a5,8(s2)
    2bf8:	8c81                	sub	s1,s1,s0
    2bfa:	0014e493          	ori	s1,s1,1
    2bfe:	c3c4                	sw	s1,4(a5)
    2c00:	1dc1a783          	lw	a5,476(gp) # e054 <__malloc_current_mallinfo>
    2c04:	854e                	mv	a0,s3
    2c06:	40878433          	sub	s0,a5,s0
    2c0a:	1c81ae23          	sw	s0,476(gp) # e054 <__malloc_current_mallinfo>
    2c0e:	370020ef          	jal	ra,4f7e <__malloc_unlock>
    2c12:	4505                	li	a0,1
    2c14:	b761                	j	2b9c <_malloc_trim_r+0x3e>

00002c16 <_free_r>:
    2c16:	18058e63          	beqz	a1,2db2 <_free_r+0x19c>
    2c1a:	1141                	addi	sp,sp,-16
    2c1c:	c422                	sw	s0,8(sp)
    2c1e:	c226                	sw	s1,4(sp)
    2c20:	842a                	mv	s0,a0
    2c22:	84ae                	mv	s1,a1
    2c24:	c606                	sw	ra,12(sp)
    2c26:	356020ef          	jal	ra,4f7c <__malloc_lock>
    2c2a:	ffc4a503          	lw	a0,-4(s1)
    2c2e:	ffe57793          	andi	a5,a0,-2
    2c32:	ff848693          	addi	a3,s1,-8
    2c36:	d9418813          	addi	a6,gp,-620 # dc0c <__malloc_av_>
    2c3a:	00f685b3          	add	a1,a3,a5
    2c3e:	41d8                	lw	a4,4(a1)
    2c40:	00882803          	lw	a6,8(a6)
    2c44:	9b71                	andi	a4,a4,-4
    2c46:	d9418613          	addi	a2,gp,-620 # dc0c <__malloc_av_>
    2c4a:	8905                	andi	a0,a0,1
    2c4c:	02b81f63          	bne	a6,a1,2c8a <_free_r+0x74>
    2c50:	97ba                	add	a5,a5,a4
    2c52:	e909                	bnez	a0,2c64 <_free_r+0x4e>
    2c54:	ff84a703          	lw	a4,-8(s1)
    2c58:	8e99                	sub	a3,a3,a4
    2c5a:	468c                	lw	a1,8(a3)
    2c5c:	97ba                	add	a5,a5,a4
    2c5e:	46d8                	lw	a4,12(a3)
    2c60:	c5d8                	sw	a4,12(a1)
    2c62:	c70c                	sw	a1,8(a4)
    2c64:	0017e713          	ori	a4,a5,1
    2c68:	c2d8                	sw	a4,4(a3)
    2c6a:	1c81a703          	lw	a4,456(gp) # e040 <__malloc_trim_threshold>
    2c6e:	c614                	sw	a3,8(a2)
    2c70:	00e7e663          	bltu	a5,a4,2c7c <_free_r+0x66>
    2c74:	1d81a583          	lw	a1,472(gp) # e050 <__malloc_top_pad>
    2c78:	8522                	mv	a0,s0
    2c7a:	35d5                	jal	2b5e <_malloc_trim_r>
    2c7c:	8522                	mv	a0,s0
    2c7e:	4422                	lw	s0,8(sp)
    2c80:	40b2                	lw	ra,12(sp)
    2c82:	4492                	lw	s1,4(sp)
    2c84:	0141                	addi	sp,sp,16
    2c86:	2f80206f          	j	4f7e <__malloc_unlock>
    2c8a:	c1d8                	sw	a4,4(a1)
    2c8c:	4801                	li	a6,0
    2c8e:	e105                	bnez	a0,2cae <_free_r+0x98>
    2c90:	ff84a503          	lw	a0,-8(s1)
    2c94:	8e89                	sub	a3,a3,a0
    2c96:	97aa                	add	a5,a5,a0
    2c98:	4688                	lw	a0,8(a3)
    2c9a:	d9c18893          	addi	a7,gp,-612 # dc14 <__malloc_av_+0x8>
    2c9e:	07150a63          	beq	a0,a7,2d12 <_free_r+0xfc>
    2ca2:	00c6a883          	lw	a7,12(a3)
    2ca6:	01152623          	sw	a7,12(a0)
    2caa:	00a8a423          	sw	a0,8(a7)
    2cae:	00e58533          	add	a0,a1,a4
    2cb2:	4148                	lw	a0,4(a0)
    2cb4:	8905                	andi	a0,a0,1
    2cb6:	ed11                	bnez	a0,2cd2 <_free_r+0xbc>
    2cb8:	97ba                	add	a5,a5,a4
    2cba:	4598                	lw	a4,8(a1)
    2cbc:	04081d63          	bnez	a6,2d16 <_free_r+0x100>
    2cc0:	d9c18513          	addi	a0,gp,-612 # dc14 <__malloc_av_+0x8>
    2cc4:	04a71963          	bne	a4,a0,2d16 <_free_r+0x100>
    2cc8:	ca54                	sw	a3,20(a2)
    2cca:	ca14                	sw	a3,16(a2)
    2ccc:	c6d8                	sw	a4,12(a3)
    2cce:	c698                	sw	a4,8(a3)
    2cd0:	4805                	li	a6,1
    2cd2:	0017e713          	ori	a4,a5,1
    2cd6:	c2d8                	sw	a4,4(a3)
    2cd8:	00f68733          	add	a4,a3,a5
    2cdc:	c31c                	sw	a5,0(a4)
    2cde:	f8081fe3          	bnez	a6,2c7c <_free_r+0x66>
    2ce2:	1ff00713          	li	a4,511
    2ce6:	02f76c63          	bltu	a4,a5,2d1e <_free_r+0x108>
    2cea:	838d                	srli	a5,a5,0x3
    2cec:	4027d593          	srai	a1,a5,0x2
    2cf0:	4705                	li	a4,1
    2cf2:	00b71733          	sll	a4,a4,a1
    2cf6:	0785                	addi	a5,a5,1
    2cf8:	424c                	lw	a1,4(a2)
    2cfa:	078e                	slli	a5,a5,0x3
    2cfc:	97b2                	add	a5,a5,a2
    2cfe:	8f4d                	or	a4,a4,a1
    2d00:	c258                	sw	a4,4(a2)
    2d02:	4398                	lw	a4,0(a5)
    2d04:	ff878613          	addi	a2,a5,-8
    2d08:	c6d0                	sw	a2,12(a3)
    2d0a:	c698                	sw	a4,8(a3)
    2d0c:	c394                	sw	a3,0(a5)
    2d0e:	c754                	sw	a3,12(a4)
    2d10:	b7b5                	j	2c7c <_free_r+0x66>
    2d12:	4805                	li	a6,1
    2d14:	bf69                	j	2cae <_free_r+0x98>
    2d16:	45cc                	lw	a1,12(a1)
    2d18:	c74c                	sw	a1,12(a4)
    2d1a:	c598                	sw	a4,8(a1)
    2d1c:	bf5d                	j	2cd2 <_free_r+0xbc>
    2d1e:	0097d593          	srli	a1,a5,0x9
    2d22:	4711                	li	a4,4
    2d24:	02b76b63          	bltu	a4,a1,2d5a <_free_r+0x144>
    2d28:	0067d713          	srli	a4,a5,0x6
    2d2c:	03870713          	addi	a4,a4,56 # 20400038 <__heap_end+0x20000038>
    2d30:	00170593          	addi	a1,a4,1
    2d34:	058e                	slli	a1,a1,0x3
    2d36:	95b2                	add	a1,a1,a2
    2d38:	ff858513          	addi	a0,a1,-8
    2d3c:	418c                	lw	a1,0(a1)
    2d3e:	06b51463          	bne	a0,a1,2da6 <_free_r+0x190>
    2d42:	4785                	li	a5,1
    2d44:	8709                	srai	a4,a4,0x2
    2d46:	00e79733          	sll	a4,a5,a4
    2d4a:	425c                	lw	a5,4(a2)
    2d4c:	8f5d                	or	a4,a4,a5
    2d4e:	c258                	sw	a4,4(a2)
    2d50:	c6c8                	sw	a0,12(a3)
    2d52:	c68c                	sw	a1,8(a3)
    2d54:	c514                	sw	a3,8(a0)
    2d56:	c5d4                	sw	a3,12(a1)
    2d58:	b715                	j	2c7c <_free_r+0x66>
    2d5a:	4751                	li	a4,20
    2d5c:	00b76563          	bltu	a4,a1,2d66 <_free_r+0x150>
    2d60:	05b58713          	addi	a4,a1,91
    2d64:	b7f1                	j	2d30 <_free_r+0x11a>
    2d66:	05400713          	li	a4,84
    2d6a:	00b76763          	bltu	a4,a1,2d78 <_free_r+0x162>
    2d6e:	00c7d713          	srli	a4,a5,0xc
    2d72:	06e70713          	addi	a4,a4,110
    2d76:	bf6d                	j	2d30 <_free_r+0x11a>
    2d78:	15400713          	li	a4,340
    2d7c:	00b76763          	bltu	a4,a1,2d8a <_free_r+0x174>
    2d80:	00f7d713          	srli	a4,a5,0xf
    2d84:	07770713          	addi	a4,a4,119
    2d88:	b765                	j	2d30 <_free_r+0x11a>
    2d8a:	55400513          	li	a0,1364
    2d8e:	07e00713          	li	a4,126
    2d92:	f8b56fe3          	bltu	a0,a1,2d30 <_free_r+0x11a>
    2d96:	0127d713          	srli	a4,a5,0x12
    2d9a:	07c70713          	addi	a4,a4,124
    2d9e:	bf49                	j	2d30 <_free_r+0x11a>
    2da0:	458c                	lw	a1,8(a1)
    2da2:	00b50663          	beq	a0,a1,2dae <_free_r+0x198>
    2da6:	41d8                	lw	a4,4(a1)
    2da8:	9b71                	andi	a4,a4,-4
    2daa:	fee7ebe3          	bltu	a5,a4,2da0 <_free_r+0x18a>
    2dae:	45c8                	lw	a0,12(a1)
    2db0:	b745                	j	2d50 <_free_r+0x13a>
    2db2:	8082                	ret

00002db4 <__sfvwrite_r>:
    2db4:	461c                	lw	a5,8(a2)
    2db6:	e781                	bnez	a5,2dbe <__sfvwrite_r+0xa>
    2db8:	4781                	li	a5,0
    2dba:	853e                	mv	a0,a5
    2dbc:	8082                	ret
    2dbe:	00c5d783          	lhu	a5,12(a1)
    2dc2:	715d                	addi	sp,sp,-80
    2dc4:	c4a2                	sw	s0,72(sp)
    2dc6:	c0ca                	sw	s2,64(sp)
    2dc8:	da56                	sw	s5,52(sp)
    2dca:	c686                	sw	ra,76(sp)
    2dcc:	c2a6                	sw	s1,68(sp)
    2dce:	de4e                	sw	s3,60(sp)
    2dd0:	dc52                	sw	s4,56(sp)
    2dd2:	d85a                	sw	s6,48(sp)
    2dd4:	d65e                	sw	s7,44(sp)
    2dd6:	d462                	sw	s8,40(sp)
    2dd8:	d266                	sw	s9,36(sp)
    2dda:	d06a                	sw	s10,32(sp)
    2ddc:	ce6e                	sw	s11,28(sp)
    2dde:	8ba1                	andi	a5,a5,8
    2de0:	8ab2                	mv	s5,a2
    2de2:	842e                	mv	s0,a1
    2de4:	892a                	mv	s2,a0
    2de6:	cfd9                	beqz	a5,2e84 <__sfvwrite_r+0xd0>
    2de8:	499c                	lw	a5,16(a1)
    2dea:	cfc9                	beqz	a5,2e84 <__sfvwrite_r+0xd0>
    2dec:	00c45783          	lhu	a5,12(s0)
    2df0:	000aaa03          	lw	s4,0(s5)
    2df4:	0027f713          	andi	a4,a5,2
    2df8:	0e071863          	bnez	a4,2ee8 <__sfvwrite_r+0x134>
    2dfc:	8b85                	andi	a5,a5,1
    2dfe:	16078163          	beqz	a5,2f60 <__sfvwrite_r+0x1ac>
    2e02:	4b81                	li	s7,0
    2e04:	4501                	li	a0,0
    2e06:	4b01                	li	s6,0
    2e08:	4981                	li	s3,0
    2e0a:	24098963          	beqz	s3,305c <__sfvwrite_r+0x2a8>
    2e0e:	ed01                	bnez	a0,2e26 <__sfvwrite_r+0x72>
    2e10:	864e                	mv	a2,s3
    2e12:	45a9                	li	a1,10
    2e14:	855a                	mv	a0,s6
    2e16:	050020ef          	jal	ra,4e66 <memchr>
    2e1a:	00198b93          	addi	s7,s3,1
    2e1e:	c501                	beqz	a0,2e26 <__sfvwrite_r+0x72>
    2e20:	0505                	addi	a0,a0,1
    2e22:	41650bb3          	sub	s7,a0,s6
    2e26:	8c5e                	mv	s8,s7
    2e28:	0179f363          	bleu	s7,s3,2e2e <__sfvwrite_r+0x7a>
    2e2c:	8c4e                	mv	s8,s3
    2e2e:	4008                	lw	a0,0(s0)
    2e30:	481c                	lw	a5,16(s0)
    2e32:	4854                	lw	a3,20(s0)
    2e34:	22a7fb63          	bleu	a0,a5,306a <__sfvwrite_r+0x2b6>
    2e38:	4404                	lw	s1,8(s0)
    2e3a:	94b6                	add	s1,s1,a3
    2e3c:	2384d763          	ble	s8,s1,306a <__sfvwrite_r+0x2b6>
    2e40:	85da                	mv	a1,s6
    2e42:	8626                	mv	a2,s1
    2e44:	0fa020ef          	jal	ra,4f3e <memmove>
    2e48:	401c                	lw	a5,0(s0)
    2e4a:	85a2                	mv	a1,s0
    2e4c:	97a6                	add	a5,a5,s1
    2e4e:	c01c                	sw	a5,0(s0)
    2e50:	854a                	mv	a0,s2
    2e52:	aedff0ef          	jal	ra,293e <_fflush_r>
    2e56:	0e051d63          	bnez	a0,2f50 <__sfvwrite_r+0x19c>
    2e5a:	409b8bb3          	sub	s7,s7,s1
    2e5e:	4505                	li	a0,1
    2e60:	000b9763          	bnez	s7,2e6e <__sfvwrite_r+0xba>
    2e64:	85a2                	mv	a1,s0
    2e66:	854a                	mv	a0,s2
    2e68:	ad7ff0ef          	jal	ra,293e <_fflush_r>
    2e6c:	e175                	bnez	a0,2f50 <__sfvwrite_r+0x19c>
    2e6e:	008aa783          	lw	a5,8(s5)
    2e72:	9b26                	add	s6,s6,s1
    2e74:	409989b3          	sub	s3,s3,s1
    2e78:	409784b3          	sub	s1,a5,s1
    2e7c:	009aa423          	sw	s1,8(s5)
    2e80:	f4c9                	bnez	s1,2e0a <__sfvwrite_r+0x56>
    2e82:	a091                	j	2ec6 <__sfvwrite_r+0x112>
    2e84:	85a2                	mv	a1,s0
    2e86:	854a                	mv	a0,s2
    2e88:	f7cff0ef          	jal	ra,2604 <__swsetup_r>
    2e8c:	57fd                	li	a5,-1
    2e8e:	dd39                	beqz	a0,2dec <__sfvwrite_r+0x38>
    2e90:	a825                	j	2ec8 <__sfvwrite_r+0x114>
    2e92:	000a2983          	lw	s3,0(s4)
    2e96:	004a2483          	lw	s1,4(s4)
    2e9a:	0a21                	addi	s4,s4,8
    2e9c:	d8fd                	beqz	s1,2e92 <__sfvwrite_r+0xde>
    2e9e:	86a6                	mv	a3,s1
    2ea0:	009b7363          	bleu	s1,s6,2ea6 <__sfvwrite_r+0xf2>
    2ea4:	86da                	mv	a3,s6
    2ea6:	505c                	lw	a5,36(s0)
    2ea8:	4c4c                	lw	a1,28(s0)
    2eaa:	864e                	mv	a2,s3
    2eac:	854a                	mv	a0,s2
    2eae:	9782                	jalr	a5
    2eb0:	0aa05063          	blez	a0,2f50 <__sfvwrite_r+0x19c>
    2eb4:	008aa783          	lw	a5,8(s5)
    2eb8:	99aa                	add	s3,s3,a0
    2eba:	8c89                	sub	s1,s1,a0
    2ebc:	40a78533          	sub	a0,a5,a0
    2ec0:	00aaa423          	sw	a0,8(s5)
    2ec4:	fd61                	bnez	a0,2e9c <__sfvwrite_r+0xe8>
    2ec6:	4781                	li	a5,0
    2ec8:	40b6                	lw	ra,76(sp)
    2eca:	4426                	lw	s0,72(sp)
    2ecc:	4496                	lw	s1,68(sp)
    2ece:	4906                	lw	s2,64(sp)
    2ed0:	59f2                	lw	s3,60(sp)
    2ed2:	5a62                	lw	s4,56(sp)
    2ed4:	5ad2                	lw	s5,52(sp)
    2ed6:	5b42                	lw	s6,48(sp)
    2ed8:	5bb2                	lw	s7,44(sp)
    2eda:	5c22                	lw	s8,40(sp)
    2edc:	5c92                	lw	s9,36(sp)
    2ede:	5d02                	lw	s10,32(sp)
    2ee0:	4df2                	lw	s11,28(sp)
    2ee2:	853e                	mv	a0,a5
    2ee4:	6161                	addi	sp,sp,80
    2ee6:	8082                	ret
    2ee8:	80000b37          	lui	s6,0x80000
    2eec:	4981                	li	s3,0
    2eee:	4481                	li	s1,0
    2ef0:	c00b4b13          	xori	s6,s6,-1024
    2ef4:	b765                	j	2e9c <__sfvwrite_r+0xe8>
    2ef6:	000a2b03          	lw	s6,0(s4)
    2efa:	004a2483          	lw	s1,4(s4)
    2efe:	0a21                	addi	s4,s4,8
    2f00:	d8fd                	beqz	s1,2ef6 <__sfvwrite_r+0x142>
    2f02:	00c45703          	lhu	a4,12(s0)
    2f06:	441c                	lw	a5,8(s0)
    2f08:	20077693          	andi	a3,a4,512
    2f0c:	4008                	lw	a0,0(s0)
    2f0e:	0e068a63          	beqz	a3,3002 <__sfvwrite_r+0x24e>
    2f12:	08f4ea63          	bltu	s1,a5,2fa6 <__sfvwrite_r+0x1f2>
    2f16:	48077693          	andi	a3,a4,1152
    2f1a:	c6d1                	beqz	a3,2fa6 <__sfvwrite_r+0x1f2>
    2f1c:	01442d83          	lw	s11,20(s0)
    2f20:	480c                	lw	a1,16(s0)
    2f22:	03bc8db3          	mul	s11,s9,s11
    2f26:	40b509b3          	sub	s3,a0,a1
    2f2a:	03adcdb3          	div	s11,s11,s10
    2f2e:	00198793          	addi	a5,s3,1
    2f32:	97a6                	add	a5,a5,s1
    2f34:	00fdf363          	bleu	a5,s11,2f3a <__sfvwrite_r+0x186>
    2f38:	8dbe                	mv	s11,a5
    2f3a:	40077713          	andi	a4,a4,1024
    2f3e:	c34d                	beqz	a4,2fe0 <__sfvwrite_r+0x22c>
    2f40:	85ee                	mv	a1,s11
    2f42:	854a                	mv	a0,s2
    2f44:	247010ef          	jal	ra,498a <_malloc_r>
    2f48:	e51d                	bnez	a0,2f76 <__sfvwrite_r+0x1c2>
    2f4a:	47b1                	li	a5,12
    2f4c:	00f92023          	sw	a5,0(s2)
    2f50:	00c45783          	lhu	a5,12(s0)
    2f54:	0407e793          	ori	a5,a5,64
    2f58:	00f41623          	sh	a5,12(s0)
    2f5c:	57fd                	li	a5,-1
    2f5e:	b7ad                	j	2ec8 <__sfvwrite_r+0x114>
    2f60:	80000bb7          	lui	s7,0x80000
    2f64:	ffebcc13          	xori	s8,s7,-2
    2f68:	4b01                	li	s6,0
    2f6a:	4481                	li	s1,0
    2f6c:	fffbcb93          	not	s7,s7
    2f70:	4c8d                	li	s9,3
    2f72:	4d09                	li	s10,2
    2f74:	b771                	j	2f00 <__sfvwrite_r+0x14c>
    2f76:	480c                	lw	a1,16(s0)
    2f78:	864e                	mv	a2,s3
    2f7a:	c62a                	sw	a0,12(sp)
    2f7c:	705010ef          	jal	ra,4e80 <memcpy>
    2f80:	00c45703          	lhu	a4,12(s0)
    2f84:	47b2                	lw	a5,12(sp)
    2f86:	b7f77713          	andi	a4,a4,-1153
    2f8a:	08076713          	ori	a4,a4,128
    2f8e:	00e41623          	sh	a4,12(s0)
    2f92:	c81c                	sw	a5,16(s0)
    2f94:	01b42a23          	sw	s11,20(s0)
    2f98:	97ce                	add	a5,a5,s3
    2f9a:	413d8db3          	sub	s11,s11,s3
    2f9e:	c01c                	sw	a5,0(s0)
    2fa0:	01b42423          	sw	s11,8(s0)
    2fa4:	87a6                	mv	a5,s1
    2fa6:	89a6                	mv	s3,s1
    2fa8:	00f4f363          	bleu	a5,s1,2fae <__sfvwrite_r+0x1fa>
    2fac:	87a6                	mv	a5,s1
    2fae:	4008                	lw	a0,0(s0)
    2fb0:	863e                	mv	a2,a5
    2fb2:	85da                	mv	a1,s6
    2fb4:	c63e                	sw	a5,12(sp)
    2fb6:	789010ef          	jal	ra,4f3e <memmove>
    2fba:	47b2                	lw	a5,12(sp)
    2fbc:	4418                	lw	a4,8(s0)
    2fbe:	8f1d                	sub	a4,a4,a5
    2fc0:	c418                	sw	a4,8(s0)
    2fc2:	4018                	lw	a4,0(s0)
    2fc4:	97ba                	add	a5,a5,a4
    2fc6:	c01c                	sw	a5,0(s0)
    2fc8:	008aa783          	lw	a5,8(s5)
    2fcc:	9b4e                	add	s6,s6,s3
    2fce:	413484b3          	sub	s1,s1,s3
    2fd2:	413789b3          	sub	s3,a5,s3
    2fd6:	013aa423          	sw	s3,8(s5)
    2fda:	f20993e3          	bnez	s3,2f00 <__sfvwrite_r+0x14c>
    2fde:	b5e5                	j	2ec6 <__sfvwrite_r+0x112>
    2fe0:	866e                	mv	a2,s11
    2fe2:	854a                	mv	a0,s2
    2fe4:	0d5020ef          	jal	ra,58b8 <_realloc_r>
    2fe8:	87aa                	mv	a5,a0
    2fea:	f545                	bnez	a0,2f92 <__sfvwrite_r+0x1de>
    2fec:	480c                	lw	a1,16(s0)
    2fee:	854a                	mv	a0,s2
    2ff0:	c27ff0ef          	jal	ra,2c16 <_free_r>
    2ff4:	00c45783          	lhu	a5,12(s0)
    2ff8:	f7f7f793          	andi	a5,a5,-129
    2ffc:	00f41623          	sh	a5,12(s0)
    3000:	b7a9                	j	2f4a <__sfvwrite_r+0x196>
    3002:	4818                	lw	a4,16(s0)
    3004:	00a76563          	bltu	a4,a0,300e <__sfvwrite_r+0x25a>
    3008:	4854                	lw	a3,20(s0)
    300a:	02d4f863          	bleu	a3,s1,303a <__sfvwrite_r+0x286>
    300e:	89be                	mv	s3,a5
    3010:	00f4f363          	bleu	a5,s1,3016 <__sfvwrite_r+0x262>
    3014:	89a6                	mv	s3,s1
    3016:	864e                	mv	a2,s3
    3018:	85da                	mv	a1,s6
    301a:	725010ef          	jal	ra,4f3e <memmove>
    301e:	441c                	lw	a5,8(s0)
    3020:	4018                	lw	a4,0(s0)
    3022:	413787b3          	sub	a5,a5,s3
    3026:	974e                	add	a4,a4,s3
    3028:	c41c                	sw	a5,8(s0)
    302a:	c018                	sw	a4,0(s0)
    302c:	ffd1                	bnez	a5,2fc8 <__sfvwrite_r+0x214>
    302e:	85a2                	mv	a1,s0
    3030:	854a                	mv	a0,s2
    3032:	90dff0ef          	jal	ra,293e <_fflush_r>
    3036:	d949                	beqz	a0,2fc8 <__sfvwrite_r+0x214>
    3038:	bf21                	j	2f50 <__sfvwrite_r+0x19c>
    303a:	87de                	mv	a5,s7
    303c:	009c6363          	bltu	s8,s1,3042 <__sfvwrite_r+0x28e>
    3040:	87a6                	mv	a5,s1
    3042:	02d7c7b3          	div	a5,a5,a3
    3046:	5058                	lw	a4,36(s0)
    3048:	4c4c                	lw	a1,28(s0)
    304a:	02d786b3          	mul	a3,a5,a3
    304e:	865a                	mv	a2,s6
    3050:	854a                	mv	a0,s2
    3052:	9702                	jalr	a4
    3054:	89aa                	mv	s3,a0
    3056:	f6a049e3          	bgtz	a0,2fc8 <__sfvwrite_r+0x214>
    305a:	bddd                	j	2f50 <__sfvwrite_r+0x19c>
    305c:	000a2b03          	lw	s6,0(s4)
    3060:	004a2983          	lw	s3,4(s4)
    3064:	4501                	li	a0,0
    3066:	0a21                	addi	s4,s4,8
    3068:	b34d                	j	2e0a <__sfvwrite_r+0x56>
    306a:	00dc4b63          	blt	s8,a3,3080 <__sfvwrite_r+0x2cc>
    306e:	505c                	lw	a5,36(s0)
    3070:	4c4c                	lw	a1,28(s0)
    3072:	865a                	mv	a2,s6
    3074:	854a                	mv	a0,s2
    3076:	9782                	jalr	a5
    3078:	84aa                	mv	s1,a0
    307a:	dea040e3          	bgtz	a0,2e5a <__sfvwrite_r+0xa6>
    307e:	bdc9                	j	2f50 <__sfvwrite_r+0x19c>
    3080:	8662                	mv	a2,s8
    3082:	85da                	mv	a1,s6
    3084:	6bb010ef          	jal	ra,4f3e <memmove>
    3088:	441c                	lw	a5,8(s0)
    308a:	84e2                	mv	s1,s8
    308c:	418787b3          	sub	a5,a5,s8
    3090:	c41c                	sw	a5,8(s0)
    3092:	401c                	lw	a5,0(s0)
    3094:	97e2                	add	a5,a5,s8
    3096:	c01c                	sw	a5,0(s0)
    3098:	b3c9                	j	2e5a <__sfvwrite_r+0xa6>

0000309a <_fwalk>:
    309a:	7179                	addi	sp,sp,-48
    309c:	d422                	sw	s0,40(sp)
    309e:	d04a                	sw	s2,32(sp)
    30a0:	cc52                	sw	s4,24(sp)
    30a2:	ca56                	sw	s5,20(sp)
    30a4:	d606                	sw	ra,44(sp)
    30a6:	d226                	sw	s1,36(sp)
    30a8:	ce4e                	sw	s3,28(sp)
    30aa:	2e050413          	addi	s0,a0,736
    30ae:	4901                	li	s2,0
    30b0:	4a05                	li	s4,1
    30b2:	5afd                	li	s5,-1
    30b4:	e819                	bnez	s0,30ca <_fwalk+0x30>
    30b6:	50b2                	lw	ra,44(sp)
    30b8:	5422                	lw	s0,40(sp)
    30ba:	854a                	mv	a0,s2
    30bc:	5492                	lw	s1,36(sp)
    30be:	5902                	lw	s2,32(sp)
    30c0:	49f2                	lw	s3,28(sp)
    30c2:	4a62                	lw	s4,24(sp)
    30c4:	4ad2                	lw	s5,20(sp)
    30c6:	6145                	addi	sp,sp,48
    30c8:	8082                	ret
    30ca:	4404                	lw	s1,8(s0)
    30cc:	00442983          	lw	s3,4(s0)
    30d0:	19fd                	addi	s3,s3,-1
    30d2:	0009d463          	bgez	s3,30da <_fwalk+0x40>
    30d6:	4000                	lw	s0,0(s0)
    30d8:	bff1                	j	30b4 <_fwalk+0x1a>
    30da:	00c4d783          	lhu	a5,12(s1)
    30de:	00fa7c63          	bleu	a5,s4,30f6 <_fwalk+0x5c>
    30e2:	00e49783          	lh	a5,14(s1)
    30e6:	01578863          	beq	a5,s5,30f6 <_fwalk+0x5c>
    30ea:	c62e                	sw	a1,12(sp)
    30ec:	8526                	mv	a0,s1
    30ee:	9582                	jalr	a1
    30f0:	45b2                	lw	a1,12(sp)
    30f2:	00a96933          	or	s2,s2,a0
    30f6:	06848493          	addi	s1,s1,104
    30fa:	bfd9                	j	30d0 <_fwalk+0x36>

000030fc <_fwalk_reent>:
    30fc:	7179                	addi	sp,sp,-48
    30fe:	d422                	sw	s0,40(sp)
    3100:	d04a                	sw	s2,32(sp)
    3102:	cc52                	sw	s4,24(sp)
    3104:	ca56                	sw	s5,20(sp)
    3106:	c85a                	sw	s6,16(sp)
    3108:	c65e                	sw	s7,12(sp)
    310a:	d606                	sw	ra,44(sp)
    310c:	d226                	sw	s1,36(sp)
    310e:	ce4e                	sw	s3,28(sp)
    3110:	8a2a                	mv	s4,a0
    3112:	8aae                	mv	s5,a1
    3114:	2e050413          	addi	s0,a0,736
    3118:	4901                	li	s2,0
    311a:	4b05                	li	s6,1
    311c:	5bfd                	li	s7,-1
    311e:	ec09                	bnez	s0,3138 <_fwalk_reent+0x3c>
    3120:	50b2                	lw	ra,44(sp)
    3122:	5422                	lw	s0,40(sp)
    3124:	854a                	mv	a0,s2
    3126:	5492                	lw	s1,36(sp)
    3128:	5902                	lw	s2,32(sp)
    312a:	49f2                	lw	s3,28(sp)
    312c:	4a62                	lw	s4,24(sp)
    312e:	4ad2                	lw	s5,20(sp)
    3130:	4b42                	lw	s6,16(sp)
    3132:	4bb2                	lw	s7,12(sp)
    3134:	6145                	addi	sp,sp,48
    3136:	8082                	ret
    3138:	4404                	lw	s1,8(s0)
    313a:	00442983          	lw	s3,4(s0)
    313e:	19fd                	addi	s3,s3,-1
    3140:	0009d463          	bgez	s3,3148 <_fwalk_reent+0x4c>
    3144:	4000                	lw	s0,0(s0)
    3146:	bfe1                	j	311e <_fwalk_reent+0x22>
    3148:	00c4d783          	lhu	a5,12(s1)
    314c:	00fb7b63          	bleu	a5,s6,3162 <_fwalk_reent+0x66>
    3150:	00e49783          	lh	a5,14(s1)
    3154:	01778763          	beq	a5,s7,3162 <_fwalk_reent+0x66>
    3158:	85a6                	mv	a1,s1
    315a:	8552                	mv	a0,s4
    315c:	9a82                	jalr	s5
    315e:	00a96933          	or	s2,s2,a0
    3162:	06848493          	addi	s1,s1,104
    3166:	bfe1                	j	313e <_fwalk_reent+0x42>

00003168 <eclear>:
    3168:	01450793          	addi	a5,a0,20
    316c:	0509                	addi	a0,a0,2
    316e:	fe051f23          	sh	zero,-2(a0)
    3172:	fef51de3          	bne	a0,a5,316c <eclear+0x4>
    3176:	8082                	ret

00003178 <emov>:
    3178:	01450793          	addi	a5,a0,20
    317c:	0509                	addi	a0,a0,2
    317e:	ffe55703          	lhu	a4,-2(a0)
    3182:	0589                	addi	a1,a1,2
    3184:	fee59f23          	sh	a4,-2(a1)
    3188:	fea79ae3          	bne	a5,a0,317c <emov+0x4>
    318c:	8082                	ret

0000318e <ecleaz>:
    318e:	01a50793          	addi	a5,a0,26
    3192:	0509                	addi	a0,a0,2
    3194:	fe051f23          	sh	zero,-2(a0)
    3198:	fef51de3          	bne	a0,a5,3192 <ecleaz+0x4>
    319c:	8082                	ret

0000319e <emovz>:
    319e:	01850713          	addi	a4,a0,24
    31a2:	87ae                	mv	a5,a1
    31a4:	0509                	addi	a0,a0,2
    31a6:	ffe55683          	lhu	a3,-2(a0)
    31aa:	0789                	addi	a5,a5,2
    31ac:	fed79f23          	sh	a3,-2(a5)
    31b0:	fea71ae3          	bne	a4,a0,31a4 <emovz+0x6>
    31b4:	00059c23          	sh	zero,24(a1)
    31b8:	8082                	ret

000031ba <ecmpm>:
    31ba:	00450793          	addi	a5,a0,4
    31be:	0591                	addi	a1,a1,4
    31c0:	0569                	addi	a0,a0,26
    31c2:	0789                	addi	a5,a5,2
    31c4:	0589                	addi	a1,a1,2
    31c6:	ffe7d683          	lhu	a3,-2(a5)
    31ca:	ffe5d703          	lhu	a4,-2(a1)
    31ce:	00e69663          	bne	a3,a4,31da <ecmpm+0x20>
    31d2:	fef518e3          	bne	a0,a5,31c2 <ecmpm+0x8>
    31d6:	4501                	li	a0,0
    31d8:	8082                	ret
    31da:	4505                	li	a0,1
    31dc:	00d76363          	bltu	a4,a3,31e2 <ecmpm+0x28>
    31e0:	557d                	li	a0,-1
    31e2:	8082                	ret

000031e4 <eshdn1>:
    31e4:	00450693          	addi	a3,a0,4
    31e8:	4781                	li	a5,0
    31ea:	0569                	addi	a0,a0,26
    31ec:	7661                	lui	a2,0xffff8
    31ee:	0006d703          	lhu	a4,0(a3)
    31f2:	00177593          	andi	a1,a4,1
    31f6:	c199                	beqz	a1,31fc <eshdn1+0x18>
    31f8:	0017e793          	ori	a5,a5,1
    31fc:	0027f593          	andi	a1,a5,2
    3200:	8305                	srli	a4,a4,0x1
    3202:	e991                	bnez	a1,3216 <eshdn1+0x32>
    3204:	0786                	slli	a5,a5,0x1
    3206:	00e69023          	sh	a4,0(a3)
    320a:	07c2                	slli	a5,a5,0x10
    320c:	0689                	addi	a3,a3,2
    320e:	83c1                	srli	a5,a5,0x10
    3210:	fcd51fe3          	bne	a0,a3,31ee <eshdn1+0xa>
    3214:	8082                	ret
    3216:	8f51                	or	a4,a4,a2
    3218:	b7f5                	j	3204 <eshdn1+0x20>

0000321a <eshup1>:
    321a:	01650693          	addi	a3,a0,22
    321e:	4701                	li	a4,0
    3220:	0026d783          	lhu	a5,2(a3)
    3224:	01079613          	slli	a2,a5,0x10
    3228:	8641                	srai	a2,a2,0x10
    322a:	00065463          	bgez	a2,3232 <eshup1+0x18>
    322e:	00176713          	ori	a4,a4,1
    3232:	0786                	slli	a5,a5,0x1
    3234:	07c2                	slli	a5,a5,0x10
    3236:	00277613          	andi	a2,a4,2
    323a:	83c1                	srli	a5,a5,0x10
    323c:	ea11                	bnez	a2,3250 <eshup1+0x36>
    323e:	0706                	slli	a4,a4,0x1
    3240:	00f69123          	sh	a5,2(a3)
    3244:	0742                	slli	a4,a4,0x10
    3246:	16f9                	addi	a3,a3,-2
    3248:	8341                	srli	a4,a4,0x10
    324a:	fcd51be3          	bne	a0,a3,3220 <eshup1+0x6>
    324e:	8082                	ret
    3250:	0017e793          	ori	a5,a5,1
    3254:	b7ed                	j	323e <eshup1+0x24>

00003256 <eshdn8>:
    3256:	00450793          	addi	a5,a0,4
    325a:	4701                	li	a4,0
    325c:	0569                	addi	a0,a0,26
    325e:	0007d683          	lhu	a3,0(a5)
    3262:	0789                	addi	a5,a5,2
    3264:	0086d613          	srli	a2,a3,0x8
    3268:	8f51                	or	a4,a4,a2
    326a:	fee79f23          	sh	a4,-2(a5)
    326e:	00869713          	slli	a4,a3,0x8
    3272:	0742                	slli	a4,a4,0x10
    3274:	8341                	srli	a4,a4,0x10
    3276:	fef514e3          	bne	a0,a5,325e <eshdn8+0x8>
    327a:	8082                	ret

0000327c <eshup8>:
    327c:	01650793          	addi	a5,a0,22
    3280:	4701                	li	a4,0
    3282:	0027d683          	lhu	a3,2(a5)
    3286:	17f9                	addi	a5,a5,-2
    3288:	00869613          	slli	a2,a3,0x8
    328c:	8f51                	or	a4,a4,a2
    328e:	00e79223          	sh	a4,4(a5)
    3292:	0086d713          	srli	a4,a3,0x8
    3296:	fef516e3          	bne	a0,a5,3282 <eshup8+0x6>
    329a:	8082                	ret

0000329c <eshup6>:
    329c:	00450793          	addi	a5,a0,4
    32a0:	01850713          	addi	a4,a0,24
    32a4:	0789                	addi	a5,a5,2
    32a6:	0007d683          	lhu	a3,0(a5)
    32aa:	fed79f23          	sh	a3,-2(a5)
    32ae:	fef71be3          	bne	a4,a5,32a4 <eshup6+0x8>
    32b2:	00051c23          	sh	zero,24(a0)
    32b6:	8082                	ret

000032b8 <eshdn6>:
    32b8:	01850793          	addi	a5,a0,24
    32bc:	01a50713          	addi	a4,a0,26
    32c0:	00450693          	addi	a3,a0,4
    32c4:	17f9                	addi	a5,a5,-2
    32c6:	0007d603          	lhu	a2,0(a5)
    32ca:	1779                	addi	a4,a4,-2
    32cc:	00c71023          	sh	a2,0(a4)
    32d0:	fef69ae3          	bne	a3,a5,32c4 <eshdn6+0xc>
    32d4:	00051223          	sh	zero,4(a0)
    32d8:	8082                	ret

000032da <eaddm>:
    32da:	05e1                	addi	a1,a1,24
    32dc:	01650713          	addi	a4,a0,22
    32e0:	4681                	li	a3,0
    32e2:	00275783          	lhu	a5,2(a4)
    32e6:	0005d603          	lhu	a2,0(a1)
    32ea:	1779                	addi	a4,a4,-2
    32ec:	97b2                	add	a5,a5,a2
    32ee:	97b6                	add	a5,a5,a3
    32f0:	86be                	mv	a3,a5
    32f2:	00d59023          	sh	a3,0(a1)
    32f6:	83c1                	srli	a5,a5,0x10
    32f8:	15f9                	addi	a1,a1,-2
    32fa:	0017f693          	andi	a3,a5,1
    32fe:	fee512e3          	bne	a0,a4,32e2 <eaddm+0x8>
    3302:	8082                	ret

00003304 <esubm>:
    3304:	05e1                	addi	a1,a1,24
    3306:	01650713          	addi	a4,a0,22
    330a:	4681                	li	a3,0
    330c:	0005d783          	lhu	a5,0(a1)
    3310:	00275603          	lhu	a2,2(a4)
    3314:	1779                	addi	a4,a4,-2
    3316:	8f91                	sub	a5,a5,a2
    3318:	8f95                	sub	a5,a5,a3
    331a:	86be                	mv	a3,a5
    331c:	00d59023          	sh	a3,0(a1)
    3320:	83c1                	srli	a5,a5,0x10
    3322:	15f9                	addi	a1,a1,-2
    3324:	0017f693          	andi	a3,a5,1
    3328:	fee512e3          	bne	a0,a4,330c <esubm+0x8>
    332c:	8082                	ret

0000332e <m16m>:
    332e:	1101                	addi	sp,sp,-32
    3330:	6341                	lui	t1,0x10
    3332:	01858893          	addi	a7,a1,24
    3336:	00012d23          	sw	zero,26(sp)
    333a:	0591                	addi	a1,a1,4
    333c:	0874                	addi	a3,sp,28
    333e:	137d                	addi	t1,t1,-1
    3340:	0008d703          	lhu	a4,0(a7)
    3344:	16f9                	addi	a3,a3,-2
    3346:	18f9                	addi	a7,a7,-2
    3348:	e70d                	bnez	a4,3372 <m16m+0x44>
    334a:	fe069f23          	sh	zero,-2(a3)
    334e:	ff1599e3          	bne	a1,a7,3340 <m16m+0x12>
    3352:	4791                	li	a5,4
    3354:	4769                	li	a4,26
    3356:	0048                	addi	a0,sp,4
    3358:	00f505b3          	add	a1,a0,a5
    335c:	0005d583          	lhu	a1,0(a1)
    3360:	00f606b3          	add	a3,a2,a5
    3364:	00b69023          	sh	a1,0(a3)
    3368:	0789                	addi	a5,a5,2
    336a:	fee796e3          	bne	a5,a4,3356 <m16m+0x28>
    336e:	6105                	addi	sp,sp,32
    3370:	8082                	ret
    3372:	02a70733          	mul	a4,a4,a0
    3376:	0026d803          	lhu	a6,2(a3)
    337a:	006777b3          	and	a5,a4,t1
    337e:	97c2                	add	a5,a5,a6
    3380:	883e                	mv	a6,a5
    3382:	01069123          	sh	a6,2(a3)
    3386:	0107d813          	srli	a6,a5,0x10
    338a:	01075793          	srli	a5,a4,0x10
    338e:	0006d703          	lhu	a4,0(a3)
    3392:	97ba                	add	a5,a5,a4
    3394:	97c2                	add	a5,a5,a6
    3396:	873e                	mv	a4,a5
    3398:	83c1                	srli	a5,a5,0x10
    339a:	00e69023          	sh	a4,0(a3)
    339e:	fef69f23          	sh	a5,-2(a3)
    33a2:	b775                	j	334e <m16m+0x20>

000033a4 <eisnan>:
    33a4:	01255783          	lhu	a5,18(a0)
    33a8:	fff7c793          	not	a5,a5
    33ac:	01179713          	slli	a4,a5,0x11
    33b0:	eb09                	bnez	a4,33c2 <eisnan+0x1e>
    33b2:	01250793          	addi	a5,a0,18
    33b6:	0509                	addi	a0,a0,2
    33b8:	ffe55703          	lhu	a4,-2(a0)
    33bc:	e709                	bnez	a4,33c6 <eisnan+0x22>
    33be:	fea79ce3          	bne	a5,a0,33b6 <eisnan+0x12>
    33c2:	4501                	li	a0,0
    33c4:	8082                	ret
    33c6:	4505                	li	a0,1
    33c8:	8082                	ret

000033ca <eisneg>:
    33ca:	1141                	addi	sp,sp,-16
    33cc:	c422                	sw	s0,8(sp)
    33ce:	c606                	sw	ra,12(sp)
    33d0:	842a                	mv	s0,a0
    33d2:	3fc9                	jal	33a4 <eisnan>
    33d4:	e901                	bnez	a0,33e4 <eisneg+0x1a>
    33d6:	01241503          	lh	a0,18(s0)
    33da:	817d                	srli	a0,a0,0x1f
    33dc:	40b2                	lw	ra,12(sp)
    33de:	4422                	lw	s0,8(sp)
    33e0:	0141                	addi	sp,sp,16
    33e2:	8082                	ret
    33e4:	4501                	li	a0,0
    33e6:	bfdd                	j	33dc <eisneg+0x12>

000033e8 <emovi>:
    33e8:	1141                	addi	sp,sp,-16
    33ea:	01251783          	lh	a5,18(a0)
    33ee:	c606                	sw	ra,12(sp)
    33f0:	c422                	sw	s0,8(sp)
    33f2:	c226                	sw	s1,4(sp)
    33f4:	c04a                	sw	s2,0(sp)
    33f6:	0407d863          	bgez	a5,3446 <emovi+0x5e>
    33fa:	57fd                	li	a5,-1
    33fc:	00f59023          	sh	a5,0(a1)
    3400:	01255703          	lhu	a4,18(a0)
    3404:	67a1                	lui	a5,0x8
    3406:	17fd                	addi	a5,a5,-1
    3408:	8f7d                	and	a4,a4,a5
    340a:	00e59123          	sh	a4,2(a1)
    340e:	01050913          	addi	s2,a0,16
    3412:	04f71763          	bne	a4,a5,3460 <emovi+0x78>
    3416:	842e                	mv	s0,a1
    3418:	84aa                	mv	s1,a0
    341a:	3769                	jal	33a4 <eisnan>
    341c:	c905                	beqz	a0,344c <emovi+0x64>
    341e:	00640793          	addi	a5,s0,6
    3422:	00041223          	sh	zero,4(s0)
    3426:	ffc48513          	addi	a0,s1,-4
    342a:	1979                	addi	s2,s2,-2
    342c:	00295703          	lhu	a4,2(s2)
    3430:	0789                	addi	a5,a5,2
    3432:	fee79f23          	sh	a4,-2(a5) # 7ffe <__ascii_wctomb+0x1a>
    3436:	fea91ae3          	bne	s2,a0,342a <emovi+0x42>
    343a:	40b2                	lw	ra,12(sp)
    343c:	4422                	lw	s0,8(sp)
    343e:	4492                	lw	s1,4(sp)
    3440:	4902                	lw	s2,0(sp)
    3442:	0141                	addi	sp,sp,16
    3444:	8082                	ret
    3446:	00059023          	sh	zero,0(a1)
    344a:	bf5d                	j	3400 <emovi+0x18>
    344c:	00440793          	addi	a5,s0,4
    3450:	01a40593          	addi	a1,s0,26
    3454:	0789                	addi	a5,a5,2
    3456:	fe079f23          	sh	zero,-2(a5)
    345a:	feb79de3          	bne	a5,a1,3454 <emovi+0x6c>
    345e:	bff1                	j	343a <emovi+0x52>
    3460:	00658793          	addi	a5,a1,6
    3464:	00059223          	sh	zero,4(a1)
    3468:	1579                	addi	a0,a0,-2
    346a:	1979                	addi	s2,s2,-2
    346c:	00295703          	lhu	a4,2(s2)
    3470:	0789                	addi	a5,a5,2
    3472:	fee79f23          	sh	a4,-2(a5)
    3476:	fea91ae3          	bne	s2,a0,346a <emovi+0x82>
    347a:	00059c23          	sh	zero,24(a1)
    347e:	bf75                	j	343a <emovi+0x52>

00003480 <ecmp>:
    3480:	715d                	addi	sp,sp,-80
    3482:	c2a6                	sw	s1,68(sp)
    3484:	c0ca                	sw	s2,64(sp)
    3486:	c686                	sw	ra,76(sp)
    3488:	c4a2                	sw	s0,72(sp)
    348a:	892a                	mv	s2,a0
    348c:	84ae                	mv	s1,a1
    348e:	3f19                	jal	33a4 <eisnan>
    3490:	e941                	bnez	a0,3520 <ecmp+0xa0>
    3492:	8526                	mv	a0,s1
    3494:	3f01                	jal	33a4 <eisnan>
    3496:	842a                	mv	s0,a0
    3498:	e541                	bnez	a0,3520 <ecmp+0xa0>
    349a:	002c                	addi	a1,sp,8
    349c:	854a                	mv	a0,s2
    349e:	37a9                	jal	33e8 <emovi>
    34a0:	104c                	addi	a1,sp,36
    34a2:	8526                	mv	a0,s1
    34a4:	3791                	jal	33e8 <emovi>
    34a6:	00815703          	lhu	a4,8(sp)
    34aa:	02415783          	lhu	a5,36(sp)
    34ae:	02e78e63          	beq	a5,a4,34ea <ecmp+0x6a>
    34b2:	4789                	li	a5,2
    34b4:	46e1                	li	a3,24
    34b6:	0028                	addi	a0,sp,8
    34b8:	00f50633          	add	a2,a0,a5
    34bc:	00065603          	lhu	a2,0(a2) # ffff8000 <pulp__FC+0xffff8001>
    34c0:	e20d                	bnez	a2,34e2 <ecmp+0x62>
    34c2:	104c                	addi	a1,sp,36
    34c4:	00f58633          	add	a2,a1,a5
    34c8:	00065603          	lhu	a2,0(a2)
    34cc:	ea19                	bnez	a2,34e2 <ecmp+0x62>
    34ce:	0789                	addi	a5,a5,2
    34d0:	fed793e3          	bne	a5,a3,34b6 <ecmp+0x36>
    34d4:	8522                	mv	a0,s0
    34d6:	40b6                	lw	ra,76(sp)
    34d8:	4426                	lw	s0,72(sp)
    34da:	4496                	lw	s1,68(sp)
    34dc:	4906                	lw	s2,64(sp)
    34de:	6161                	addi	sp,sp,80
    34e0:	8082                	ret
    34e2:	4405                	li	s0,1
    34e4:	db65                	beqz	a4,34d4 <ecmp+0x54>
    34e6:	547d                	li	s0,-1
    34e8:	b7f5                	j	34d4 <ecmp+0x54>
    34ea:	4605                	li	a2,1
    34ec:	c391                	beqz	a5,34f0 <ecmp+0x70>
    34ee:	567d                	li	a2,-1
    34f0:	4781                	li	a5,0
    34f2:	45e1                	li	a1,24
    34f4:	0034                	addi	a3,sp,8
    34f6:	00f68733          	add	a4,a3,a5
    34fa:	1048                	addi	a0,sp,36
    34fc:	00075683          	lhu	a3,0(a4)
    3500:	00f50733          	add	a4,a0,a5
    3504:	00075703          	lhu	a4,0(a4)
    3508:	00e69663          	bne	a3,a4,3514 <ecmp+0x94>
    350c:	0789                	addi	a5,a5,2
    350e:	feb793e3          	bne	a5,a1,34f4 <ecmp+0x74>
    3512:	b7c9                	j	34d4 <ecmp+0x54>
    3514:	8432                	mv	s0,a2
    3516:	fad76fe3          	bltu	a4,a3,34d4 <ecmp+0x54>
    351a:	40c00433          	neg	s0,a2
    351e:	bf5d                	j	34d4 <ecmp+0x54>
    3520:	5479                	li	s0,-2
    3522:	bf4d                	j	34d4 <ecmp+0x54>

00003524 <eisinf>:
    3524:	01255783          	lhu	a5,18(a0)
    3528:	fff7c793          	not	a5,a5
    352c:	01179713          	slli	a4,a5,0x11
    3530:	eb09                	bnez	a4,3542 <eisinf+0x1e>
    3532:	1141                	addi	sp,sp,-16
    3534:	c606                	sw	ra,12(sp)
    3536:	35bd                	jal	33a4 <eisnan>
    3538:	40b2                	lw	ra,12(sp)
    353a:	00153513          	seqz	a0,a0
    353e:	0141                	addi	sp,sp,16
    3540:	8082                	ret
    3542:	4501                	li	a0,0
    3544:	8082                	ret

00003546 <einfin.isra.2>:
    3546:	01250793          	addi	a5,a0,18
    354a:	0509                	addi	a0,a0,2
    354c:	fe051f23          	sh	zero,-2(a0)
    3550:	fef51de3          	bne	a0,a5,354a <einfin.isra.2+0x4>
    3554:	00055783          	lhu	a5,0(a0)
    3558:	6721                	lui	a4,0x8
    355a:	177d                	addi	a4,a4,-1
    355c:	8fd9                	or	a5,a5,a4
    355e:	00f51023          	sh	a5,0(a0)
    3562:	8082                	ret

00003564 <eshift.part.3>:
    3564:	1101                	addi	sp,sp,-32
    3566:	ca26                	sw	s1,20(sp)
    3568:	c64e                	sw	s3,12(sp)
    356a:	ce06                	sw	ra,28(sp)
    356c:	cc22                	sw	s0,24(sp)
    356e:	c84a                	sw	s2,16(sp)
    3570:	c452                	sw	s4,8(sp)
    3572:	c256                	sw	s5,4(sp)
    3574:	89aa                	mv	s3,a0
    3576:	84ae                	mv	s1,a1
    3578:	0a05d863          	bgez	a1,3628 <eshift.part.3+0xc4>
    357c:	40b00933          	neg	s2,a1
    3580:	8a4a                	mv	s4,s2
    3582:	4401                	li	s0,0
    3584:	4abd                	li	s5,15
    3586:	034acb63          	blt	s5,s4,35bc <eshift.part.3+0x58>
    358a:	00495913          	srli	s2,s2,0x4
    358e:	55c1                	li	a1,-16
    3590:	02b905b3          	mul	a1,s2,a1
    3594:	409584b3          	sub	s1,a1,s1
    3598:	8926                	mv	s2,s1
    359a:	4a1d                	li	s4,7
    359c:	032a4763          	blt	s4,s2,35ca <eshift.part.3+0x66>
    35a0:	0034d593          	srli	a1,s1,0x3
    35a4:	57e1                	li	a5,-8
    35a6:	02f585b3          	mul	a1,a1,a5
    35aa:	94ae                	add	s1,s1,a1
    35ac:	e495                	bnez	s1,35d8 <eshift.part.3+0x74>
    35ae:	00803533          	snez	a0,s0
    35b2:	842a                	mv	s0,a0
    35b4:	01041513          	slli	a0,s0,0x10
    35b8:	8141                	srli	a0,a0,0x10
    35ba:	a8b1                	j	3616 <eshift.part.3+0xb2>
    35bc:	0189d783          	lhu	a5,24(s3)
    35c0:	854e                	mv	a0,s3
    35c2:	8c5d                	or	s0,s0,a5
    35c4:	1a41                	addi	s4,s4,-16
    35c6:	39cd                	jal	32b8 <eshdn6>
    35c8:	bf7d                	j	3586 <eshift.part.3+0x22>
    35ca:	0189c783          	lbu	a5,24(s3)
    35ce:	854e                	mv	a0,s3
    35d0:	8c5d                	or	s0,s0,a5
    35d2:	1961                	addi	s2,s2,-8
    35d4:	3149                	jal	3256 <eshdn8>
    35d6:	b7d9                	j	359c <eshift.part.3+0x38>
    35d8:	0189d783          	lhu	a5,24(s3)
    35dc:	854e                	mv	a0,s3
    35de:	8b85                	andi	a5,a5,1
    35e0:	8c5d                	or	s0,s0,a5
    35e2:	14fd                	addi	s1,s1,-1
    35e4:	3101                	jal	31e4 <eshdn1>
    35e6:	b7d9                	j	35ac <eshift.part.3+0x48>
    35e8:	854e                	mv	a0,s3
    35ea:	394d                	jal	329c <eshup6>
    35ec:	1441                	addi	s0,s0,-16
    35ee:	fe894de3          	blt	s2,s0,35e8 <eshift.part.3+0x84>
    35f2:	0044d593          	srli	a1,s1,0x4
    35f6:	57c1                	li	a5,-16
    35f8:	02f585b3          	mul	a1,a1,a5
    35fc:	94ae                	add	s1,s1,a1
    35fe:	8426                	mv	s0,s1
    3600:	491d                	li	s2,7
    3602:	02894663          	blt	s2,s0,362e <eshift.part.3+0xca>
    3606:	0034d593          	srli	a1,s1,0x3
    360a:	57e1                	li	a5,-8
    360c:	02f585b3          	mul	a1,a1,a5
    3610:	94ae                	add	s1,s1,a1
    3612:	e095                	bnez	s1,3636 <eshift.part.3+0xd2>
    3614:	4501                	li	a0,0
    3616:	40f2                	lw	ra,28(sp)
    3618:	4462                	lw	s0,24(sp)
    361a:	44d2                	lw	s1,20(sp)
    361c:	4942                	lw	s2,16(sp)
    361e:	49b2                	lw	s3,12(sp)
    3620:	4a22                	lw	s4,8(sp)
    3622:	4a92                	lw	s5,4(sp)
    3624:	6105                	addi	sp,sp,32
    3626:	8082                	ret
    3628:	842e                	mv	s0,a1
    362a:	493d                	li	s2,15
    362c:	b7c9                	j	35ee <eshift.part.3+0x8a>
    362e:	854e                	mv	a0,s3
    3630:	31b1                	jal	327c <eshup8>
    3632:	1461                	addi	s0,s0,-8
    3634:	b7f9                	j	3602 <eshift.part.3+0x9e>
    3636:	854e                	mv	a0,s3
    3638:	36cd                	jal	321a <eshup1>
    363a:	14fd                	addi	s1,s1,-1
    363c:	bfd9                	j	3612 <eshift.part.3+0xae>

0000363e <enormlz>:
    363e:	1141                	addi	sp,sp,-16
    3640:	00455783          	lhu	a5,4(a0)
    3644:	c226                	sw	s1,4(sp)
    3646:	c606                	sw	ra,12(sp)
    3648:	c422                	sw	s0,8(sp)
    364a:	c04a                	sw	s2,0(sp)
    364c:	84aa                	mv	s1,a0
    364e:	efa1                	bnez	a5,36a6 <enormlz+0x68>
    3650:	00651783          	lh	a5,6(a0)
    3654:	4401                	li	s0,0
    3656:	0a000913          	li	s2,160
    365a:	0007de63          	bgez	a5,3676 <enormlz+0x38>
    365e:	8522                	mv	a0,s0
    3660:	40b2                	lw	ra,12(sp)
    3662:	4422                	lw	s0,8(sp)
    3664:	4492                	lw	s1,4(sp)
    3666:	4902                	lw	s2,0(sp)
    3668:	0141                	addi	sp,sp,16
    366a:	8082                	ret
    366c:	8526                	mv	a0,s1
    366e:	0441                	addi	s0,s0,16
    3670:	3135                	jal	329c <eshup6>
    3672:	ff2406e3          	beq	s0,s2,365e <enormlz+0x20>
    3676:	0064d783          	lhu	a5,6(s1)
    367a:	dbed                	beqz	a5,366c <enormlz+0x2e>
    367c:	0064d783          	lhu	a5,6(s1)
    3680:	f007f793          	andi	a5,a5,-256
    3684:	cf89                	beqz	a5,369e <enormlz+0x60>
    3686:	0a000913          	li	s2,160
    368a:	00649783          	lh	a5,6(s1)
    368e:	fc07c8e3          	bltz	a5,365e <enormlz+0x20>
    3692:	8526                	mv	a0,s1
    3694:	0405                	addi	s0,s0,1
    3696:	3651                	jal	321a <eshup1>
    3698:	fe8959e3          	ble	s0,s2,368a <enormlz+0x4c>
    369c:	b7c9                	j	365e <enormlz+0x20>
    369e:	8526                	mv	a0,s1
    36a0:	3ef1                	jal	327c <eshup8>
    36a2:	0421                	addi	s0,s0,8
    36a4:	bfe1                	j	367c <enormlz+0x3e>
    36a6:	f007f793          	andi	a5,a5,-256
    36aa:	4401                	li	s0,0
    36ac:	c399                	beqz	a5,36b2 <enormlz+0x74>
    36ae:	3665                	jal	3256 <eshdn8>
    36b0:	5461                	li	s0,-8
    36b2:	f7000913          	li	s2,-144
    36b6:	a031                	j	36c2 <enormlz+0x84>
    36b8:	8526                	mv	a0,s1
    36ba:	147d                	addi	s0,s0,-1
    36bc:	3625                	jal	31e4 <eshdn1>
    36be:	fb2440e3          	blt	s0,s2,365e <enormlz+0x20>
    36c2:	0044d783          	lhu	a5,4(s1)
    36c6:	fbed                	bnez	a5,36b8 <enormlz+0x7a>
    36c8:	bf59                	j	365e <enormlz+0x20>

000036ca <enan.constprop.12>:
    36ca:	01050793          	addi	a5,a0,16
    36ce:	0509                	addi	a0,a0,2
    36d0:	fe051f23          	sh	zero,-2(a0)
    36d4:	fef51de3          	bne	a0,a5,36ce <enan.constprop.12+0x4>
    36d8:	7fffc7b7          	lui	a5,0x7fffc
    36dc:	c11c                	sw	a5,0(a0)
    36de:	8082                	ret

000036e0 <emovo.isra.6>:
    36e0:	872a                	mv	a4,a0
    36e2:	00075683          	lhu	a3,0(a4) # 8000 <__ascii_wctomb+0x1c>
    36e6:	852e                	mv	a0,a1
    36e8:	00275783          	lhu	a5,2(a4)
    36ec:	c299                	beqz	a3,36f2 <emovo.isra.6+0x12>
    36ee:	76e1                	lui	a3,0xffff8
    36f0:	8fd5                	or	a5,a5,a3
    36f2:	00f51923          	sh	a5,18(a0)
    36f6:	66a1                	lui	a3,0x8
    36f8:	00275603          	lhu	a2,2(a4)
    36fc:	16fd                	addi	a3,a3,-1
    36fe:	00670793          	addi	a5,a4,6
    3702:	00d61a63          	bne	a2,a3,3716 <emovo.isra.6+0x36>
    3706:	0769                	addi	a4,a4,26
    3708:	0007d683          	lhu	a3,0(a5) # 7fffc000 <__heap_end+0x7fbfc000>
    370c:	e285                	bnez	a3,372c <emovo.isra.6+0x4c>
    370e:	0789                	addi	a5,a5,2
    3710:	fee79ce3          	bne	a5,a4,3708 <emovo.isra.6+0x28>
    3714:	bd0d                	j	3546 <einfin.isra.2>
    3716:	0541                	addi	a0,a0,16
    3718:	0761                	addi	a4,a4,24
    371a:	0789                	addi	a5,a5,2
    371c:	ffe7d683          	lhu	a3,-2(a5)
    3720:	1579                	addi	a0,a0,-2
    3722:	00d51123          	sh	a3,2(a0)
    3726:	fee79ae3          	bne	a5,a4,371a <emovo.isra.6+0x3a>
    372a:	8082                	ret
    372c:	bf79                	j	36ca <enan.constprop.12>

0000372e <e113toe.isra.8>:
    372e:	7179                	addi	sp,sp,-48
    3730:	d226                	sw	s1,36(sp)
    3732:	84aa                	mv	s1,a0
    3734:	0048                	addi	a0,sp,4
    3736:	d422                	sw	s0,40(sp)
    3738:	d606                	sw	ra,44(sp)
    373a:	842e                	mv	s0,a1
    373c:	3c89                	jal	318e <ecleaz>
    373e:	00e4d703          	lhu	a4,14(s1)
    3742:	01071793          	slli	a5,a4,0x10
    3746:	87c1                	srai	a5,a5,0x10
    3748:	0207c663          	bltz	a5,3774 <e113toe.isra.8+0x46>
    374c:	00011223          	sh	zero,4(sp)
    3750:	66a1                	lui	a3,0x8
    3752:	16fd                	addi	a3,a3,-1
    3754:	8f75                	and	a4,a4,a3
    3756:	00e48793          	addi	a5,s1,14
    375a:	04d71663          	bne	a4,a3,37a6 <e113toe.isra.8+0x78>
    375e:	8726                	mv	a4,s1
    3760:	00075683          	lhu	a3,0(a4)
    3764:	ce81                	beqz	a3,377c <e113toe.isra.8+0x4e>
    3766:	8522                	mv	a0,s0
    3768:	378d                	jal	36ca <enan.constprop.12>
    376a:	50b2                	lw	ra,44(sp)
    376c:	5422                	lw	s0,40(sp)
    376e:	5492                	lw	s1,36(sp)
    3770:	6145                	addi	sp,sp,48
    3772:	8082                	ret
    3774:	57fd                	li	a5,-1
    3776:	00f11223          	sh	a5,4(sp)
    377a:	bfd9                	j	3750 <e113toe.isra.8+0x22>
    377c:	0709                	addi	a4,a4,2
    377e:	fee791e3          	bne	a5,a4,3760 <e113toe.isra.8+0x32>
    3782:	8522                	mv	a0,s0
    3784:	32d5                	jal	3168 <eclear>
    3786:	8522                	mv	a0,s0
    3788:	3b7d                	jal	3546 <einfin.isra.2>
    378a:	00e49783          	lh	a5,14(s1)
    378e:	fc07dee3          	bgez	a5,376a <e113toe.isra.8+0x3c>
    3792:	8522                	mv	a0,s0
    3794:	3901                	jal	33a4 <eisnan>
    3796:	f971                	bnez	a0,376a <e113toe.isra.8+0x3c>
    3798:	01245783          	lhu	a5,18(s0)
    379c:	7761                	lui	a4,0xffff8
    379e:	8fb9                	xor	a5,a5,a4
    37a0:	00f41923          	sh	a5,18(s0)
    37a4:	b7d9                	j	376a <e113toe.isra.8+0x3c>
    37a6:	00e11323          	sh	a4,6(sp)
    37aa:	0054                	addi	a3,sp,4
    37ac:	17f9                	addi	a5,a5,-2
    37ae:	0007d603          	lhu	a2,0(a5)
    37b2:	0689                	addi	a3,a3,2
    37b4:	00c69223          	sh	a2,4(a3) # 8004 <_write_r>
    37b8:	fef49ae3          	bne	s1,a5,37ac <e113toe.isra.8+0x7e>
    37bc:	e719                	bnez	a4,37ca <e113toe.isra.8+0x9c>
    37be:	00011423          	sh	zero,8(sp)
    37c2:	85a2                	mv	a1,s0
    37c4:	0048                	addi	a0,sp,4
    37c6:	3f29                	jal	36e0 <emovo.isra.6>
    37c8:	b74d                	j	376a <e113toe.isra.8+0x3c>
    37ca:	4785                	li	a5,1
    37cc:	55fd                	li	a1,-1
    37ce:	0048                	addi	a0,sp,4
    37d0:	00f11423          	sh	a5,8(sp)
    37d4:	3b41                	jal	3564 <eshift.part.3>
    37d6:	b7f5                	j	37c2 <e113toe.isra.8+0x94>

000037d8 <emdnorm>:
    37d8:	1101                	addi	sp,sp,-32
    37da:	cc22                	sw	s0,24(sp)
    37dc:	ca26                	sw	s1,20(sp)
    37de:	c84a                	sw	s2,16(sp)
    37e0:	c64e                	sw	s3,12(sp)
    37e2:	c452                	sw	s4,8(sp)
    37e4:	c256                	sw	s5,4(sp)
    37e6:	8936                	mv	s2,a3
    37e8:	843e                	mv	s0,a5
    37ea:	ce06                	sw	ra,28(sp)
    37ec:	84aa                	mv	s1,a0
    37ee:	89ae                	mv	s3,a1
    37f0:	8a32                	mv	s4,a2
    37f2:	8aba                	mv	s5,a4
    37f4:	35a9                	jal	363e <enormlz>
    37f6:	09000793          	li	a5,144
    37fa:	40a90933          	sub	s2,s2,a0
    37fe:	02a7d763          	ble	a0,a5,382c <emdnorm+0x54>
    3802:	67a1                	lui	a5,0x8
    3804:	17f9                	addi	a5,a5,-2
    3806:	2127c163          	blt	a5,s2,3a08 <emdnorm+0x230>
    380a:	00248793          	addi	a5,s1,2
    380e:	04e9                	addi	s1,s1,26
    3810:	0789                	addi	a5,a5,2
    3812:	fe079f23          	sh	zero,-2(a5) # 7ffe <__ascii_wctomb+0x1a>
    3816:	fe979de3          	bne	a5,s1,3810 <emdnorm+0x38>
    381a:	40f2                	lw	ra,28(sp)
    381c:	4462                	lw	s0,24(sp)
    381e:	44d2                	lw	s1,20(sp)
    3820:	4942                	lw	s2,16(sp)
    3822:	49b2                	lw	s3,12(sp)
    3824:	4a22                	lw	s4,8(sp)
    3826:	4a92                	lw	s5,4(sp)
    3828:	6105                	addi	sp,sp,32
    382a:	8082                	ret
    382c:	00095b63          	bgez	s2,3842 <emdnorm+0x6a>
    3830:	f7000793          	li	a5,-144
    3834:	0ef94363          	blt	s2,a5,391a <emdnorm+0x142>
    3838:	85ca                	mv	a1,s2
    383a:	8526                	mv	a0,s1
    383c:	3325                	jal	3564 <eshift.part.3>
    383e:	0e051763          	bnez	a0,392c <emdnorm+0x154>
    3842:	180a8763          	beqz	s5,39d0 <emdnorm+0x1f8>
    3846:	4058                	lw	a4,4(s0)
    3848:	401c                	lw	a5,0(s0)
    384a:	04f70763          	beq	a4,a5,3898 <emdnorm+0xc0>
    384e:	01a40513          	addi	a0,s0,26
    3852:	3a35                	jal	318e <ecleaz>
    3854:	405c                	lw	a5,4(s0)
    3856:	03800713          	li	a4,56
    385a:	10e78963          	beq	a5,a4,396c <emdnorm+0x194>
    385e:	0cf74963          	blt	a4,a5,3930 <emdnorm+0x158>
    3862:	4761                	li	a4,24
    3864:	12e78963          	beq	a5,a4,3996 <emdnorm+0x1be>
    3868:	03500713          	li	a4,53
    386c:	10e78a63          	beq	a5,a4,3980 <emdnorm+0x1a8>
    3870:	4731                	li	a4,12
    3872:	c418                	sw	a4,8(s0)
    3874:	80010737          	lui	a4,0x80010
    3878:	177d                	addi	a4,a4,-1
    387a:	c858                	sw	a4,20(s0)
    387c:	4705                	li	a4,1
    387e:	00e41c23          	sh	a4,24(s0)
    3882:	472d                	li	a4,11
    3884:	c458                	sw	a4,12(s0)
    3886:	4458                	lw	a4,12(s0)
    3888:	01845683          	lhu	a3,24(s0)
    388c:	0721                	addi	a4,a4,8
    388e:	0706                	slli	a4,a4,0x1
    3890:	9722                	add	a4,a4,s0
    3892:	00d71523          	sh	a3,10(a4) # 8001000a <pulp__FC+0x8001000b>
    3896:	c01c                	sw	a5,0(s0)
    3898:	01204e63          	bgtz	s2,38b4 <emdnorm+0xdc>
    389c:	4058                	lw	a4,4(s0)
    389e:	09000793          	li	a5,144
    38a2:	00f70963          	beq	a4,a5,38b4 <emdnorm+0xdc>
    38a6:	0184d783          	lhu	a5,24(s1)
    38aa:	8526                	mv	a0,s1
    38ac:	8b85                	andi	a5,a5,1
    38ae:	00f9e9b3          	or	s3,s3,a5
    38b2:	3a0d                	jal	31e4 <eshdn1>
    38b4:	4414                	lw	a3,8(s0)
    38b6:	01445603          	lhu	a2,20(s0)
    38ba:	00169713          	slli	a4,a3,0x1
    38be:	9726                	add	a4,a4,s1
    38c0:	00075783          	lhu	a5,0(a4)
    38c4:	404c                	lw	a1,4(s0)
    38c6:	8ff1                	and	a5,a5,a2
    38c8:	08f00613          	li	a2,143
    38cc:	00b64763          	blt	a2,a1,38da <emdnorm+0x102>
    38d0:	0685                	addi	a3,a3,1
    38d2:	863a                	mv	a2,a4
    38d4:	45b1                	li	a1,12
    38d6:	0cd5d263          	ble	a3,a1,399a <emdnorm+0x1c2>
    38da:	01445683          	lhu	a3,20(s0)
    38de:	00075603          	lhu	a2,0(a4)
    38e2:	fff6c693          	not	a3,a3
    38e6:	8ef1                	and	a3,a3,a2
    38e8:	00d71023          	sh	a3,0(a4)
    38ec:	01645703          	lhu	a4,22(s0)
    38f0:	00f776b3          	and	a3,a4,a5
    38f4:	cedd                	beqz	a3,39b2 <emdnorm+0x1da>
    38f6:	00f71d63          	bne	a4,a5,3910 <emdnorm+0x138>
    38fa:	0a099a63          	bnez	s3,39ae <emdnorm+0x1d6>
    38fe:	445c                	lw	a5,12(s0)
    3900:	01845703          	lhu	a4,24(s0)
    3904:	0786                	slli	a5,a5,0x1
    3906:	97a6                	add	a5,a5,s1
    3908:	0007d783          	lhu	a5,0(a5)
    390c:	8ff9                	and	a5,a5,a4
    390e:	c3d5                	beqz	a5,39b2 <emdnorm+0x1da>
    3910:	85a6                	mv	a1,s1
    3912:	01a40513          	addi	a0,s0,26
    3916:	32d1                	jal	32da <eaddm>
    3918:	a869                	j	39b2 <emdnorm+0x1da>
    391a:	00248793          	addi	a5,s1,2
    391e:	04e9                	addi	s1,s1,26
    3920:	0789                	addi	a5,a5,2
    3922:	fe079f23          	sh	zero,-2(a5)
    3926:	fe979de3          	bne	a5,s1,3920 <emdnorm+0x148>
    392a:	bdc5                	j	381a <emdnorm+0x42>
    392c:	4985                	li	s3,1
    392e:	bf11                	j	3842 <emdnorm+0x6a>
    3930:	04000713          	li	a4,64
    3934:	02e78163          	beq	a5,a4,3956 <emdnorm+0x17e>
    3938:	07100713          	li	a4,113
    393c:	f2e79ae3          	bne	a5,a4,3870 <emdnorm+0x98>
    3940:	40008737          	lui	a4,0x40008
    3944:	177d                	addi	a4,a4,-1
    3946:	46a9                	li	a3,10
    3948:	c858                	sw	a4,20(s0)
    394a:	c414                	sw	a3,8(s0)
    394c:	7761                	lui	a4,0xffff8
    394e:	00e41c23          	sh	a4,24(s0)
    3952:	c454                	sw	a3,12(s0)
    3954:	bf0d                	j	3886 <emdnorm+0xae>
    3956:	471d                	li	a4,7
    3958:	c418                	sw	a4,8(s0)
    395a:	80010737          	lui	a4,0x80010
    395e:	177d                	addi	a4,a4,-1
    3960:	c858                	sw	a4,20(s0)
    3962:	4705                	li	a4,1
    3964:	00e41c23          	sh	a4,24(s0)
    3968:	4719                	li	a4,6
    396a:	bf29                	j	3884 <emdnorm+0xac>
    396c:	4699                	li	a3,6
    396e:	00800737          	lui	a4,0x800
    3972:	0ff70713          	addi	a4,a4,255 # 8000ff <__heap_end+0x4000ff>
    3976:	c858                	sw	a4,20(s0)
    3978:	c414                	sw	a3,8(s0)
    397a:	10000713          	li	a4,256
    397e:	bfc1                	j	394e <emdnorm+0x176>
    3980:	04000737          	lui	a4,0x4000
    3984:	7ff70713          	addi	a4,a4,2047 # 40007ff <__heap_end+0x3c007ff>
    3988:	4699                	li	a3,6
    398a:	c858                	sw	a4,20(s0)
    398c:	6705                	lui	a4,0x1
    398e:	c414                	sw	a3,8(s0)
    3990:	80070713          	addi	a4,a4,-2048 # 800 <main+0x72a>
    3994:	bf6d                	j	394e <emdnorm+0x176>
    3996:	4691                	li	a3,4
    3998:	bfd9                	j	396e <emdnorm+0x196>
    399a:	00265503          	lhu	a0,2(a2)
    399e:	c119                	beqz	a0,39a4 <emdnorm+0x1cc>
    39a0:	0017e793          	ori	a5,a5,1
    39a4:	00061123          	sh	zero,2(a2)
    39a8:	0685                	addi	a3,a3,1
    39aa:	0609                	addi	a2,a2,2
    39ac:	b72d                	j	38d6 <emdnorm+0xfe>
    39ae:	f60a01e3          	beqz	s4,3910 <emdnorm+0x138>
    39b2:	01204963          	bgtz	s2,39c4 <emdnorm+0x1ec>
    39b6:	4058                	lw	a4,4(s0)
    39b8:	09000793          	li	a5,144
    39bc:	00f70463          	beq	a4,a5,39c4 <emdnorm+0x1ec>
    39c0:	8526                	mv	a0,s1
    39c2:	38a1                	jal	321a <eshup1>
    39c4:	0044d783          	lhu	a5,4(s1)
    39c8:	c781                	beqz	a5,39d0 <emdnorm+0x1f8>
    39ca:	8526                	mv	a0,s1
    39cc:	3821                	jal	31e4 <eshdn1>
    39ce:	0905                	addi	s2,s2,1
    39d0:	67a1                	lui	a5,0x8
    39d2:	00049c23          	sh	zero,24(s1)
    39d6:	17f9                	addi	a5,a5,-2
    39d8:	0327d063          	ble	s2,a5,39f8 <emdnorm+0x220>
    39dc:	77e1                	lui	a5,0xffff8
    39de:	fff7c793          	not	a5,a5
    39e2:	00f49123          	sh	a5,2(s1)
    39e6:	00448793          	addi	a5,s1,4
    39ea:	04e1                	addi	s1,s1,24
    39ec:	00079023          	sh	zero,0(a5) # ffff8000 <pulp__FC+0xffff8001>
    39f0:	0789                	addi	a5,a5,2
    39f2:	fef49de3          	bne	s1,a5,39ec <emdnorm+0x214>
    39f6:	b515                	j	381a <emdnorm+0x42>
    39f8:	00095563          	bgez	s2,3a02 <emdnorm+0x22a>
    39fc:	00049123          	sh	zero,2(s1)
    3a00:	bd29                	j	381a <emdnorm+0x42>
    3a02:	01249123          	sh	s2,2(s1)
    3a06:	bd11                	j	381a <emdnorm+0x42>
    3a08:	e20a9fe3          	bnez	s5,3846 <emdnorm+0x6e>
